
test_kyber1024:     file format elf64-x86-64


Disassembly of section .init:

0000000000001000 <_init>:
    1000:	f3 0f 1e fa          	endbr64 
    1004:	48 83 ec 08          	sub    $0x8,%rsp
    1008:	48 8b 05 d9 cf 00 00 	mov    0xcfd9(%rip),%rax        # dfe8 <__gmon_start__@Base>
    100f:	48 85 c0             	test   %rax,%rax
    1012:	74 02                	je     1016 <_init+0x16>
    1014:	ff d0                	call   *%rax
    1016:	48 83 c4 08          	add    $0x8,%rsp
    101a:	c3                   	ret    

Disassembly of section .plt:

0000000000001020 <.plt>:
    1020:	ff 35 2a cf 00 00    	push   0xcf2a(%rip)        # df50 <_GLOBAL_OFFSET_TABLE_+0x8>
    1026:	f2 ff 25 2b cf 00 00 	bnd jmp *0xcf2b(%rip)        # df58 <_GLOBAL_OFFSET_TABLE_+0x10>
    102d:	0f 1f 00             	nopl   (%rax)
    1030:	f3 0f 1e fa          	endbr64 
    1034:	68 00 00 00 00       	push   $0x0
    1039:	f2 e9 e1 ff ff ff    	bnd jmp 1020 <_init+0x20>
    103f:	90                   	nop
    1040:	f3 0f 1e fa          	endbr64 
    1044:	68 01 00 00 00       	push   $0x1
    1049:	f2 e9 d1 ff ff ff    	bnd jmp 1020 <_init+0x20>
    104f:	90                   	nop
    1050:	f3 0f 1e fa          	endbr64 
    1054:	68 02 00 00 00       	push   $0x2
    1059:	f2 e9 c1 ff ff ff    	bnd jmp 1020 <_init+0x20>
    105f:	90                   	nop
    1060:	f3 0f 1e fa          	endbr64 
    1064:	68 03 00 00 00       	push   $0x3
    1069:	f2 e9 b1 ff ff ff    	bnd jmp 1020 <_init+0x20>
    106f:	90                   	nop
    1070:	f3 0f 1e fa          	endbr64 
    1074:	68 04 00 00 00       	push   $0x4
    1079:	f2 e9 a1 ff ff ff    	bnd jmp 1020 <_init+0x20>
    107f:	90                   	nop
    1080:	f3 0f 1e fa          	endbr64 
    1084:	68 05 00 00 00       	push   $0x5
    1089:	f2 e9 91 ff ff ff    	bnd jmp 1020 <_init+0x20>
    108f:	90                   	nop
    1090:	f3 0f 1e fa          	endbr64 
    1094:	68 06 00 00 00       	push   $0x6
    1099:	f2 e9 81 ff ff ff    	bnd jmp 1020 <_init+0x20>
    109f:	90                   	nop
    10a0:	f3 0f 1e fa          	endbr64 
    10a4:	68 07 00 00 00       	push   $0x7
    10a9:	f2 e9 71 ff ff ff    	bnd jmp 1020 <_init+0x20>
    10af:	90                   	nop
    10b0:	f3 0f 1e fa          	endbr64 
    10b4:	68 08 00 00 00       	push   $0x8
    10b9:	f2 e9 61 ff ff ff    	bnd jmp 1020 <_init+0x20>
    10bf:	90                   	nop
    10c0:	f3 0f 1e fa          	endbr64 
    10c4:	68 09 00 00 00       	push   $0x9
    10c9:	f2 e9 51 ff ff ff    	bnd jmp 1020 <_init+0x20>
    10cf:	90                   	nop
    10d0:	f3 0f 1e fa          	endbr64 
    10d4:	68 0a 00 00 00       	push   $0xa
    10d9:	f2 e9 41 ff ff ff    	bnd jmp 1020 <_init+0x20>
    10df:	90                   	nop
    10e0:	f3 0f 1e fa          	endbr64 
    10e4:	68 0b 00 00 00       	push   $0xb
    10e9:	f2 e9 31 ff ff ff    	bnd jmp 1020 <_init+0x20>
    10ef:	90                   	nop
    10f0:	f3 0f 1e fa          	endbr64 
    10f4:	68 0c 00 00 00       	push   $0xc
    10f9:	f2 e9 21 ff ff ff    	bnd jmp 1020 <_init+0x20>
    10ff:	90                   	nop
    1100:	f3 0f 1e fa          	endbr64 
    1104:	68 0d 00 00 00       	push   $0xd
    1109:	f2 e9 11 ff ff ff    	bnd jmp 1020 <_init+0x20>
    110f:	90                   	nop
    1110:	f3 0f 1e fa          	endbr64 
    1114:	68 0e 00 00 00       	push   $0xe
    1119:	f2 e9 01 ff ff ff    	bnd jmp 1020 <_init+0x20>
    111f:	90                   	nop

Disassembly of section .plt.got:

0000000000001120 <__cxa_finalize@plt>:
    1120:	f3 0f 1e fa          	endbr64 
    1124:	f2 ff 25 cd ce 00 00 	bnd jmp *0xcecd(%rip)        # dff8 <__cxa_finalize@GLIBC_2.2.5>
    112b:	0f 1f 44 00 00       	nopl   0x0(%rax,%rax,1)

Disassembly of section .plt.sec:

0000000000001130 <putchar@plt>:
    1130:	f3 0f 1e fa          	endbr64 
    1134:	f2 ff 25 25 ce 00 00 	bnd jmp *0xce25(%rip)        # df60 <putchar@GLIBC_2.2.5>
    113b:	0f 1f 44 00 00       	nopl   0x0(%rax,%rax,1)

0000000000001140 <abort@plt>:
    1140:	f3 0f 1e fa          	endbr64 
    1144:	f2 ff 25 1d ce 00 00 	bnd jmp *0xce1d(%rip)        # df68 <abort@GLIBC_2.2.5>
    114b:	0f 1f 44 00 00       	nopl   0x0(%rax,%rax,1)

0000000000001150 <__errno_location@plt>:
    1150:	f3 0f 1e fa          	endbr64 
    1154:	f2 ff 25 15 ce 00 00 	bnd jmp *0xce15(%rip)        # df70 <__errno_location@GLIBC_2.2.5>
    115b:	0f 1f 44 00 00       	nopl   0x0(%rax,%rax,1)

0000000000001160 <puts@plt>:
    1160:	f3 0f 1e fa          	endbr64 
    1164:	f2 ff 25 0d ce 00 00 	bnd jmp *0xce0d(%rip)        # df78 <puts@GLIBC_2.2.5>
    116b:	0f 1f 44 00 00       	nopl   0x0(%rax,%rax,1)

0000000000001170 <fclose@plt>:
    1170:	f3 0f 1e fa          	endbr64 
    1174:	f2 ff 25 05 ce 00 00 	bnd jmp *0xce05(%rip)        # df80 <fclose@GLIBC_2.2.5>
    117b:	0f 1f 44 00 00       	nopl   0x0(%rax,%rax,1)

0000000000001180 <__stack_chk_fail@plt>:
    1180:	f3 0f 1e fa          	endbr64 
    1184:	f2 ff 25 fd cd 00 00 	bnd jmp *0xcdfd(%rip)        # df88 <__stack_chk_fail@GLIBC_2.4>
    118b:	0f 1f 44 00 00       	nopl   0x0(%rax,%rax,1)

0000000000001190 <lseek@plt>:
    1190:	f3 0f 1e fa          	endbr64 
    1194:	f2 ff 25 f5 cd 00 00 	bnd jmp *0xcdf5(%rip)        # df90 <lseek@GLIBC_2.2.5>
    119b:	0f 1f 44 00 00       	nopl   0x0(%rax,%rax,1)

00000000000011a0 <__assert_fail@plt>:
    11a0:	f3 0f 1e fa          	endbr64 
    11a4:	f2 ff 25 ed cd 00 00 	bnd jmp *0xcded(%rip)        # df98 <__assert_fail@GLIBC_2.2.5>
    11ab:	0f 1f 44 00 00       	nopl   0x0(%rax,%rax,1)

00000000000011b0 <close@plt>:
    11b0:	f3 0f 1e fa          	endbr64 
    11b4:	f2 ff 25 e5 cd 00 00 	bnd jmp *0xcde5(%rip)        # dfa0 <close@GLIBC_2.2.5>
    11bb:	0f 1f 44 00 00       	nopl   0x0(%rax,%rax,1)

00000000000011c0 <read@plt>:
    11c0:	f3 0f 1e fa          	endbr64 
    11c4:	f2 ff 25 dd cd 00 00 	bnd jmp *0xcddd(%rip)        # dfa8 <read@GLIBC_2.2.5>
    11cb:	0f 1f 44 00 00       	nopl   0x0(%rax,%rax,1)

00000000000011d0 <syscall@plt>:
    11d0:	f3 0f 1e fa          	endbr64 
    11d4:	f2 ff 25 d5 cd 00 00 	bnd jmp *0xcdd5(%rip)        # dfb0 <syscall@GLIBC_2.2.5>
    11db:	0f 1f 44 00 00       	nopl   0x0(%rax,%rax,1)

00000000000011e0 <__printf_chk@plt>:
    11e0:	f3 0f 1e fa          	endbr64 
    11e4:	f2 ff 25 cd cd 00 00 	bnd jmp *0xcdcd(%rip)        # dfb8 <__printf_chk@GLIBC_2.3.4>
    11eb:	0f 1f 44 00 00       	nopl   0x0(%rax,%rax,1)

00000000000011f0 <open@plt>:
    11f0:	f3 0f 1e fa          	endbr64 
    11f4:	f2 ff 25 c5 cd 00 00 	bnd jmp *0xcdc5(%rip)        # dfc0 <open@GLIBC_2.2.5>
    11fb:	0f 1f 44 00 00       	nopl   0x0(%rax,%rax,1)

0000000000001200 <fopen@plt>:
    1200:	f3 0f 1e fa          	endbr64 
    1204:	f2 ff 25 bd cd 00 00 	bnd jmp *0xcdbd(%rip)        # dfc8 <fopen@GLIBC_2.2.5>
    120b:	0f 1f 44 00 00       	nopl   0x0(%rax,%rax,1)

0000000000001210 <fwrite@plt>:
    1210:	f3 0f 1e fa          	endbr64 
    1214:	f2 ff 25 b5 cd 00 00 	bnd jmp *0xcdb5(%rip)        # dfd0 <fwrite@GLIBC_2.2.5>
    121b:	0f 1f 44 00 00       	nopl   0x0(%rax,%rax,1)

Disassembly of section .text:

0000000000001220 <main>:
    1220:	f3 0f 1e fa          	endbr64 
    1224:	41 54                	push   %r12
    1226:	41 bc 01 00 00 00    	mov    $0x1,%r12d
    122c:	e8 3f 93 00 00       	call   a570 <test_keys>
    1231:	85 c0                	test   %eax,%eax
    1233:	74 06                	je     123b <main+0x1b>
    1235:	44 89 e0             	mov    %r12d,%eax
    1238:	41 5c                	pop    %r12
    123a:	c3                   	ret    
    123b:	41 89 c4             	mov    %eax,%r12d
    123e:	ba 60 0c 00 00       	mov    $0xc60,%edx
    1243:	48 8d 35 3e a1 00 00 	lea    0xa13e(%rip),%rsi        # b388 <KeccakF_RoundConstants+0x148>
    124a:	31 c0                	xor    %eax,%eax
    124c:	bf 01 00 00 00       	mov    $0x1,%edi
    1251:	e8 8a ff ff ff       	call   11e0 <__printf_chk@plt>
    1256:	ba 20 06 00 00       	mov    $0x620,%edx
    125b:	48 8d 35 42 a1 00 00 	lea    0xa142(%rip),%rsi        # b3a4 <KeccakF_RoundConstants+0x164>
    1262:	31 c0                	xor    %eax,%eax
    1264:	bf 01 00 00 00       	mov    $0x1,%edi
    1269:	e8 72 ff ff ff       	call   11e0 <__printf_chk@plt>
    126e:	ba 20 06 00 00       	mov    $0x620,%edx
    1273:	48 8d 35 46 a1 00 00 	lea    0xa146(%rip),%rsi        # b3c0 <KeccakF_RoundConstants+0x180>
    127a:	31 c0                	xor    %eax,%eax
    127c:	bf 01 00 00 00       	mov    $0x1,%edi
    1281:	e8 5a ff ff ff       	call   11e0 <__printf_chk@plt>
    1286:	eb ad                	jmp    1235 <main+0x15>
    1288:	0f 1f 84 00 00 00 00 	nopl   0x0(%rax,%rax,1)
    128f:	00 

0000000000001290 <_start>:
    1290:	f3 0f 1e fa          	endbr64 
    1294:	31 ed                	xor    %ebp,%ebp
    1296:	49 89 d1             	mov    %rdx,%r9
    1299:	5e                   	pop    %rsi
    129a:	48 89 e2             	mov    %rsp,%rdx
    129d:	48 83 e4 f0          	and    $0xfffffffffffffff0,%rsp
    12a1:	50                   	push   %rax
    12a2:	54                   	push   %rsp
    12a3:	45 31 c0             	xor    %r8d,%r8d
    12a6:	31 c9                	xor    %ecx,%ecx
    12a8:	48 8d 3d 71 ff ff ff 	lea    -0x8f(%rip),%rdi        # 1220 <main>
    12af:	ff 15 23 cd 00 00    	call   *0xcd23(%rip)        # dfd8 <__libc_start_main@GLIBC_2.34>
    12b5:	f4                   	hlt    
    12b6:	66 2e 0f 1f 84 00 00 	cs nopw 0x0(%rax,%rax,1)
    12bd:	00 00 00 

00000000000012c0 <deregister_tm_clones>:
    12c0:	48 8d 3d 49 cd 00 00 	lea    0xcd49(%rip),%rdi        # e010 <__TMC_END__>
    12c7:	48 8d 05 42 cd 00 00 	lea    0xcd42(%rip),%rax        # e010 <__TMC_END__>
    12ce:	48 39 f8             	cmp    %rdi,%rax
    12d1:	74 15                	je     12e8 <deregister_tm_clones+0x28>
    12d3:	48 8b 05 06 cd 00 00 	mov    0xcd06(%rip),%rax        # dfe0 <_ITM_deregisterTMCloneTable@Base>
    12da:	48 85 c0             	test   %rax,%rax
    12dd:	74 09                	je     12e8 <deregister_tm_clones+0x28>
    12df:	ff e0                	jmp    *%rax
    12e1:	0f 1f 80 00 00 00 00 	nopl   0x0(%rax)
    12e8:	c3                   	ret    
    12e9:	0f 1f 80 00 00 00 00 	nopl   0x0(%rax)

00000000000012f0 <register_tm_clones>:
    12f0:	48 8d 3d 19 cd 00 00 	lea    0xcd19(%rip),%rdi        # e010 <__TMC_END__>
    12f7:	48 8d 35 12 cd 00 00 	lea    0xcd12(%rip),%rsi        # e010 <__TMC_END__>
    12fe:	48 29 fe             	sub    %rdi,%rsi
    1301:	48 89 f0             	mov    %rsi,%rax
    1304:	48 c1 ee 3f          	shr    $0x3f,%rsi
    1308:	48 c1 f8 03          	sar    $0x3,%rax
    130c:	48 01 c6             	add    %rax,%rsi
    130f:	48 d1 fe             	sar    %rsi
    1312:	74 14                	je     1328 <register_tm_clones+0x38>
    1314:	48 8b 05 d5 cc 00 00 	mov    0xccd5(%rip),%rax        # dff0 <_ITM_registerTMCloneTable@Base>
    131b:	48 85 c0             	test   %rax,%rax
    131e:	74 08                	je     1328 <register_tm_clones+0x38>
    1320:	ff e0                	jmp    *%rax
    1322:	66 0f 1f 44 00 00    	nopw   0x0(%rax,%rax,1)
    1328:	c3                   	ret    
    1329:	0f 1f 80 00 00 00 00 	nopl   0x0(%rax)

0000000000001330 <__do_global_dtors_aux>:
    1330:	f3 0f 1e fa          	endbr64 
    1334:	80 3d e5 cc 00 00 00 	cmpb   $0x0,0xcce5(%rip)        # e020 <completed.0>
    133b:	75 2b                	jne    1368 <__do_global_dtors_aux+0x38>
    133d:	55                   	push   %rbp
    133e:	48 83 3d b2 cc 00 00 	cmpq   $0x0,0xccb2(%rip)        # dff8 <__cxa_finalize@GLIBC_2.2.5>
    1345:	00 
    1346:	48 89 e5             	mov    %rsp,%rbp
    1349:	74 0c                	je     1357 <__do_global_dtors_aux+0x27>
    134b:	48 8b 3d b6 cc 00 00 	mov    0xccb6(%rip),%rdi        # e008 <__dso_handle>
    1352:	e8 c9 fd ff ff       	call   1120 <__cxa_finalize@plt>
    1357:	e8 64 ff ff ff       	call   12c0 <deregister_tm_clones>
    135c:	c6 05 bd cc 00 00 01 	movb   $0x1,0xccbd(%rip)        # e020 <completed.0>
    1363:	5d                   	pop    %rbp
    1364:	c3                   	ret    
    1365:	0f 1f 00             	nopl   (%rax)
    1368:	c3                   	ret    
    1369:	0f 1f 80 00 00 00 00 	nopl   0x0(%rax)

0000000000001370 <frame_dummy>:
    1370:	f3 0f 1e fa          	endbr64 
    1374:	e9 77 ff ff ff       	jmp    12f0 <register_tm_clones>
    1379:	0f 1f 80 00 00 00 00 	nopl   0x0(%rax)

0000000000001380 <kex_uake_initA>:
    1380:	f3 0f 1e fa          	endbr64 
    1384:	41 54                	push   %r12
    1386:	49 89 cc             	mov    %rcx,%r12
    1389:	55                   	push   %rbp
    138a:	48 89 f5             	mov    %rsi,%rbp
    138d:	48 89 d6             	mov    %rdx,%rsi
    1390:	53                   	push   %rbx
    1391:	48 89 fb             	mov    %rdi,%rbx
    1394:	e8 87 02 00 00       	call   1620 <pqcrystals_kyber1024_ref_keypair>
    1399:	48 8d bb 20 06 00 00 	lea    0x620(%rbx),%rdi
    13a0:	4c 89 e2             	mov    %r12,%rdx
    13a3:	5b                   	pop    %rbx
    13a4:	48 89 ee             	mov    %rbp,%rsi
    13a7:	5d                   	pop    %rbp
    13a8:	41 5c                	pop    %r12
    13aa:	e9 11 03 00 00       	jmp    16c0 <pqcrystals_kyber1024_ref_enc>
    13af:	90                   	nop

00000000000013b0 <kex_uake_sharedB>:
    13b0:	f3 0f 1e fa          	endbr64 
    13b4:	41 55                	push   %r13
    13b6:	41 54                	push   %r12
    13b8:	49 89 cc             	mov    %rcx,%r12
    13bb:	55                   	push   %rbp
    13bc:	48 89 f5             	mov    %rsi,%rbp
    13bf:	53                   	push   %rbx
    13c0:	48 89 d3             	mov    %rdx,%rbx
    13c3:	48 83 ec 58          	sub    $0x58,%rsp
    13c7:	64 48 8b 04 25 28 00 	mov    %fs:0x28,%rax
    13ce:	00 00 
    13d0:	48 89 44 24 48       	mov    %rax,0x48(%rsp)
    13d5:	31 c0                	xor    %eax,%eax
    13d7:	49 89 e5             	mov    %rsp,%r13
    13da:	4c 89 ee             	mov    %r13,%rsi
    13dd:	e8 de 02 00 00       	call   16c0 <pqcrystals_kyber1024_ref_enc>
    13e2:	48 8d b3 20 06 00 00 	lea    0x620(%rbx),%rsi
    13e9:	48 8d 7c 24 20       	lea    0x20(%rsp),%rdi
    13ee:	4c 89 e2             	mov    %r12,%rdx
    13f1:	e8 aa 03 00 00       	call   17a0 <pqcrystals_kyber1024_ref_dec>
    13f6:	b9 40 00 00 00       	mov    $0x40,%ecx
    13fb:	4c 89 ea             	mov    %r13,%rdx
    13fe:	48 89 ef             	mov    %rbp,%rdi
    1401:	be 20 00 00 00       	mov    $0x20,%esi
    1406:	e8 b5 7f 00 00       	call   93c0 <pqcrystals_kyber_fips202_ref_shake256>
    140b:	48 8b 44 24 48       	mov    0x48(%rsp),%rax
    1410:	64 48 2b 04 25 28 00 	sub    %fs:0x28,%rax
    1417:	00 00 
    1419:	75 0b                	jne    1426 <kex_uake_sharedB+0x76>
    141b:	48 83 c4 58          	add    $0x58,%rsp
    141f:	5b                   	pop    %rbx
    1420:	5d                   	pop    %rbp
    1421:	41 5c                	pop    %r12
    1423:	41 5d                	pop    %r13
    1425:	c3                   	ret    
    1426:	e8 55 fd ff ff       	call   1180 <__stack_chk_fail@plt>
    142b:	0f 1f 44 00 00       	nopl   0x0(%rax,%rax,1)

0000000000001430 <kex_uake_sharedA>:
    1430:	f3 0f 1e fa          	endbr64 
    1434:	41 54                	push   %r12
    1436:	55                   	push   %rbp
    1437:	48 89 fd             	mov    %rdi,%rbp
    143a:	53                   	push   %rbx
    143b:	48 89 d3             	mov    %rdx,%rbx
    143e:	48 89 ca             	mov    %rcx,%rdx
    1441:	48 83 ec 50          	sub    $0x50,%rsp
    1445:	64 48 8b 04 25 28 00 	mov    %fs:0x28,%rax
    144c:	00 00 
    144e:	48 89 44 24 48       	mov    %rax,0x48(%rsp)
    1453:	31 c0                	xor    %eax,%eax
    1455:	49 89 e4             	mov    %rsp,%r12
    1458:	4c 89 e7             	mov    %r12,%rdi
    145b:	e8 40 03 00 00       	call   17a0 <pqcrystals_kyber1024_ref_dec>
    1460:	f3 0f 6f 03          	movdqu (%rbx),%xmm0
    1464:	4c 89 e2             	mov    %r12,%rdx
    1467:	48 89 ef             	mov    %rbp,%rdi
    146a:	f3 0f 6f 4b 10       	movdqu 0x10(%rbx),%xmm1
    146f:	b9 40 00 00 00       	mov    $0x40,%ecx
    1474:	be 20 00 00 00       	mov    $0x20,%esi
    1479:	0f 29 44 24 20       	movaps %xmm0,0x20(%rsp)
    147e:	0f 29 4c 24 30       	movaps %xmm1,0x30(%rsp)
    1483:	e8 38 7f 00 00       	call   93c0 <pqcrystals_kyber_fips202_ref_shake256>
    1488:	48 8b 44 24 48       	mov    0x48(%rsp),%rax
    148d:	64 48 2b 04 25 28 00 	sub    %fs:0x28,%rax
    1494:	00 00 
    1496:	75 09                	jne    14a1 <kex_uake_sharedA+0x71>
    1498:	48 83 c4 50          	add    $0x50,%rsp
    149c:	5b                   	pop    %rbx
    149d:	5d                   	pop    %rbp
    149e:	41 5c                	pop    %r12
    14a0:	c3                   	ret    
    14a1:	e8 da fc ff ff       	call   1180 <__stack_chk_fail@plt>
    14a6:	66 2e 0f 1f 84 00 00 	cs nopw 0x0(%rax,%rax,1)
    14ad:	00 00 00 

00000000000014b0 <kex_ake_initA>:
    14b0:	f3 0f 1e fa          	endbr64 
    14b4:	41 54                	push   %r12
    14b6:	49 89 cc             	mov    %rcx,%r12
    14b9:	55                   	push   %rbp
    14ba:	48 89 f5             	mov    %rsi,%rbp
    14bd:	48 89 d6             	mov    %rdx,%rsi
    14c0:	53                   	push   %rbx
    14c1:	48 89 fb             	mov    %rdi,%rbx
    14c4:	e8 57 01 00 00       	call   1620 <pqcrystals_kyber1024_ref_keypair>
    14c9:	48 8d bb 20 06 00 00 	lea    0x620(%rbx),%rdi
    14d0:	4c 89 e2             	mov    %r12,%rdx
    14d3:	5b                   	pop    %rbx
    14d4:	48 89 ee             	mov    %rbp,%rsi
    14d7:	5d                   	pop    %rbp
    14d8:	41 5c                	pop    %r12
    14da:	e9 e1 01 00 00       	jmp    16c0 <pqcrystals_kyber1024_ref_enc>
    14df:	90                   	nop

00000000000014e0 <kex_ake_sharedB>:
    14e0:	f3 0f 1e fa          	endbr64 
    14e4:	41 57                	push   %r15
    14e6:	41 56                	push   %r14
    14e8:	4d 89 c6             	mov    %r8,%r14
    14eb:	41 55                	push   %r13
    14ed:	49 89 cd             	mov    %rcx,%r13
    14f0:	41 54                	push   %r12
    14f2:	49 89 f4             	mov    %rsi,%r12
    14f5:	55                   	push   %rbp
    14f6:	48 89 fd             	mov    %rdi,%rbp
    14f9:	53                   	push   %rbx
    14fa:	48 89 d3             	mov    %rdx,%rbx
    14fd:	48 83 ec 78          	sub    $0x78,%rsp
    1501:	64 48 8b 04 25 28 00 	mov    %fs:0x28,%rax
    1508:	00 00 
    150a:	48 89 44 24 68       	mov    %rax,0x68(%rsp)
    150f:	31 c0                	xor    %eax,%eax
    1511:	49 89 e7             	mov    %rsp,%r15
    1514:	4c 89 fe             	mov    %r15,%rsi
    1517:	e8 a4 01 00 00       	call   16c0 <pqcrystals_kyber1024_ref_enc>
    151c:	48 8d 74 24 20       	lea    0x20(%rsp),%rsi
    1521:	48 8d bd 20 06 00 00 	lea    0x620(%rbp),%rdi
    1528:	4c 89 f2             	mov    %r14,%rdx
    152b:	e8 90 01 00 00       	call   16c0 <pqcrystals_kyber1024_ref_enc>
    1530:	48 8d b3 20 06 00 00 	lea    0x620(%rbx),%rsi
    1537:	48 8d 7c 24 40       	lea    0x40(%rsp),%rdi
    153c:	4c 89 ea             	mov    %r13,%rdx
    153f:	e8 5c 02 00 00       	call   17a0 <pqcrystals_kyber1024_ref_dec>
    1544:	b9 60 00 00 00       	mov    $0x60,%ecx
    1549:	4c 89 fa             	mov    %r15,%rdx
    154c:	4c 89 e7             	mov    %r12,%rdi
    154f:	be 20 00 00 00       	mov    $0x20,%esi
    1554:	e8 67 7e 00 00       	call   93c0 <pqcrystals_kyber_fips202_ref_shake256>
    1559:	48 8b 44 24 68       	mov    0x68(%rsp),%rax
    155e:	64 48 2b 04 25 28 00 	sub    %fs:0x28,%rax
    1565:	00 00 
    1567:	75 0f                	jne    1578 <kex_ake_sharedB+0x98>
    1569:	48 83 c4 78          	add    $0x78,%rsp
    156d:	5b                   	pop    %rbx
    156e:	5d                   	pop    %rbp
    156f:	41 5c                	pop    %r12
    1571:	41 5d                	pop    %r13
    1573:	41 5e                	pop    %r14
    1575:	41 5f                	pop    %r15
    1577:	c3                   	ret    
    1578:	e8 03 fc ff ff       	call   1180 <__stack_chk_fail@plt>
    157d:	0f 1f 00             	nopl   (%rax)

0000000000001580 <kex_ake_sharedA>:
    1580:	f3 0f 1e fa          	endbr64 
    1584:	41 56                	push   %r14
    1586:	41 55                	push   %r13
    1588:	4d 89 c5             	mov    %r8,%r13
    158b:	41 54                	push   %r12
    158d:	49 89 fc             	mov    %rdi,%r12
    1590:	55                   	push   %rbp
    1591:	48 89 d5             	mov    %rdx,%rbp
    1594:	48 89 ca             	mov    %rcx,%rdx
    1597:	53                   	push   %rbx
    1598:	48 89 f3             	mov    %rsi,%rbx
    159b:	48 83 ec 70          	sub    $0x70,%rsp
    159f:	64 48 8b 04 25 28 00 	mov    %fs:0x28,%rax
    15a6:	00 00 
    15a8:	48 89 44 24 68       	mov    %rax,0x68(%rsp)
    15ad:	31 c0                	xor    %eax,%eax
    15af:	49 89 e6             	mov    %rsp,%r14
    15b2:	4c 89 f7             	mov    %r14,%rdi
    15b5:	e8 e6 01 00 00       	call   17a0 <pqcrystals_kyber1024_ref_dec>
    15ba:	48 8d b3 20 06 00 00 	lea    0x620(%rbx),%rsi
    15c1:	48 8d 7c 24 20       	lea    0x20(%rsp),%rdi
    15c6:	4c 89 ea             	mov    %r13,%rdx
    15c9:	e8 d2 01 00 00       	call   17a0 <pqcrystals_kyber1024_ref_dec>
    15ce:	f3 0f 6f 45 00       	movdqu 0x0(%rbp),%xmm0
    15d3:	4c 89 f2             	mov    %r14,%rdx
    15d6:	4c 89 e7             	mov    %r12,%rdi
    15d9:	f3 0f 6f 4d 10       	movdqu 0x10(%rbp),%xmm1
    15de:	b9 60 00 00 00       	mov    $0x60,%ecx
    15e3:	be 20 00 00 00       	mov    $0x20,%esi
    15e8:	0f 29 44 24 40       	movaps %xmm0,0x40(%rsp)
    15ed:	0f 29 4c 24 50       	movaps %xmm1,0x50(%rsp)
    15f2:	e8 c9 7d 00 00       	call   93c0 <pqcrystals_kyber_fips202_ref_shake256>
    15f7:	48 8b 44 24 68       	mov    0x68(%rsp),%rax
    15fc:	64 48 2b 04 25 28 00 	sub    %fs:0x28,%rax
    1603:	00 00 
    1605:	75 0d                	jne    1614 <kex_ake_sharedA+0x94>
    1607:	48 83 c4 70          	add    $0x70,%rsp
    160b:	5b                   	pop    %rbx
    160c:	5d                   	pop    %rbp
    160d:	41 5c                	pop    %r12
    160f:	41 5d                	pop    %r13
    1611:	41 5e                	pop    %r14
    1613:	c3                   	ret    
    1614:	e8 67 fb ff ff       	call   1180 <__stack_chk_fail@plt>
    1619:	0f 1f 80 00 00 00 00 	nopl   0x0(%rax)

0000000000001620 <pqcrystals_kyber1024_ref_keypair>:
    1620:	f3 0f 1e fa          	endbr64 
    1624:	55                   	push   %rbp
    1625:	48 89 fd             	mov    %rdi,%rbp
    1628:	53                   	push   %rbx
    1629:	48 89 f3             	mov    %rsi,%rbx
    162c:	48 83 ec 08          	sub    $0x8,%rsp
    1630:	e8 db 04 00 00       	call   1b10 <pqcrystals_kyber1024_ref_indcpa_keypair>
    1635:	48 89 d8             	mov    %rbx,%rax
    1638:	48 29 e8             	sub    %rbp,%rax
    163b:	48 05 ff 05 00 00    	add    $0x5ff,%rax
    1641:	48 83 f8 0e          	cmp    $0xe,%rax
    1645:	b8 00 00 00 00       	mov    $0x0,%eax
    164a:	76 54                	jbe    16a0 <pqcrystals_kyber1024_ref_keypair+0x80>
    164c:	0f 1f 40 00          	nopl   0x0(%rax)
    1650:	f3 0f 6f 44 05 00    	movdqu 0x0(%rbp,%rax,1),%xmm0
    1656:	0f 11 84 03 00 06 00 	movups %xmm0,0x600(%rbx,%rax,1)
    165d:	00 
    165e:	48 83 c0 10          	add    $0x10,%rax
    1662:	48 3d 20 06 00 00    	cmp    $0x620,%rax
    1668:	75 e6                	jne    1650 <pqcrystals_kyber1024_ref_keypair+0x30>
    166a:	48 8d bb 20 0c 00 00 	lea    0xc20(%rbx),%rdi
    1671:	48 89 ee             	mov    %rbp,%rsi
    1674:	ba 20 06 00 00       	mov    $0x620,%edx
    1679:	e8 12 84 00 00       	call   9a90 <pqcrystals_kyber_fips202_ref_sha3_256>
    167e:	48 8d bb 40 0c 00 00 	lea    0xc40(%rbx),%rdi
    1685:	be 20 00 00 00       	mov    $0x20,%esi
    168a:	e8 41 8d 00 00       	call   a3d0 <randombytes>
    168f:	48 83 c4 08          	add    $0x8,%rsp
    1693:	31 c0                	xor    %eax,%eax
    1695:	5b                   	pop    %rbx
    1696:	5d                   	pop    %rbp
    1697:	c3                   	ret    
    1698:	0f 1f 84 00 00 00 00 	nopl   0x0(%rax,%rax,1)
    169f:	00 
    16a0:	0f b6 54 05 00       	movzbl 0x0(%rbp,%rax,1),%edx
    16a5:	88 94 03 00 06 00 00 	mov    %dl,0x600(%rbx,%rax,1)
    16ac:	48 83 c0 01          	add    $0x1,%rax
    16b0:	48 3d 20 06 00 00    	cmp    $0x620,%rax
    16b6:	75 e8                	jne    16a0 <pqcrystals_kyber1024_ref_keypair+0x80>
    16b8:	eb b0                	jmp    166a <pqcrystals_kyber1024_ref_keypair+0x4a>
    16ba:	66 0f 1f 44 00 00    	nopw   0x0(%rax,%rax,1)

00000000000016c0 <pqcrystals_kyber1024_ref_enc>:
    16c0:	f3 0f 1e fa          	endbr64 
    16c4:	41 57                	push   %r15
    16c6:	41 56                	push   %r14
    16c8:	49 89 f6             	mov    %rsi,%r14
    16cb:	be 20 00 00 00       	mov    $0x20,%esi
    16d0:	41 55                	push   %r13
    16d2:	49 89 d5             	mov    %rdx,%r13
    16d5:	41 54                	push   %r12
    16d7:	49 89 fc             	mov    %rdi,%r12
    16da:	55                   	push   %rbp
    16db:	53                   	push   %rbx
    16dc:	48 81 ec 98 00 00 00 	sub    $0x98,%rsp
    16e3:	64 48 8b 04 25 28 00 	mov    %fs:0x28,%rax
    16ea:	00 00 
    16ec:	48 89 84 24 88 00 00 	mov    %rax,0x88(%rsp)
    16f3:	00 
    16f4:	31 c0                	xor    %eax,%eax
    16f6:	48 89 e5             	mov    %rsp,%rbp
    16f9:	4c 8d 7c 24 40       	lea    0x40(%rsp),%r15
    16fe:	48 8d 5c 24 60       	lea    0x60(%rsp),%rbx
    1703:	48 89 ef             	mov    %rbp,%rdi
    1706:	e8 c5 8c 00 00       	call   a3d0 <randombytes>
    170b:	ba 20 00 00 00       	mov    $0x20,%edx
    1710:	48 89 ee             	mov    %rbp,%rsi
    1713:	48 89 ef             	mov    %rbp,%rdi
    1716:	e8 75 83 00 00       	call   9a90 <pqcrystals_kyber_fips202_ref_sha3_256>
    171b:	48 8d 7c 24 20       	lea    0x20(%rsp),%rdi
    1720:	ba 20 06 00 00       	mov    $0x620,%edx
    1725:	4c 89 ee             	mov    %r13,%rsi
    1728:	e8 63 83 00 00       	call   9a90 <pqcrystals_kyber_fips202_ref_sha3_256>
    172d:	ba 40 00 00 00       	mov    $0x40,%edx
    1732:	48 89 ee             	mov    %rbp,%rsi
    1735:	4c 89 ff             	mov    %r15,%rdi
    1738:	e8 e3 85 00 00       	call   9d20 <pqcrystals_kyber_fips202_ref_sha3_512>
    173d:	48 89 d9             	mov    %rbx,%rcx
    1740:	4c 89 ea             	mov    %r13,%rdx
    1743:	48 89 ee             	mov    %rbp,%rsi
    1746:	4c 89 e7             	mov    %r12,%rdi
    1749:	e8 72 07 00 00       	call   1ec0 <pqcrystals_kyber1024_ref_indcpa_enc>
    174e:	ba 20 06 00 00       	mov    $0x620,%edx
    1753:	4c 89 e6             	mov    %r12,%rsi
    1756:	48 89 df             	mov    %rbx,%rdi
    1759:	e8 32 83 00 00       	call   9a90 <pqcrystals_kyber_fips202_ref_sha3_256>
    175e:	b9 40 00 00 00       	mov    $0x40,%ecx
    1763:	4c 89 fa             	mov    %r15,%rdx
    1766:	4c 89 f7             	mov    %r14,%rdi
    1769:	be 20 00 00 00       	mov    $0x20,%esi
    176e:	e8 4d 7c 00 00       	call   93c0 <pqcrystals_kyber_fips202_ref_shake256>
    1773:	48 8b 84 24 88 00 00 	mov    0x88(%rsp),%rax
    177a:	00 
    177b:	64 48 2b 04 25 28 00 	sub    %fs:0x28,%rax
    1782:	00 00 
    1784:	75 14                	jne    179a <pqcrystals_kyber1024_ref_enc+0xda>
    1786:	48 81 c4 98 00 00 00 	add    $0x98,%rsp
    178d:	31 c0                	xor    %eax,%eax
    178f:	5b                   	pop    %rbx
    1790:	5d                   	pop    %rbp
    1791:	41 5c                	pop    %r12
    1793:	41 5d                	pop    %r13
    1795:	41 5e                	pop    %r14
    1797:	41 5f                	pop    %r15
    1799:	c3                   	ret    
    179a:	e8 e1 f9 ff ff       	call   1180 <__stack_chk_fail@plt>
    179f:	90                   	nop

00000000000017a0 <pqcrystals_kyber1024_ref_dec>:
    17a0:	f3 0f 1e fa          	endbr64 
    17a4:	41 57                	push   %r15
    17a6:	41 56                	push   %r14
    17a8:	41 55                	push   %r13
    17aa:	49 89 fd             	mov    %rdi,%r13
    17ad:	41 54                	push   %r12
    17af:	49 89 f4             	mov    %rsi,%r12
    17b2:	55                   	push   %rbp
    17b3:	53                   	push   %rbx
    17b4:	48 89 d3             	mov    %rdx,%rbx
    17b7:	48 81 ec c8 06 00 00 	sub    $0x6c8,%rsp
    17be:	64 48 8b 04 25 28 00 	mov    %fs:0x28,%rax
    17c5:	00 00 
    17c7:	48 89 84 24 b8 06 00 	mov    %rax,0x6b8(%rsp)
    17ce:	00 
    17cf:	31 c0                	xor    %eax,%eax
    17d1:	48 8d 6c 24 10       	lea    0x10(%rsp),%rbp
    17d6:	4c 8d 74 24 50       	lea    0x50(%rsp),%r14
    17db:	48 89 ef             	mov    %rbp,%rdi
    17de:	4c 8d 7c 24 70       	lea    0x70(%rsp),%r15
    17e3:	e8 b8 0a 00 00       	call   22a0 <pqcrystals_kyber1024_ref_indcpa_dec>
    17e8:	48 89 ee             	mov    %rbp,%rsi
    17eb:	ba 40 00 00 00       	mov    $0x40,%edx
    17f0:	4c 89 f7             	mov    %r14,%rdi
    17f3:	f3 0f 6f 83 20 0c 00 	movdqu 0xc20(%rbx),%xmm0
    17fa:	00 
    17fb:	f3 0f 6f 8b 30 0c 00 	movdqu 0xc30(%rbx),%xmm1
    1802:	00 
    1803:	0f 29 44 24 30       	movaps %xmm0,0x30(%rsp)
    1808:	0f 29 4c 24 40       	movaps %xmm1,0x40(%rsp)
    180d:	e8 0e 85 00 00       	call   9d20 <pqcrystals_kyber_fips202_ref_sha3_512>
    1812:	4c 8d 84 24 90 00 00 	lea    0x90(%rsp),%r8
    1819:	00 
    181a:	4c 89 f9             	mov    %r15,%rcx
    181d:	48 89 ee             	mov    %rbp,%rsi
    1820:	4c 89 c7             	mov    %r8,%rdi
    1823:	48 8d 93 00 06 00 00 	lea    0x600(%rbx),%rdx
    182a:	4c 89 44 24 08       	mov    %r8,0x8(%rsp)
    182f:	e8 8c 06 00 00       	call   1ec0 <pqcrystals_kyber1024_ref_indcpa_enc>
    1834:	48 8b 74 24 08       	mov    0x8(%rsp),%rsi
    1839:	ba 20 06 00 00       	mov    $0x620,%edx
    183e:	4c 89 e7             	mov    %r12,%rdi
    1841:	e8 3a 3f 00 00       	call   5780 <pqcrystals_kyber1024_ref_verify>
    1846:	ba 20 06 00 00       	mov    $0x620,%edx
    184b:	4c 89 e6             	mov    %r12,%rsi
    184e:	4c 89 ff             	mov    %r15,%rdi
    1851:	89 c5                	mov    %eax,%ebp
    1853:	e8 38 82 00 00       	call   9a90 <pqcrystals_kyber_fips202_ref_sha3_256>
    1858:	40 0f b6 cd          	movzbl %bpl,%ecx
    185c:	ba 20 00 00 00       	mov    $0x20,%edx
    1861:	4c 89 f7             	mov    %r14,%rdi
    1864:	48 8d b3 40 0c 00 00 	lea    0xc40(%rbx),%rsi
    186b:	e8 10 41 00 00       	call   5980 <pqcrystals_kyber1024_ref_cmov>
    1870:	b9 40 00 00 00       	mov    $0x40,%ecx
    1875:	4c 89 f2             	mov    %r14,%rdx
    1878:	4c 89 ef             	mov    %r13,%rdi
    187b:	be 20 00 00 00       	mov    $0x20,%esi
    1880:	e8 3b 7b 00 00       	call   93c0 <pqcrystals_kyber_fips202_ref_shake256>
    1885:	48 8b 84 24 b8 06 00 	mov    0x6b8(%rsp),%rax
    188c:	00 
    188d:	64 48 2b 04 25 28 00 	sub    %fs:0x28,%rax
    1894:	00 00 
    1896:	75 14                	jne    18ac <pqcrystals_kyber1024_ref_dec+0x10c>
    1898:	48 81 c4 c8 06 00 00 	add    $0x6c8,%rsp
    189f:	31 c0                	xor    %eax,%eax
    18a1:	5b                   	pop    %rbx
    18a2:	5d                   	pop    %rbp
    18a3:	41 5c                	pop    %r12
    18a5:	41 5d                	pop    %r13
    18a7:	41 5e                	pop    %r14
    18a9:	41 5f                	pop    %r15
    18ab:	c3                   	ret    
    18ac:	e8 cf f8 ff ff       	call   1180 <__stack_chk_fail@plt>
    18b1:	66 2e 0f 1f 84 00 00 	cs nopw 0x0(%rax,%rax,1)
    18b8:	00 00 00 
    18bb:	0f 1f 44 00 00       	nopl   0x0(%rax,%rax,1)

00000000000018c0 <pqcrystals_kyber1024_ref_gen_matrix>:
    18c0:	f3 0f 1e fa          	endbr64 
    18c4:	41 57                	push   %r15
    18c6:	41 56                	push   %r14
    18c8:	41 55                	push   %r13
    18ca:	41 54                	push   %r12
    18cc:	55                   	push   %rbp
    18cd:	53                   	push   %rbx
    18ce:	48 81 ec 18 03 00 00 	sub    $0x318,%rsp
    18d5:	48 89 74 24 18       	mov    %rsi,0x18(%rsp)
    18da:	4c 8d ac 24 00 01 00 	lea    0x100(%rsp),%r13
    18e1:	00 
    18e2:	48 8d 6c 24 30       	lea    0x30(%rsp),%rbp
    18e7:	89 54 24 28          	mov    %edx,0x28(%rsp)
    18eb:	4d 89 ef             	mov    %r13,%r15
    18ee:	64 48 8b 04 25 28 00 	mov    %fs:0x28,%rax
    18f5:	00 00 
    18f7:	48 89 84 24 08 03 00 	mov    %rax,0x308(%rsp)
    18fe:	00 
    18ff:	31 c0                	xor    %eax,%eax
    1901:	48 8d 84 24 f8 02 00 	lea    0x2f8(%rsp),%rax
    1908:	00 
    1909:	48 89 7c 24 20       	mov    %rdi,0x20(%rsp)
    190e:	c7 44 24 2c 04 00 00 	movl   $0x4,0x2c(%rsp)
    1915:	00 
    1916:	48 89 44 24 10       	mov    %rax,0x10(%rsp)
    191b:	b8 04 00 00 00       	mov    $0x4,%eax
    1920:	2b 44 24 2c          	sub    0x2c(%rsp),%eax
    1924:	48 8b 5c 24 20       	mov    0x20(%rsp),%rbx
    1929:	4d 89 fe             	mov    %r15,%r14
    192c:	c7 44 24 08 00 00 00 	movl   $0x0,0x8(%rsp)
    1933:	00 
    1934:	89 44 24 0c          	mov    %eax,0xc(%rsp)
    1938:	8b 44 24 28          	mov    0x28(%rsp),%eax
    193c:	85 c0                	test   %eax,%eax
    193e:	0f 84 f9 00 00 00    	je     1a3d <pqcrystals_kyber1024_ref_gen_matrix+0x17d>
    1944:	8b 4c 24 08          	mov    0x8(%rsp),%ecx
    1948:	8b 54 24 0c          	mov    0xc(%rsp),%edx
    194c:	48 89 ef             	mov    %rbp,%rdi
    194f:	48 8b 74 24 18       	mov    0x18(%rsp),%rsi
    1954:	e8 b7 89 00 00       	call   a310 <pqcrystals_kyber1024_ref_kyber_shake128_absorb>
    1959:	4c 89 f7             	mov    %r14,%rdi
    195c:	48 89 ea             	mov    %rbp,%rdx
    195f:	be 03 00 00 00       	mov    $0x3,%esi
    1964:	45 31 ff             	xor    %r15d,%r15d
    1967:	e8 c4 61 00 00       	call   7b30 <pqcrystals_kyber_fips202_ref_shake128_squeezeblocks>
    196c:	48 8b 7c 24 10       	mov    0x10(%rsp),%rdi
    1971:	4c 89 f1             	mov    %r14,%rcx
    1974:	eb 17                	jmp    198d <pqcrystals_kyber1024_ref_gen_matrix+0xcd>
    1976:	66 2e 0f 1f 84 00 00 	cs nopw 0x0(%rax,%rax,1)
    197d:	00 00 00 
    1980:	48 83 c1 03          	add    $0x3,%rcx
    1984:	48 39 cf             	cmp    %rcx,%rdi
    1987:	0f 84 ca 00 00 00    	je     1a57 <pqcrystals_kyber1024_ref_gen_matrix+0x197>
    198d:	0f b6 41 01          	movzbl 0x1(%rcx),%eax
    1991:	0f b6 31             	movzbl (%rcx),%esi
    1994:	89 c2                	mov    %eax,%edx
    1996:	c0 e8 04             	shr    $0x4,%al
    1999:	c1 e2 08             	shl    $0x8,%edx
    199c:	0f b6 c0             	movzbl %al,%eax
    199f:	09 f2                	or     %esi,%edx
    19a1:	0f b6 71 02          	movzbl 0x2(%rcx),%esi
    19a5:	66 81 e2 ff 0f       	and    $0xfff,%dx
    19aa:	c1 e6 04             	shl    $0x4,%esi
    19ad:	09 f0                	or     %esi,%eax
    19af:	66 81 fa 00 0d       	cmp    $0xd00,%dx
    19b4:	77 0b                	ja     19c1 <pqcrystals_kyber1024_ref_gen_matrix+0x101>
    19b6:	44 89 fe             	mov    %r15d,%esi
    19b9:	41 83 c7 01          	add    $0x1,%r15d
    19bd:	66 89 14 73          	mov    %dx,(%rbx,%rsi,2)
    19c1:	41 81 ff ff 00 00 00 	cmp    $0xff,%r15d
    19c8:	77 11                	ja     19db <pqcrystals_kyber1024_ref_gen_matrix+0x11b>
    19ca:	66 3d 00 0d          	cmp    $0xd00,%ax
    19ce:	77 0b                	ja     19db <pqcrystals_kyber1024_ref_gen_matrix+0x11b>
    19d0:	44 89 fa             	mov    %r15d,%edx
    19d3:	41 83 c7 01          	add    $0x1,%r15d
    19d7:	66 89 04 53          	mov    %ax,(%rbx,%rdx,2)
    19db:	41 81 ff 00 01 00 00 	cmp    $0x100,%r15d
    19e2:	75 9c                	jne    1980 <pqcrystals_kyber1024_ref_gen_matrix+0xc0>
    19e4:	83 44 24 08 01       	addl   $0x1,0x8(%rsp)
    19e9:	8b 44 24 08          	mov    0x8(%rsp),%eax
    19ed:	48 81 c3 00 02 00 00 	add    $0x200,%rbx
    19f4:	83 f8 04             	cmp    $0x4,%eax
    19f7:	0f 85 3b ff ff ff    	jne    1938 <pqcrystals_kyber1024_ref_gen_matrix+0x78>
    19fd:	48 81 44 24 20 00 08 	addq   $0x800,0x20(%rsp)
    1a04:	00 00 
    1a06:	4d 89 f7             	mov    %r14,%r15
    1a09:	83 6c 24 2c 01       	subl   $0x1,0x2c(%rsp)
    1a0e:	0f 85 07 ff ff ff    	jne    191b <pqcrystals_kyber1024_ref_gen_matrix+0x5b>
    1a14:	48 8b 84 24 08 03 00 	mov    0x308(%rsp),%rax
    1a1b:	00 
    1a1c:	64 48 2b 04 25 28 00 	sub    %fs:0x28,%rax
    1a23:	00 00 
    1a25:	0f 85 d4 00 00 00    	jne    1aff <pqcrystals_kyber1024_ref_gen_matrix+0x23f>
    1a2b:	48 81 c4 18 03 00 00 	add    $0x318,%rsp
    1a32:	5b                   	pop    %rbx
    1a33:	5d                   	pop    %rbp
    1a34:	41 5c                	pop    %r12
    1a36:	41 5d                	pop    %r13
    1a38:	41 5e                	pop    %r14
    1a3a:	41 5f                	pop    %r15
    1a3c:	c3                   	ret    
    1a3d:	8b 4c 24 0c          	mov    0xc(%rsp),%ecx
    1a41:	8b 54 24 08          	mov    0x8(%rsp),%edx
    1a45:	48 89 ef             	mov    %rbp,%rdi
    1a48:	48 8b 74 24 18       	mov    0x18(%rsp),%rsi
    1a4d:	e8 be 88 00 00       	call   a310 <pqcrystals_kyber1024_ref_kyber_shake128_absorb>
    1a52:	e9 02 ff ff ff       	jmp    1959 <pqcrystals_kyber1024_ref_gen_matrix+0x99>
    1a57:	4d 8d ae a8 00 00 00 	lea    0xa8(%r14),%r13
    1a5e:	41 bc 00 01 00 00    	mov    $0x100,%r12d
    1a64:	0f 1f 40 00          	nopl   0x0(%rax)
    1a68:	be 01 00 00 00       	mov    $0x1,%esi
    1a6d:	4c 89 f7             	mov    %r14,%rdi
    1a70:	48 89 ea             	mov    %rbp,%rdx
    1a73:	e8 b8 60 00 00       	call   7b30 <pqcrystals_kyber_fips202_ref_shake128_squeezeblocks>
    1a78:	44 89 e7             	mov    %r12d,%edi
    1a7b:	44 89 f8             	mov    %r15d,%eax
    1a7e:	4c 89 f1             	mov    %r14,%rcx
    1a81:	44 29 ff             	sub    %r15d,%edi
    1a84:	4c 8d 04 43          	lea    (%rbx,%rax,2),%r8
    1a88:	31 f6                	xor    %esi,%esi
    1a8a:	eb 21                	jmp    1aad <pqcrystals_kyber1024_ref_gen_matrix+0x1ed>
    1a8c:	0f 1f 40 00          	nopl   0x0(%rax)
    1a90:	66 3d 00 0d          	cmp    $0xd00,%ax
    1a94:	77 0a                	ja     1aa0 <pqcrystals_kyber1024_ref_gen_matrix+0x1e0>
    1a96:	89 f2                	mov    %esi,%edx
    1a98:	83 c6 01             	add    $0x1,%esi
    1a9b:	66 41 89 04 50       	mov    %ax,(%r8,%rdx,2)
    1aa0:	39 f7                	cmp    %esi,%edi
    1aa2:	76 46                	jbe    1aea <pqcrystals_kyber1024_ref_gen_matrix+0x22a>
    1aa4:	48 83 c1 03          	add    $0x3,%rcx
    1aa8:	49 39 cd             	cmp    %rcx,%r13
    1aab:	74 3d                	je     1aea <pqcrystals_kyber1024_ref_gen_matrix+0x22a>
    1aad:	0f b6 41 01          	movzbl 0x1(%rcx),%eax
    1ab1:	44 0f b6 09          	movzbl (%rcx),%r9d
    1ab5:	89 c2                	mov    %eax,%edx
    1ab7:	c0 e8 04             	shr    $0x4,%al
    1aba:	c1 e2 08             	shl    $0x8,%edx
    1abd:	0f b6 c0             	movzbl %al,%eax
    1ac0:	44 09 ca             	or     %r9d,%edx
    1ac3:	44 0f b6 49 02       	movzbl 0x2(%rcx),%r9d
    1ac8:	66 81 e2 ff 0f       	and    $0xfff,%dx
    1acd:	41 c1 e1 04          	shl    $0x4,%r9d
    1ad1:	44 09 c8             	or     %r9d,%eax
    1ad4:	66 81 fa 00 0d       	cmp    $0xd00,%dx
    1ad9:	77 0b                	ja     1ae6 <pqcrystals_kyber1024_ref_gen_matrix+0x226>
    1adb:	41 89 f1             	mov    %esi,%r9d
    1ade:	83 c6 01             	add    $0x1,%esi
    1ae1:	66 43 89 14 48       	mov    %dx,(%r8,%r9,2)
    1ae6:	39 f7                	cmp    %esi,%edi
    1ae8:	77 a6                	ja     1a90 <pqcrystals_kyber1024_ref_gen_matrix+0x1d0>
    1aea:	41 01 f7             	add    %esi,%r15d
    1aed:	41 81 ff ff 00 00 00 	cmp    $0xff,%r15d
    1af4:	0f 86 6e ff ff ff    	jbe    1a68 <pqcrystals_kyber1024_ref_gen_matrix+0x1a8>
    1afa:	e9 e5 fe ff ff       	jmp    19e4 <pqcrystals_kyber1024_ref_gen_matrix+0x124>
    1aff:	e8 7c f6 ff ff       	call   1180 <__stack_chk_fail@plt>
    1b04:	66 66 2e 0f 1f 84 00 	data16 cs nopw 0x0(%rax,%rax,1)
    1b0b:	00 00 00 00 
    1b0f:	90                   	nop

0000000000001b10 <pqcrystals_kyber1024_ref_indcpa_keypair>:
    1b10:	f3 0f 1e fa          	endbr64 
    1b14:	41 57                	push   %r15
    1b16:	41 56                	push   %r14
    1b18:	41 55                	push   %r13
    1b1a:	41 54                	push   %r12
    1b1c:	55                   	push   %rbp
    1b1d:	53                   	push   %rbx
    1b1e:	48 81 ec 00 10 00 00 	sub    $0x1000,%rsp
    1b25:	48 83 0c 24 00       	orq    $0x0,(%rsp)
    1b2a:	48 81 ec 00 10 00 00 	sub    $0x1000,%rsp
    1b31:	48 83 0c 24 00       	orq    $0x0,(%rsp)
    1b36:	48 81 ec 00 10 00 00 	sub    $0x1000,%rsp
    1b3d:	48 83 0c 24 00       	orq    $0x0,(%rsp)
    1b42:	48 81 ec a8 0a 00 00 	sub    $0xaa8,%rsp
    1b49:	48 89 7c 24 40       	mov    %rdi,0x40(%rsp)
    1b4e:	4c 8d ac 24 90 38 00 	lea    0x3890(%rsp),%r13
    1b55:	00 
    1b56:	48 8d ac 24 50 10 00 	lea    0x1050(%rsp),%rbp
    1b5d:	00 
    1b5e:	48 89 74 24 48       	mov    %rsi,0x48(%rsp)
    1b63:	be 20 00 00 00       	mov    $0x20,%esi
    1b68:	4c 8d b4 24 38 39 00 	lea    0x3938(%rsp),%r14
    1b6f:	00 
    1b70:	4d 89 ef             	mov    %r13,%r15
    1b73:	64 48 8b 04 25 28 00 	mov    %fs:0x28,%rax
    1b7a:	00 00 
    1b7c:	48 89 84 24 98 3a 00 	mov    %rax,0x3a98(%rsp)
    1b83:	00 
    1b84:	31 c0                	xor    %eax,%eax
    1b86:	48 8d 44 24 50       	lea    0x50(%rsp),%rax
    1b8b:	48 89 44 24 28       	mov    %rax,0x28(%rsp)
    1b90:	48 89 44 24 38       	mov    %rax,0x38(%rsp)
    1b95:	48 89 05 a4 c4 00 00 	mov    %rax,0xc4a4(%rip)        # e040 <e_phys>
    1b9c:	48 8d 84 24 50 38 00 	lea    0x3850(%rsp),%rax
    1ba3:	00 
    1ba4:	48 89 c3             	mov    %rax,%rbx
    1ba7:	48 89 c7             	mov    %rax,%rdi
    1baa:	48 89 44 24 10       	mov    %rax,0x10(%rsp)
    1baf:	e8 1c 88 00 00       	call   a3d0 <randombytes>
    1bb4:	ba 20 00 00 00       	mov    $0x20,%edx
    1bb9:	48 89 de             	mov    %rbx,%rsi
    1bbc:	48 89 df             	mov    %rbx,%rdi
    1bbf:	e8 5c 81 00 00       	call   9d20 <pqcrystals_kyber_fips202_ref_sha3_512>
    1bc4:	48 8d 84 24 50 18 00 	lea    0x1850(%rsp),%rax
    1bcb:	00 
    1bcc:	c7 44 24 0c 00 00 00 	movl   $0x0,0xc(%rsp)
    1bd3:	00 
    1bd4:	48 89 44 24 30       	mov    %rax,0x30(%rsp)
    1bd9:	48 89 44 24 20       	mov    %rax,0x20(%rsp)
    1bde:	48 8d 84 24 88 3a 00 	lea    0x3a88(%rsp),%rax
    1be5:	00 
    1be6:	48 89 44 24 18       	mov    %rax,0x18(%rsp)
    1beb:	4c 8b 6c 24 20       	mov    0x20(%rsp),%r13
    1bf0:	c7 44 24 08 00 00 00 	movl   $0x0,0x8(%rsp)
    1bf7:	00 
    1bf8:	4c 89 f8             	mov    %r15,%rax
    1bfb:	4d 89 ef             	mov    %r13,%r15
    1bfe:	49 89 c5             	mov    %rax,%r13
    1c01:	8b 4c 24 0c          	mov    0xc(%rsp),%ecx
    1c05:	8b 54 24 08          	mov    0x8(%rsp),%edx
    1c09:	48 89 ef             	mov    %rbp,%rdi
    1c0c:	45 31 e4             	xor    %r12d,%r12d
    1c0f:	48 8b 74 24 10       	mov    0x10(%rsp),%rsi
    1c14:	e8 f7 86 00 00       	call   a310 <pqcrystals_kyber1024_ref_kyber_shake128_absorb>
    1c19:	4c 89 ef             	mov    %r13,%rdi
    1c1c:	48 89 ea             	mov    %rbp,%rdx
    1c1f:	be 03 00 00 00       	mov    $0x3,%esi
    1c24:	e8 07 5f 00 00       	call   7b30 <pqcrystals_kyber_fips202_ref_shake128_squeezeblocks>
    1c29:	48 8b 7c 24 18       	mov    0x18(%rsp),%rdi
    1c2e:	4c 89 e9             	mov    %r13,%rcx
    1c31:	eb 12                	jmp    1c45 <pqcrystals_kyber1024_ref_indcpa_keypair+0x135>
    1c33:	0f 1f 44 00 00       	nopl   0x0(%rax,%rax,1)
    1c38:	48 83 c1 03          	add    $0x3,%rcx
    1c3c:	48 39 cf             	cmp    %rcx,%rdi
    1c3f:	0f 84 cb 01 00 00    	je     1e10 <pqcrystals_kyber1024_ref_indcpa_keypair+0x300>
    1c45:	0f b6 41 01          	movzbl 0x1(%rcx),%eax
    1c49:	0f b6 31             	movzbl (%rcx),%esi
    1c4c:	89 c2                	mov    %eax,%edx
    1c4e:	c0 e8 04             	shr    $0x4,%al
    1c51:	c1 e2 08             	shl    $0x8,%edx
    1c54:	0f b6 c0             	movzbl %al,%eax
    1c57:	09 f2                	or     %esi,%edx
    1c59:	0f b6 71 02          	movzbl 0x2(%rcx),%esi
    1c5d:	66 81 e2 ff 0f       	and    $0xfff,%dx
    1c62:	c1 e6 04             	shl    $0x4,%esi
    1c65:	09 f0                	or     %esi,%eax
    1c67:	66 81 fa 00 0d       	cmp    $0xd00,%dx
    1c6c:	77 0c                	ja     1c7a <pqcrystals_kyber1024_ref_indcpa_keypair+0x16a>
    1c6e:	44 89 e6             	mov    %r12d,%esi
    1c71:	41 83 c4 01          	add    $0x1,%r12d
    1c75:	66 41 89 14 77       	mov    %dx,(%r15,%rsi,2)
    1c7a:	41 81 fc ff 00 00 00 	cmp    $0xff,%r12d
    1c81:	77 12                	ja     1c95 <pqcrystals_kyber1024_ref_indcpa_keypair+0x185>
    1c83:	66 3d 00 0d          	cmp    $0xd00,%ax
    1c87:	77 0c                	ja     1c95 <pqcrystals_kyber1024_ref_indcpa_keypair+0x185>
    1c89:	44 89 e2             	mov    %r12d,%edx
    1c8c:	41 83 c4 01          	add    $0x1,%r12d
    1c90:	66 41 89 04 57       	mov    %ax,(%r15,%rdx,2)
    1c95:	41 81 fc 00 01 00 00 	cmp    $0x100,%r12d
    1c9c:	75 9a                	jne    1c38 <pqcrystals_kyber1024_ref_indcpa_keypair+0x128>
    1c9e:	83 44 24 08 01       	addl   $0x1,0x8(%rsp)
    1ca3:	8b 44 24 08          	mov    0x8(%rsp),%eax
    1ca7:	49 81 c7 00 02 00 00 	add    $0x200,%r15
    1cae:	83 f8 04             	cmp    $0x4,%eax
    1cb1:	0f 85 4a ff ff ff    	jne    1c01 <pqcrystals_kyber1024_ref_indcpa_keypair+0xf1>
    1cb7:	83 44 24 0c 01       	addl   $0x1,0xc(%rsp)
    1cbc:	8b 44 24 0c          	mov    0xc(%rsp),%eax
    1cc0:	4d 89 ef             	mov    %r13,%r15
    1cc3:	48 81 44 24 20 00 08 	addq   $0x800,0x20(%rsp)
    1cca:	00 00 
    1ccc:	83 f8 04             	cmp    $0x4,%eax
    1ccf:	0f 85 16 ff ff ff    	jne    1beb <pqcrystals_kyber1024_ref_indcpa_keypair+0xdb>
    1cd5:	49 89 ed             	mov    %rbp,%r13
    1cd8:	45 31 e4             	xor    %r12d,%r12d
    1cdb:	48 8d 9c 24 70 38 00 	lea    0x3870(%rsp),%rbx
    1ce2:	00 
    1ce3:	44 89 e2             	mov    %r12d,%edx
    1ce6:	4c 89 ef             	mov    %r13,%rdi
    1ce9:	48 89 de             	mov    %rbx,%rsi
    1cec:	41 83 c4 01          	add    $0x1,%r12d
    1cf0:	e8 8b 2e 00 00       	call   4b80 <pqcrystals_kyber1024_ref_poly_getnoise_eta1>
    1cf5:	49 81 c5 00 02 00 00 	add    $0x200,%r13
    1cfc:	41 83 fc 04          	cmp    $0x4,%r12d
    1d00:	75 e1                	jne    1ce3 <pqcrystals_kyber1024_ref_indcpa_keypair+0x1d3>
    1d02:	4c 8b 6c 24 38       	mov    0x38(%rsp),%r13
    1d07:	44 89 e2             	mov    %r12d,%edx
    1d0a:	4c 89 ef             	mov    %r13,%rdi
    1d0d:	48 89 de             	mov    %rbx,%rsi
    1d10:	41 83 c4 01          	add    $0x1,%r12d
    1d14:	e8 67 2e 00 00       	call   4b80 <pqcrystals_kyber1024_ref_poly_getnoise_eta1>
    1d19:	49 81 c5 00 02 00 00 	add    $0x200,%r13
    1d20:	41 83 fc 08          	cmp    $0x8,%r12d
    1d24:	75 e1                	jne    1d07 <pqcrystals_kyber1024_ref_indcpa_keypair+0x1f7>
    1d26:	48 89 ef             	mov    %rbp,%rdi
    1d29:	4c 8d a4 24 50 08 00 	lea    0x850(%rsp),%r12
    1d30:	00 
    1d31:	48 8d ac 24 50 10 00 	lea    0x1050(%rsp),%rbp
    1d38:	00 
    1d39:	e8 12 0c 00 00       	call   2950 <pqcrystals_kyber1024_ref_polyvec_ntt>
    1d3e:	48 8b 74 24 28       	mov    0x28(%rsp),%rsi
    1d43:	b9 00 01 00 00       	mov    $0x100,%ecx
    1d48:	4c 89 e3             	mov    %r12,%rbx
    1d4b:	48 8d 3d 0e c3 00 00 	lea    0xc30e(%rip),%rdi        # e060 <e_copy>
    1d52:	f3 48 a5             	rep movsq %ds:(%rsi),%es:(%rdi)
    1d55:	48 8d 7c 24 50       	lea    0x50(%rsp),%rdi
    1d5a:	48 89 7c 24 28       	mov    %rdi,0x28(%rsp)
    1d5f:	e8 ec 0b 00 00       	call   2950 <pqcrystals_kyber1024_ref_polyvec_ntt>
    1d64:	4c 8b 6c 24 30       	mov    0x30(%rsp),%r13
    1d69:	4c 89 ee             	mov    %r13,%rsi
    1d6c:	48 89 df             	mov    %rbx,%rdi
    1d6f:	48 89 ea             	mov    %rbp,%rdx
    1d72:	49 81 c5 00 08 00 00 	add    $0x800,%r13
    1d79:	e8 52 0c 00 00       	call   29d0 <pqcrystals_kyber1024_ref_polyvec_basemul_acc_montgomery>
    1d7e:	48 89 df             	mov    %rbx,%rdi
    1d81:	48 81 c3 00 02 00 00 	add    $0x200,%rbx
    1d88:	e8 a3 2f 00 00       	call   4d30 <pqcrystals_kyber1024_ref_poly_tomont>
    1d8d:	48 39 dd             	cmp    %rbx,%rbp
    1d90:	75 d7                	jne    1d69 <pqcrystals_kyber1024_ref_indcpa_keypair+0x259>
    1d92:	48 8b 54 24 28       	mov    0x28(%rsp),%rdx
    1d97:	4c 89 e6             	mov    %r12,%rsi
    1d9a:	4c 89 e7             	mov    %r12,%rdi
    1d9d:	e8 0e 0d 00 00       	call   2ab0 <pqcrystals_kyber1024_ref_polyvec_add>
    1da2:	4c 89 e7             	mov    %r12,%rdi
    1da5:	e8 c6 0c 00 00       	call   2a70 <pqcrystals_kyber1024_ref_polyvec_reduce>
    1daa:	48 8b 7c 24 48       	mov    0x48(%rsp),%rdi
    1daf:	48 89 ee             	mov    %rbp,%rsi
    1db2:	e8 19 0b 00 00       	call   28d0 <pqcrystals_kyber1024_ref_polyvec_tobytes>
    1db7:	48 8b 5c 24 40       	mov    0x40(%rsp),%rbx
    1dbc:	4c 89 e6             	mov    %r12,%rsi
    1dbf:	48 89 df             	mov    %rbx,%rdi
    1dc2:	e8 09 0b 00 00       	call   28d0 <pqcrystals_kyber1024_ref_polyvec_tobytes>
    1dc7:	66 0f 6f 84 24 50 38 	movdqa 0x3850(%rsp),%xmm0
    1dce:	00 00 
    1dd0:	0f 11 83 00 06 00 00 	movups %xmm0,0x600(%rbx)
    1dd7:	66 0f 6f 8c 24 60 38 	movdqa 0x3860(%rsp),%xmm1
    1dde:	00 00 
    1de0:	0f 11 8b 10 06 00 00 	movups %xmm1,0x610(%rbx)
    1de7:	48 8b 84 24 98 3a 00 	mov    0x3a98(%rsp),%rax
    1dee:	00 
    1def:	64 48 2b 04 25 28 00 	sub    %fs:0x28,%rax
    1df6:	00 00 
    1df8:	0f 85 b1 00 00 00    	jne    1eaf <pqcrystals_kyber1024_ref_indcpa_keypair+0x39f>
    1dfe:	48 81 c4 a8 3a 00 00 	add    $0x3aa8,%rsp
    1e05:	5b                   	pop    %rbx
    1e06:	5d                   	pop    %rbp
    1e07:	41 5c                	pop    %r12
    1e09:	41 5d                	pop    %r13
    1e0b:	41 5e                	pop    %r14
    1e0d:	41 5f                	pop    %r15
    1e0f:	c3                   	ret    
    1e10:	bb 00 01 00 00       	mov    $0x100,%ebx
    1e15:	0f 1f 00             	nopl   (%rax)
    1e18:	be 01 00 00 00       	mov    $0x1,%esi
    1e1d:	4c 89 ef             	mov    %r13,%rdi
    1e20:	48 89 ea             	mov    %rbp,%rdx
    1e23:	e8 08 5d 00 00       	call   7b30 <pqcrystals_kyber_fips202_ref_shake128_squeezeblocks>
    1e28:	89 df                	mov    %ebx,%edi
    1e2a:	44 89 e0             	mov    %r12d,%eax
    1e2d:	4c 89 e9             	mov    %r13,%rcx
    1e30:	44 29 e7             	sub    %r12d,%edi
    1e33:	4d 8d 04 47          	lea    (%r15,%rax,2),%r8
    1e37:	31 f6                	xor    %esi,%esi
    1e39:	eb 22                	jmp    1e5d <pqcrystals_kyber1024_ref_indcpa_keypair+0x34d>
    1e3b:	0f 1f 44 00 00       	nopl   0x0(%rax,%rax,1)
    1e40:	66 3d 00 0d          	cmp    $0xd00,%ax
    1e44:	77 0a                	ja     1e50 <pqcrystals_kyber1024_ref_indcpa_keypair+0x340>
    1e46:	89 f2                	mov    %esi,%edx
    1e48:	83 c6 01             	add    $0x1,%esi
    1e4b:	66 41 89 04 50       	mov    %ax,(%r8,%rdx,2)
    1e50:	39 f7                	cmp    %esi,%edi
    1e52:	76 46                	jbe    1e9a <pqcrystals_kyber1024_ref_indcpa_keypair+0x38a>
    1e54:	48 83 c1 03          	add    $0x3,%rcx
    1e58:	49 39 ce             	cmp    %rcx,%r14
    1e5b:	74 3d                	je     1e9a <pqcrystals_kyber1024_ref_indcpa_keypair+0x38a>
    1e5d:	0f b6 41 01          	movzbl 0x1(%rcx),%eax
    1e61:	44 0f b6 09          	movzbl (%rcx),%r9d
    1e65:	89 c2                	mov    %eax,%edx
    1e67:	c0 e8 04             	shr    $0x4,%al
    1e6a:	c1 e2 08             	shl    $0x8,%edx
    1e6d:	0f b6 c0             	movzbl %al,%eax
    1e70:	44 09 ca             	or     %r9d,%edx
    1e73:	44 0f b6 49 02       	movzbl 0x2(%rcx),%r9d
    1e78:	66 81 e2 ff 0f       	and    $0xfff,%dx
    1e7d:	41 c1 e1 04          	shl    $0x4,%r9d
    1e81:	44 09 c8             	or     %r9d,%eax
    1e84:	66 81 fa 00 0d       	cmp    $0xd00,%dx
    1e89:	77 0b                	ja     1e96 <pqcrystals_kyber1024_ref_indcpa_keypair+0x386>
    1e8b:	41 89 f1             	mov    %esi,%r9d
    1e8e:	83 c6 01             	add    $0x1,%esi
    1e91:	66 43 89 14 48       	mov    %dx,(%r8,%r9,2)
    1e96:	39 f7                	cmp    %esi,%edi
    1e98:	77 a6                	ja     1e40 <pqcrystals_kyber1024_ref_indcpa_keypair+0x330>
    1e9a:	41 01 f4             	add    %esi,%r12d
    1e9d:	41 81 fc ff 00 00 00 	cmp    $0xff,%r12d
    1ea4:	0f 86 6e ff ff ff    	jbe    1e18 <pqcrystals_kyber1024_ref_indcpa_keypair+0x308>
    1eaa:	e9 ef fd ff ff       	jmp    1c9e <pqcrystals_kyber1024_ref_indcpa_keypair+0x18e>
    1eaf:	e8 cc f2 ff ff       	call   1180 <__stack_chk_fail@plt>
    1eb4:	66 66 2e 0f 1f 84 00 	data16 cs nopw 0x0(%rax,%rax,1)
    1ebb:	00 00 00 00 
    1ebf:	90                   	nop

0000000000001ec0 <pqcrystals_kyber1024_ref_indcpa_enc>:
    1ec0:	f3 0f 1e fa          	endbr64 
    1ec4:	41 57                	push   %r15
    1ec6:	41 56                	push   %r14
    1ec8:	41 55                	push   %r13
    1eca:	41 54                	push   %r12
    1ecc:	55                   	push   %rbp
    1ecd:	53                   	push   %rbx
    1ece:	4c 8d 9c 24 00 c0 ff 	lea    -0x4000(%rsp),%r11
    1ed5:	ff 
    1ed6:	48 81 ec 00 10 00 00 	sub    $0x1000,%rsp
    1edd:	48 83 0c 24 00       	orq    $0x0,(%rsp)
    1ee2:	4c 39 dc             	cmp    %r11,%rsp
    1ee5:	75 ef                	jne    1ed6 <pqcrystals_kyber1024_ref_indcpa_enc+0x16>
    1ee7:	48 81 ec 88 08 00 00 	sub    $0x888,%rsp
    1eee:	48 89 7c 24 38       	mov    %rdi,0x38(%rsp)
    1ef3:	48 89 d3             	mov    %rdx,%rbx
    1ef6:	48 89 f5             	mov    %rsi,%rbp
    1ef9:	48 89 d6             	mov    %rdx,%rsi
    1efc:	48 89 4c 24 20       	mov    %rcx,0x20(%rsp)
    1f01:	4c 8d ac 24 70 46 00 	lea    0x4670(%rsp),%r13
    1f08:	00 
    1f09:	4c 8d b4 24 18 47 00 	lea    0x4718(%rsp),%r14
    1f10:	00 
    1f11:	4d 89 ef             	mov    %r13,%r15
    1f14:	64 48 8b 04 25 28 00 	mov    %fs:0x28,%rax
    1f1b:	00 00 
    1f1d:	48 89 84 24 78 48 00 	mov    %rax,0x4878(%rsp)
    1f24:	00 
    1f25:	31 c0                	xor    %eax,%eax
    1f27:	48 8d 84 24 50 0e 00 	lea    0xe50(%rsp),%rax
    1f2e:	00 
    1f2f:	48 89 c7             	mov    %rax,%rdi
    1f32:	48 89 44 24 40       	mov    %rax,0x40(%rsp)
    1f37:	e8 d4 09 00 00       	call   2910 <pqcrystals_kyber1024_ref_polyvec_frombytes>
    1f3c:	48 8d 84 24 50 02 00 	lea    0x250(%rsp),%rax
    1f43:	00 
    1f44:	f3 0f 6f 83 00 06 00 	movdqu 0x600(%rbx),%xmm0
    1f4b:	00 
    1f4c:	48 89 ee             	mov    %rbp,%rsi
    1f4f:	f3 0f 6f 8b 10 06 00 	movdqu 0x610(%rbx),%xmm1
    1f56:	00 
    1f57:	48 89 c7             	mov    %rax,%rdi
    1f5a:	48 89 44 24 48       	mov    %rax,0x48(%rsp)
    1f5f:	48 8d ac 24 50 1e 00 	lea    0x1e50(%rsp),%rbp
    1f66:	00 
    1f67:	0f 29 84 24 50 46 00 	movaps %xmm0,0x4650(%rsp)
    1f6e:	00 
    1f6f:	0f 29 8c 24 60 46 00 	movaps %xmm1,0x4660(%rsp)
    1f76:	00 
    1f77:	e8 74 0f 00 00       	call   2ef0 <pqcrystals_kyber1024_ref_poly_frommsg>
    1f7c:	48 8d 84 24 50 26 00 	lea    0x2650(%rsp),%rax
    1f83:	00 
    1f84:	c7 44 24 04 00 00 00 	movl   $0x0,0x4(%rsp)
    1f8b:	00 
    1f8c:	48 89 44 24 28       	mov    %rax,0x28(%rsp)
    1f91:	48 89 44 24 30       	mov    %rax,0x30(%rsp)
    1f96:	48 89 44 24 18       	mov    %rax,0x18(%rsp)
    1f9b:	48 8d 84 24 50 46 00 	lea    0x4650(%rsp),%rax
    1fa2:	00 
    1fa3:	48 89 44 24 10       	mov    %rax,0x10(%rsp)
    1fa8:	48 8d 84 24 68 48 00 	lea    0x4868(%rsp),%rax
    1faf:	00 
    1fb0:	48 89 44 24 08       	mov    %rax,0x8(%rsp)
    1fb5:	4c 8b 6c 24 18       	mov    0x18(%rsp),%r13
    1fba:	c7 04 24 00 00 00 00 	movl   $0x0,(%rsp)
    1fc1:	4c 89 f8             	mov    %r15,%rax
    1fc4:	4d 89 ef             	mov    %r13,%r15
    1fc7:	49 89 c5             	mov    %rax,%r13
    1fca:	8b 0c 24             	mov    (%rsp),%ecx
    1fcd:	8b 54 24 04          	mov    0x4(%rsp),%edx
    1fd1:	48 89 ef             	mov    %rbp,%rdi
    1fd4:	45 31 e4             	xor    %r12d,%r12d
    1fd7:	48 8b 74 24 10       	mov    0x10(%rsp),%rsi
    1fdc:	e8 2f 83 00 00       	call   a310 <pqcrystals_kyber1024_ref_kyber_shake128_absorb>
    1fe1:	4c 89 ef             	mov    %r13,%rdi
    1fe4:	48 89 ea             	mov    %rbp,%rdx
    1fe7:	be 03 00 00 00       	mov    $0x3,%esi
    1fec:	e8 3f 5b 00 00       	call   7b30 <pqcrystals_kyber_fips202_ref_shake128_squeezeblocks>
    1ff1:	48 8b 7c 24 08       	mov    0x8(%rsp),%rdi
    1ff6:	4c 89 e9             	mov    %r13,%rcx
    1ff9:	eb 12                	jmp    200d <pqcrystals_kyber1024_ref_indcpa_enc+0x14d>
    1ffb:	0f 1f 44 00 00       	nopl   0x0(%rax,%rax,1)
    2000:	48 83 c1 03          	add    $0x3,%rcx
    2004:	48 39 cf             	cmp    %rcx,%rdi
    2007:	0f 84 e2 01 00 00    	je     21ef <pqcrystals_kyber1024_ref_indcpa_enc+0x32f>
    200d:	0f b6 41 01          	movzbl 0x1(%rcx),%eax
    2011:	0f b6 31             	movzbl (%rcx),%esi
    2014:	89 c2                	mov    %eax,%edx
    2016:	c0 e8 04             	shr    $0x4,%al
    2019:	c1 e2 08             	shl    $0x8,%edx
    201c:	0f b6 c0             	movzbl %al,%eax
    201f:	09 f2                	or     %esi,%edx
    2021:	0f b6 71 02          	movzbl 0x2(%rcx),%esi
    2025:	66 81 e2 ff 0f       	and    $0xfff,%dx
    202a:	c1 e6 04             	shl    $0x4,%esi
    202d:	09 f0                	or     %esi,%eax
    202f:	66 81 fa 00 0d       	cmp    $0xd00,%dx
    2034:	77 0c                	ja     2042 <pqcrystals_kyber1024_ref_indcpa_enc+0x182>
    2036:	44 89 e6             	mov    %r12d,%esi
    2039:	41 83 c4 01          	add    $0x1,%r12d
    203d:	66 41 89 14 77       	mov    %dx,(%r15,%rsi,2)
    2042:	41 81 fc ff 00 00 00 	cmp    $0xff,%r12d
    2049:	77 12                	ja     205d <pqcrystals_kyber1024_ref_indcpa_enc+0x19d>
    204b:	66 3d 00 0d          	cmp    $0xd00,%ax
    204f:	77 0c                	ja     205d <pqcrystals_kyber1024_ref_indcpa_enc+0x19d>
    2051:	44 89 e2             	mov    %r12d,%edx
    2054:	41 83 c4 01          	add    $0x1,%r12d
    2058:	66 41 89 04 57       	mov    %ax,(%r15,%rdx,2)
    205d:	41 81 fc 00 01 00 00 	cmp    $0x100,%r12d
    2064:	75 9a                	jne    2000 <pqcrystals_kyber1024_ref_indcpa_enc+0x140>
    2066:	83 04 24 01          	addl   $0x1,(%rsp)
    206a:	8b 04 24             	mov    (%rsp),%eax
    206d:	49 81 c7 00 02 00 00 	add    $0x200,%r15
    2074:	83 f8 04             	cmp    $0x4,%eax
    2077:	0f 85 4d ff ff ff    	jne    1fca <pqcrystals_kyber1024_ref_indcpa_enc+0x10a>
    207d:	83 44 24 04 01       	addl   $0x1,0x4(%rsp)
    2082:	8b 44 24 04          	mov    0x4(%rsp),%eax
    2086:	4d 89 ef             	mov    %r13,%r15
    2089:	48 81 44 24 18 00 08 	addq   $0x800,0x18(%rsp)
    2090:	00 00 
    2092:	83 f8 04             	cmp    $0x4,%eax
    2095:	0f 85 1a ff ff ff    	jne    1fb5 <pqcrystals_kyber1024_ref_indcpa_enc+0xf5>
    209b:	4c 8b 6c 24 20       	mov    0x20(%rsp),%r13
    20a0:	31 db                	xor    %ebx,%ebx
    20a2:	4c 8d a4 24 50 06 00 	lea    0x650(%rsp),%r12
    20a9:	00 
    20aa:	48 89 df             	mov    %rbx,%rdi
    20ad:	89 da                	mov    %ebx,%edx
    20af:	4c 89 ee             	mov    %r13,%rsi
    20b2:	48 83 c3 01          	add    $0x1,%rbx
    20b6:	48 c1 e7 09          	shl    $0x9,%rdi
    20ba:	4c 01 e7             	add    %r12,%rdi
    20bd:	e8 be 2a 00 00       	call   4b80 <pqcrystals_kyber1024_ref_poly_getnoise_eta1>
    20c2:	48 83 fb 04          	cmp    $0x4,%rbx
    20c6:	75 e2                	jne    20aa <pqcrystals_kyber1024_ref_indcpa_enc+0x1ea>
    20c8:	4c 8b 74 24 20       	mov    0x20(%rsp),%r14
    20cd:	31 db                	xor    %ebx,%ebx
    20cf:	4c 8d ac 24 50 16 00 	lea    0x1650(%rsp),%r13
    20d6:	00 
    20d7:	48 89 df             	mov    %rbx,%rdi
    20da:	8d 53 04             	lea    0x4(%rbx),%edx
    20dd:	4c 89 f6             	mov    %r14,%rsi
    20e0:	48 83 c3 01          	add    $0x1,%rbx
    20e4:	48 c1 e7 09          	shl    $0x9,%rdi
    20e8:	4c 01 ef             	add    %r13,%rdi
    20eb:	e8 00 2b 00 00       	call   4bf0 <pqcrystals_kyber1024_ref_poly_getnoise_eta2>
    20f0:	48 83 fb 04          	cmp    $0x4,%rbx
    20f4:	75 e1                	jne    20d7 <pqcrystals_kyber1024_ref_indcpa_enc+0x217>
    20f6:	48 8b 74 24 20       	mov    0x20(%rsp),%rsi
    20fb:	4c 8d b4 24 50 04 00 	lea    0x450(%rsp),%r14
    2102:	00 
    2103:	ba 08 00 00 00       	mov    $0x8,%edx
    2108:	48 89 eb             	mov    %rbp,%rbx
    210b:	4c 89 f7             	mov    %r14,%rdi
    210e:	e8 dd 2a 00 00       	call   4bf0 <pqcrystals_kyber1024_ref_poly_getnoise_eta2>
    2113:	4c 89 e7             	mov    %r12,%rdi
    2116:	e8 35 08 00 00       	call   2950 <pqcrystals_kyber1024_ref_polyvec_ntt>
    211b:	4c 8b 7c 24 30       	mov    0x30(%rsp),%r15
    2120:	4c 89 fe             	mov    %r15,%rsi
    2123:	48 89 df             	mov    %rbx,%rdi
    2126:	4c 89 e2             	mov    %r12,%rdx
    2129:	48 81 c3 00 02 00 00 	add    $0x200,%rbx
    2130:	e8 9b 08 00 00       	call   29d0 <pqcrystals_kyber1024_ref_polyvec_basemul_acc_montgomery>
    2135:	49 81 c7 00 08 00 00 	add    $0x800,%r15
    213c:	48 39 5c 24 28       	cmp    %rbx,0x28(%rsp)
    2141:	75 dd                	jne    2120 <pqcrystals_kyber1024_ref_indcpa_enc+0x260>
    2143:	4c 8d 7c 24 50       	lea    0x50(%rsp),%r15
    2148:	48 8b 74 24 40       	mov    0x40(%rsp),%rsi
    214d:	4c 89 e2             	mov    %r12,%rdx
    2150:	4c 89 ff             	mov    %r15,%rdi
    2153:	e8 78 08 00 00       	call   29d0 <pqcrystals_kyber1024_ref_polyvec_basemul_acc_montgomery>
    2158:	48 89 ef             	mov    %rbp,%rdi
    215b:	e8 30 08 00 00       	call   2990 <pqcrystals_kyber1024_ref_polyvec_invntt_tomont>
    2160:	4c 89 ff             	mov    %r15,%rdi
    2163:	e8 38 2b 00 00       	call   4ca0 <pqcrystals_kyber1024_ref_poly_invntt_tomont>
    2168:	4c 89 ea             	mov    %r13,%rdx
    216b:	48 89 ee             	mov    %rbp,%rsi
    216e:	48 89 ef             	mov    %rbp,%rdi
    2171:	e8 3a 09 00 00       	call   2ab0 <pqcrystals_kyber1024_ref_polyvec_add>
    2176:	4c 89 f2             	mov    %r14,%rdx
    2179:	4c 89 fe             	mov    %r15,%rsi
    217c:	4c 89 ff             	mov    %r15,%rdi
    217f:	e8 2c 2c 00 00       	call   4db0 <pqcrystals_kyber1024_ref_poly_add>
    2184:	48 8b 54 24 48       	mov    0x48(%rsp),%rdx
    2189:	4c 89 fe             	mov    %r15,%rsi
    218c:	4c 89 ff             	mov    %r15,%rdi
    218f:	e8 1c 2c 00 00       	call   4db0 <pqcrystals_kyber1024_ref_poly_add>
    2194:	48 89 ef             	mov    %rbp,%rdi
    2197:	e8 d4 08 00 00       	call   2a70 <pqcrystals_kyber1024_ref_polyvec_reduce>
    219c:	4c 89 ff             	mov    %r15,%rdi
    219f:	e8 cc 2b 00 00       	call   4d70 <pqcrystals_kyber1024_ref_poly_reduce>
    21a4:	48 8b 5c 24 38       	mov    0x38(%rsp),%rbx
    21a9:	48 89 ee             	mov    %rbp,%rsi
    21ac:	48 89 df             	mov    %rbx,%rdi
    21af:	e8 dc 01 00 00       	call   2390 <pqcrystals_kyber1024_ref_polyvec_compress>
    21b4:	48 89 df             	mov    %rbx,%rdi
    21b7:	4c 89 fe             	mov    %r15,%rsi
    21ba:	48 81 c7 80 05 00 00 	add    $0x580,%rdi
    21c1:	e8 3a 09 00 00       	call   2b00 <pqcrystals_kyber1024_ref_poly_compress>
    21c6:	48 8b 84 24 78 48 00 	mov    0x4878(%rsp),%rax
    21cd:	00 
    21ce:	64 48 2b 04 25 28 00 	sub    %fs:0x28,%rax
    21d5:	00 00 
    21d7:	0f 85 b2 00 00 00    	jne    228f <pqcrystals_kyber1024_ref_indcpa_enc+0x3cf>
    21dd:	48 81 c4 88 48 00 00 	add    $0x4888,%rsp
    21e4:	5b                   	pop    %rbx
    21e5:	5d                   	pop    %rbp
    21e6:	41 5c                	pop    %r12
    21e8:	41 5d                	pop    %r13
    21ea:	41 5e                	pop    %r14
    21ec:	41 5f                	pop    %r15
    21ee:	c3                   	ret    
    21ef:	bb 00 01 00 00       	mov    $0x100,%ebx
    21f4:	0f 1f 40 00          	nopl   0x0(%rax)
    21f8:	be 01 00 00 00       	mov    $0x1,%esi
    21fd:	4c 89 ef             	mov    %r13,%rdi
    2200:	48 89 ea             	mov    %rbp,%rdx
    2203:	e8 28 59 00 00       	call   7b30 <pqcrystals_kyber_fips202_ref_shake128_squeezeblocks>
    2208:	89 df                	mov    %ebx,%edi
    220a:	44 89 e0             	mov    %r12d,%eax
    220d:	4c 89 e9             	mov    %r13,%rcx
    2210:	44 29 e7             	sub    %r12d,%edi
    2213:	4d 8d 04 47          	lea    (%r15,%rax,2),%r8
    2217:	31 f6                	xor    %esi,%esi
    2219:	eb 22                	jmp    223d <pqcrystals_kyber1024_ref_indcpa_enc+0x37d>
    221b:	0f 1f 44 00 00       	nopl   0x0(%rax,%rax,1)
    2220:	66 3d 00 0d          	cmp    $0xd00,%ax
    2224:	77 0a                	ja     2230 <pqcrystals_kyber1024_ref_indcpa_enc+0x370>
    2226:	89 f2                	mov    %esi,%edx
    2228:	83 c6 01             	add    $0x1,%esi
    222b:	66 41 89 04 50       	mov    %ax,(%r8,%rdx,2)
    2230:	39 f7                	cmp    %esi,%edi
    2232:	76 46                	jbe    227a <pqcrystals_kyber1024_ref_indcpa_enc+0x3ba>
    2234:	48 83 c1 03          	add    $0x3,%rcx
    2238:	49 39 ce             	cmp    %rcx,%r14
    223b:	74 3d                	je     227a <pqcrystals_kyber1024_ref_indcpa_enc+0x3ba>
    223d:	0f b6 41 01          	movzbl 0x1(%rcx),%eax
    2241:	44 0f b6 09          	movzbl (%rcx),%r9d
    2245:	89 c2                	mov    %eax,%edx
    2247:	c0 e8 04             	shr    $0x4,%al
    224a:	c1 e2 08             	shl    $0x8,%edx
    224d:	0f b6 c0             	movzbl %al,%eax
    2250:	44 09 ca             	or     %r9d,%edx
    2253:	44 0f b6 49 02       	movzbl 0x2(%rcx),%r9d
    2258:	66 81 e2 ff 0f       	and    $0xfff,%dx
    225d:	41 c1 e1 04          	shl    $0x4,%r9d
    2261:	44 09 c8             	or     %r9d,%eax
    2264:	66 81 fa 00 0d       	cmp    $0xd00,%dx
    2269:	77 0b                	ja     2276 <pqcrystals_kyber1024_ref_indcpa_enc+0x3b6>
    226b:	41 89 f1             	mov    %esi,%r9d
    226e:	83 c6 01             	add    $0x1,%esi
    2271:	66 43 89 14 48       	mov    %dx,(%r8,%r9,2)
    2276:	39 f7                	cmp    %esi,%edi
    2278:	77 a6                	ja     2220 <pqcrystals_kyber1024_ref_indcpa_enc+0x360>
    227a:	41 01 f4             	add    %esi,%r12d
    227d:	41 81 fc ff 00 00 00 	cmp    $0xff,%r12d
    2284:	0f 86 6e ff ff ff    	jbe    21f8 <pqcrystals_kyber1024_ref_indcpa_enc+0x338>
    228a:	e9 d7 fd ff ff       	jmp    2066 <pqcrystals_kyber1024_ref_indcpa_enc+0x1a6>
    228f:	e8 ec ee ff ff       	call   1180 <__stack_chk_fail@plt>
    2294:	66 66 2e 0f 1f 84 00 	data16 cs nopw 0x0(%rax,%rax,1)
    229b:	00 00 00 00 
    229f:	90                   	nop

00000000000022a0 <pqcrystals_kyber1024_ref_indcpa_dec>:
    22a0:	f3 0f 1e fa          	endbr64 
    22a4:	41 57                	push   %r15
    22a6:	41 56                	push   %r14
    22a8:	41 55                	push   %r13
    22aa:	41 54                	push   %r12
    22ac:	55                   	push   %rbp
    22ad:	53                   	push   %rbx
    22ae:	48 81 ec 00 10 00 00 	sub    $0x1000,%rsp
    22b5:	48 83 0c 24 00       	orq    $0x0,(%rsp)
    22ba:	48 81 ec 18 04 00 00 	sub    $0x418,%rsp
    22c1:	48 89 f5             	mov    %rsi,%rbp
    22c4:	49 89 fc             	mov    %rdi,%r12
    22c7:	49 89 e7             	mov    %rsp,%r15
    22ca:	49 89 d6             	mov    %rdx,%r14
    22cd:	4c 8d ac 24 00 04 00 	lea    0x400(%rsp),%r13
    22d4:	00 
    22d5:	48 8d 9c 24 00 0c 00 	lea    0xc00(%rsp),%rbx
    22dc:	00 
    22dd:	64 48 8b 04 25 28 00 	mov    %fs:0x28,%rax
    22e4:	00 00 
    22e6:	48 89 84 24 08 14 00 	mov    %rax,0x1408(%rsp)
    22ed:	00 
    22ee:	31 c0                	xor    %eax,%eax
    22f0:	4c 89 ef             	mov    %r13,%rdi
    22f3:	e8 a8 03 00 00       	call   26a0 <pqcrystals_kyber1024_ref_polyvec_decompress>
    22f8:	48 8d b5 80 05 00 00 	lea    0x580(%rbp),%rsi
    22ff:	4c 89 ff             	mov    %r15,%rdi
    2302:	48 8d ac 24 00 02 00 	lea    0x200(%rsp),%rbp
    2309:	00 
    230a:	e8 c1 09 00 00       	call   2cd0 <pqcrystals_kyber1024_ref_poly_decompress>
    230f:	4c 89 f6             	mov    %r14,%rsi
    2312:	48 89 df             	mov    %rbx,%rdi
    2315:	e8 f6 05 00 00       	call   2910 <pqcrystals_kyber1024_ref_polyvec_frombytes>
    231a:	4c 89 ef             	mov    %r13,%rdi
    231d:	e8 2e 06 00 00       	call   2950 <pqcrystals_kyber1024_ref_polyvec_ntt>
    2322:	4c 89 ea             	mov    %r13,%rdx
    2325:	48 89 de             	mov    %rbx,%rsi
    2328:	48 89 ef             	mov    %rbp,%rdi
    232b:	e8 a0 06 00 00       	call   29d0 <pqcrystals_kyber1024_ref_polyvec_basemul_acc_montgomery>
    2330:	48 89 ef             	mov    %rbp,%rdi
    2333:	e8 68 29 00 00       	call   4ca0 <pqcrystals_kyber1024_ref_poly_invntt_tomont>
    2338:	4c 89 fe             	mov    %r15,%rsi
    233b:	48 89 ea             	mov    %rbp,%rdx
    233e:	48 89 ef             	mov    %rbp,%rdi
    2341:	e8 9a 2a 00 00       	call   4de0 <pqcrystals_kyber1024_ref_poly_sub>
    2346:	48 89 ef             	mov    %rbp,%rdi
    2349:	e8 22 2a 00 00       	call   4d70 <pqcrystals_kyber1024_ref_poly_reduce>
    234e:	48 89 ee             	mov    %rbp,%rsi
    2351:	4c 89 e7             	mov    %r12,%rdi
    2354:	e8 47 14 00 00       	call   37a0 <pqcrystals_kyber1024_ref_poly_tomsg>
    2359:	48 8b 84 24 08 14 00 	mov    0x1408(%rsp),%rax
    2360:	00 
    2361:	64 48 2b 04 25 28 00 	sub    %fs:0x28,%rax
    2368:	00 00 
    236a:	75 12                	jne    237e <pqcrystals_kyber1024_ref_indcpa_dec+0xde>
    236c:	48 81 c4 18 14 00 00 	add    $0x1418,%rsp
    2373:	5b                   	pop    %rbx
    2374:	5d                   	pop    %rbp
    2375:	41 5c                	pop    %r12
    2377:	41 5d                	pop    %r13
    2379:	41 5e                	pop    %r14
    237b:	41 5f                	pop    %r15
    237d:	c3                   	ret    
    237e:	e8 fd ed ff ff       	call   1180 <__stack_chk_fail@plt>
    2383:	66 2e 0f 1f 84 00 00 	cs nopw 0x0(%rax,%rax,1)
    238a:	00 00 00 
    238d:	0f 1f 00             	nopl   (%rax)

0000000000002390 <pqcrystals_kyber1024_ref_polyvec_compress>:
    2390:	f3 0f 1e fa          	endbr64 
    2394:	41 57                	push   %r15
    2396:	48 89 f8             	mov    %rdi,%rax
    2399:	48 81 c7 60 01 00 00 	add    $0x160,%rdi
    23a0:	41 56                	push   %r14
    23a2:	48 05 e0 06 00 00    	add    $0x6e0,%rax
    23a8:	41 55                	push   %r13
    23aa:	41 54                	push   %r12
    23ac:	55                   	push   %rbp
    23ad:	53                   	push   %rbx
    23ae:	48 89 7c 24 e8       	mov    %rdi,-0x18(%rsp)
    23b3:	48 89 74 24 f0       	mov    %rsi,-0x10(%rsp)
    23b8:	48 89 44 24 f8       	mov    %rax,-0x8(%rsp)
    23bd:	48 8b 44 24 e8       	mov    -0x18(%rsp),%rax
    23c2:	4c 8b 7c 24 f0       	mov    -0x10(%rsp),%r15
    23c7:	48 8d a8 a0 fe ff ff 	lea    -0x160(%rax),%rbp
    23ce:	66 90                	xchg   %ax,%ax
    23d0:	41 0f b7 07          	movzwl (%r15),%eax
    23d4:	41 0f b7 57 02       	movzwl 0x2(%r15),%edx
    23d9:	41 0f b7 4f 04       	movzwl 0x4(%r15),%ecx
    23de:	41 0f b7 77 06       	movzwl 0x6(%r15),%esi
    23e3:	41 89 c2             	mov    %eax,%r10d
    23e6:	45 0f b7 47 0a       	movzwl 0xa(%r15),%r8d
    23eb:	45 0f b7 4f 0c       	movzwl 0xc(%r15),%r9d
    23f0:	66 41 c1 fa 0f       	sar    $0xf,%r10w
    23f5:	45 0f b7 67 0e       	movzwl 0xe(%r15),%r12d
    23fa:	66 41 81 e2 01 0d    	and    $0xd01,%r10w
    2400:	41 01 c2             	add    %eax,%r10d
    2403:	89 d0                	mov    %edx,%eax
    2405:	66 c1 f8 0f          	sar    $0xf,%ax
    2409:	45 0f b7 d2          	movzwl %r10w,%r10d
    240d:	66 25 01 0d          	and    $0xd01,%ax
    2411:	49 c1 e2 0b          	shl    $0xb,%r10
    2415:	01 d0                	add    %edx,%eax
    2417:	89 ca                	mov    %ecx,%edx
    2419:	49 81 c2 80 06 00 00 	add    $0x680,%r10
    2420:	66 c1 fa 0f          	sar    $0xf,%dx
    2424:	4d 69 d2 dc d7 09 00 	imul   $0x9d7dc,%r10,%r10
    242b:	0f b7 c0             	movzwl %ax,%eax
    242e:	66 81 e2 01 0d       	and    $0xd01,%dx
    2433:	48 c1 e0 0b          	shl    $0xb,%rax
    2437:	01 ca                	add    %ecx,%edx
    2439:	89 f1                	mov    %esi,%ecx
    243b:	48 05 80 06 00 00    	add    $0x680,%rax
    2441:	66 c1 f9 0f          	sar    $0xf,%cx
    2445:	0f b7 d2             	movzwl %dx,%edx
    2448:	49 c1 ea 1f          	shr    $0x1f,%r10
    244c:	66 81 e1 01 0d       	and    $0xd01,%cx
    2451:	48 c1 e2 0b          	shl    $0xb,%rdx
    2455:	48 69 c0 dc d7 09 00 	imul   $0x9d7dc,%rax,%rax
    245c:	66 41 81 e2 ff 07    	and    $0x7ff,%r10w
    2462:	01 f1                	add    %esi,%ecx
    2464:	48 81 c2 80 06 00 00 	add    $0x680,%rdx
    246b:	0f b7 c9             	movzwl %cx,%ecx
    246e:	48 69 d2 dc d7 09 00 	imul   $0x9d7dc,%rdx,%rdx
    2475:	48 c1 e1 0b          	shl    $0xb,%rcx
    2479:	48 c1 e8 1f          	shr    $0x1f,%rax
    247d:	48 81 c1 80 06 00 00 	add    $0x680,%rcx
    2484:	41 89 c5             	mov    %eax,%r13d
    2487:	48 69 c9 dc d7 09 00 	imul   $0x9d7dc,%rcx,%rcx
    248e:	48 c1 ea 1f          	shr    $0x1f,%rdx
    2492:	66 41 81 e5 ff 07    	and    $0x7ff,%r13w
    2498:	89 d3                	mov    %edx,%ebx
    249a:	66 81 e3 ff 07       	and    $0x7ff,%bx
    249f:	48 c1 e9 1f          	shr    $0x1f,%rcx
    24a3:	89 cf                	mov    %ecx,%edi
    24a5:	66 81 e7 ff 07       	and    $0x7ff,%di
    24aa:	66 89 7c 24 e2       	mov    %di,-0x1e(%rsp)
    24af:	41 0f b7 7f 08       	movzwl 0x8(%r15),%edi
    24b4:	89 fe                	mov    %edi,%esi
    24b6:	66 c1 fe 0f          	sar    $0xf,%si
    24ba:	66 81 e6 01 0d       	and    $0xd01,%si
    24bf:	01 fe                	add    %edi,%esi
    24c1:	44 89 c7             	mov    %r8d,%edi
    24c4:	66 c1 ff 0f          	sar    $0xf,%di
    24c8:	0f b7 f6             	movzwl %si,%esi
    24cb:	66 81 e7 01 0d       	and    $0xd01,%di
    24d0:	48 c1 e6 0b          	shl    $0xb,%rsi
    24d4:	44 01 c7             	add    %r8d,%edi
    24d7:	45 89 c8             	mov    %r9d,%r8d
    24da:	48 81 c6 80 06 00 00 	add    $0x680,%rsi
    24e1:	66 41 c1 f8 0f       	sar    $0xf,%r8w
    24e6:	48 69 f6 dc d7 09 00 	imul   $0x9d7dc,%rsi,%rsi
    24ed:	0f b7 ff             	movzwl %di,%edi
    24f0:	66 41 81 e0 01 0d    	and    $0xd01,%r8w
    24f6:	48 c1 e7 0b          	shl    $0xb,%rdi
    24fa:	45 01 c1             	add    %r8d,%r9d
    24fd:	48 81 c7 80 06 00 00 	add    $0x680,%rdi
    2504:	45 0f b7 c9          	movzwl %r9w,%r9d
    2508:	48 69 ff dc d7 09 00 	imul   $0x9d7dc,%rdi,%rdi
    250f:	48 c1 ee 1f          	shr    $0x1f,%rsi
    2513:	49 c1 e1 0b          	shl    $0xb,%r9
    2517:	41 89 f6             	mov    %esi,%r14d
    251a:	49 81 c1 80 06 00 00 	add    $0x680,%r9
    2521:	66 41 81 e6 ff 07    	and    $0x7ff,%r14w
    2527:	4d 69 c9 dc d7 09 00 	imul   $0x9d7dc,%r9,%r9
    252e:	48 c1 ef 1f          	shr    $0x1f,%rdi
    2532:	66 44 89 74 24 e4    	mov    %r14w,-0x1c(%rsp)
    2538:	45 89 d6             	mov    %r10d,%r14d
    253b:	41 89 fb             	mov    %edi,%r11d
    253e:	66 41 81 e3 ff 07    	and    $0x7ff,%r11w
    2544:	49 c1 e9 1f          	shr    $0x1f,%r9
    2548:	45 89 c8             	mov    %r9d,%r8d
    254b:	66 41 81 e0 ff 07    	and    $0x7ff,%r8w
    2551:	66 44 89 44 24 e6    	mov    %r8w,-0x1a(%rsp)
    2557:	45 89 e0             	mov    %r12d,%r8d
    255a:	66 41 c1 f8 0f       	sar    $0xf,%r8w
    255f:	66 41 81 e0 01 0d    	and    $0xd01,%r8w
    2565:	45 01 e0             	add    %r12d,%r8d
    2568:	45 0f b7 c0          	movzwl %r8w,%r8d
    256c:	49 c1 e0 0b          	shl    $0xb,%r8
    2570:	49 81 c0 80 06 00 00 	add    $0x680,%r8
    2577:	4d 69 c0 dc d7 09 00 	imul   $0x9d7dc,%r8,%r8
    257e:	49 c1 e8 1f          	shr    $0x1f,%r8
    2582:	45 89 c4             	mov    %r8d,%r12d
    2585:	66 41 81 e4 ff 07    	and    $0x7ff,%r12w
    258b:	66 41 c1 ee 08       	shr    $0x8,%r14w
    2590:	01 c9                	add    %ecx,%ecx
    2592:	66 41 c1 ed 05       	shr    $0x5,%r13w
    2597:	c1 e2 06             	shl    $0x6,%edx
    259a:	c1 e6 04             	shl    $0x4,%esi
    259d:	44 09 ea             	or     %r13d,%edx
    25a0:	41 89 dd             	mov    %ebx,%r13d
    25a3:	66 c1 eb 0a          	shr    $0xa,%bx
    25a7:	c1 e7 07             	shl    $0x7,%edi
    25aa:	09 d9                	or     %ebx,%ecx
    25ac:	0f b7 5c 24 e2       	movzwl -0x1e(%rsp),%ebx
    25b1:	66 41 c1 ed 02       	shr    $0x2,%r13w
    25b6:	c1 e0 03             	shl    $0x3,%eax
    25b9:	66 c1 eb 07          	shr    $0x7,%bx
    25bd:	44 09 f0             	or     %r14d,%eax
    25c0:	09 de                	or     %ebx,%esi
    25c2:	0f b7 5c 24 e4       	movzwl -0x1c(%rsp),%ebx
    25c7:	40 0f b6 f6          	movzbl %sil,%esi
    25cb:	66 c1 eb 04          	shr    $0x4,%bx
    25cf:	09 df                	or     %ebx,%edi
    25d1:	44 89 db             	mov    %r11d,%ebx
    25d4:	66 41 c1 eb 09       	shr    $0x9,%r11w
    25d9:	66 d1 eb             	shr    %bx
    25dc:	40 0f b6 ff          	movzbl %dil,%edi
    25e0:	0f b6 db             	movzbl %bl,%ebx
    25e3:	48 c1 e3 08          	shl    $0x8,%rbx
    25e7:	48 09 fb             	or     %rdi,%rbx
    25ea:	48 c1 e3 08          	shl    $0x8,%rbx
    25ee:	48 09 f3             	or     %rsi,%rbx
    25f1:	0f b6 f1             	movzbl %cl,%esi
    25f4:	48 c1 e3 08          	shl    $0x8,%rbx
    25f8:	48 89 d9             	mov    %rbx,%rcx
    25fb:	48 09 f1             	or     %rsi,%rcx
    25fe:	41 0f b6 f5          	movzbl %r13b,%esi
    2602:	48 c1 e1 08          	shl    $0x8,%rcx
    2606:	49 89 cd             	mov    %rcx,%r13
    2609:	0f b6 ca             	movzbl %dl,%ecx
    260c:	49 09 f5             	or     %rsi,%r13
    260f:	4c 89 ea             	mov    %r13,%rdx
    2612:	48 c1 e2 08          	shl    $0x8,%rdx
    2616:	48 09 ca             	or     %rcx,%rdx
    2619:	0f b6 c8             	movzbl %al,%ecx
    261c:	48 c1 e2 08          	shl    $0x8,%rdx
    2620:	48 89 d0             	mov    %rdx,%rax
    2623:	41 0f b6 d2          	movzbl %r10b,%edx
    2627:	48 09 c8             	or     %rcx,%rax
    262a:	49 89 c2             	mov    %rax,%r10
    262d:	0f b7 44 24 e6       	movzwl -0x1a(%rsp),%eax
    2632:	49 c1 e2 08          	shl    $0x8,%r10
    2636:	49 09 d2             	or     %rdx,%r10
    2639:	41 c1 e1 02          	shl    $0x2,%r9d
    263d:	48 83 c5 0b          	add    $0xb,%rbp
    2641:	49 83 c7 10          	add    $0x10,%r15
    2645:	66 c1 e8 06          	shr    $0x6,%ax
    2649:	41 c1 e0 05          	shl    $0x5,%r8d
    264d:	45 09 d9             	or     %r11d,%r9d
    2650:	4c 89 55 f5          	mov    %r10,-0xb(%rbp)
    2654:	41 09 c0             	or     %eax,%r8d
    2657:	66 41 c1 ec 03       	shr    $0x3,%r12w
    265c:	44 88 4d fd          	mov    %r9b,-0x3(%rbp)
    2660:	44 88 45 fe          	mov    %r8b,-0x2(%rbp)
    2664:	44 88 65 ff          	mov    %r12b,-0x1(%rbp)
    2668:	48 3b 6c 24 e8       	cmp    -0x18(%rsp),%rbp
    266d:	0f 85 5d fd ff ff    	jne    23d0 <pqcrystals_kyber1024_ref_polyvec_compress+0x40>
    2673:	48 81 44 24 f0 00 02 	addq   $0x200,-0x10(%rsp)
    267a:	00 00 
    267c:	48 8d 85 60 01 00 00 	lea    0x160(%rbp),%rax
    2683:	48 89 44 24 e8       	mov    %rax,-0x18(%rsp)
    2688:	48 39 44 24 f8       	cmp    %rax,-0x8(%rsp)
    268d:	0f 85 2a fd ff ff    	jne    23bd <pqcrystals_kyber1024_ref_polyvec_compress+0x2d>
    2693:	5b                   	pop    %rbx
    2694:	5d                   	pop    %rbp
    2695:	41 5c                	pop    %r12
    2697:	41 5d                	pop    %r13
    2699:	41 5e                	pop    %r14
    269b:	41 5f                	pop    %r15
    269d:	c3                   	ret    
    269e:	66 90                	xchg   %ax,%ax

00000000000026a0 <pqcrystals_kyber1024_ref_polyvec_decompress>:
    26a0:	f3 0f 1e fa          	endbr64 
    26a4:	41 57                	push   %r15
    26a6:	49 89 ff             	mov    %rdi,%r15
    26a9:	41 56                	push   %r14
    26ab:	4c 8d b6 60 01 00 00 	lea    0x160(%rsi),%r14
    26b2:	41 55                	push   %r13
    26b4:	41 54                	push   %r12
    26b6:	55                   	push   %rbp
    26b7:	53                   	push   %rbx
    26b8:	c7 44 24 ec 00 00 00 	movl   $0x0,-0x14(%rsp)
    26bf:	00 
    26c0:	4c 89 7c 24 f0       	mov    %r15,-0x10(%rsp)
    26c5:	49 8d be a0 fe ff ff 	lea    -0x160(%r14),%rdi
    26cc:	4d 89 fd             	mov    %r15,%r13
    26cf:	90                   	nop
    26d0:	0f b6 6f 01          	movzbl 0x1(%rdi),%ebp
    26d4:	0f b6 57 02          	movzbl 0x2(%rdi),%edx
    26d8:	48 83 c7 0b          	add    $0xb,%rdi
    26dc:	44 0f b6 57 f9       	movzbl -0x7(%rdi),%r10d
    26e1:	0f b6 4f fc          	movzbl -0x4(%rdi),%ecx
    26e5:	40 c0 ed 03          	shr    $0x3,%bpl
    26e9:	89 d0                	mov    %edx,%eax
    26eb:	c1 e2 05             	shl    $0x5,%edx
    26ee:	0f b6 5f fb          	movzbl -0x5(%rdi),%ebx
    26f2:	40 0f b6 ed          	movzbl %bpl,%ebp
    26f6:	45 89 d3             	mov    %r10d,%r11d
    26f9:	c0 e8 06             	shr    $0x6,%al
    26fc:	44 0f b7 67 f5       	movzwl -0xb(%rdi),%r12d
    2701:	09 d5                	or     %edx,%ebp
    2703:	0f b6 57 f8          	movzbl -0x8(%rdi),%edx
    2707:	41 c1 e3 0a          	shl    $0xa,%r11d
    270b:	0f b6 c0             	movzbl %al,%eax
    270e:	01 c9                	add    %ecx,%ecx
    2710:	41 81 e4 ff 07 00 00 	and    $0x7ff,%r12d
    2717:	41 d0 ea             	shr    %r10b
    271a:	0f b6 77 ff          	movzbl -0x1(%rdi),%esi
    271e:	c1 e2 02             	shl    $0x2,%edx
    2721:	81 e5 ff 07 00 00    	and    $0x7ff,%ebp
    2727:	45 0f b6 d2          	movzbl %r10b,%r10d
    272b:	44 0f b6 7f fa       	movzbl -0x6(%rdi),%r15d
    2730:	41 09 d3             	or     %edx,%r11d
    2733:	44 0f b6 47 fe       	movzbl -0x2(%rdi),%r8d
    2738:	45 69 e4 01 0d 00 00 	imul   $0xd01,%r12d,%r12d
    273f:	c1 e6 03             	shl    $0x3,%esi
    2742:	41 09 c3             	or     %eax,%r11d
    2745:	0f b6 47 fd          	movzbl -0x3(%rdi),%eax
    2749:	69 ed 01 0d 00 00    	imul   $0xd01,%ebp,%ebp
    274f:	44 89 fa             	mov    %r15d,%edx
    2752:	41 81 e3 ff 07 00 00 	and    $0x7ff,%r11d
    2759:	41 c1 e7 07          	shl    $0x7,%r15d
    275d:	41 89 c1             	mov    %eax,%r9d
    2760:	45 69 db 01 0d 00 00 	imul   $0xd01,%r11d,%r11d
    2767:	41 81 c4 00 04 00 00 	add    $0x400,%r12d
    276e:	45 09 fa             	or     %r15d,%r10d
    2771:	41 c1 e1 09          	shl    $0x9,%r9d
    2775:	81 c5 00 04 00 00    	add    $0x400,%ebp
    277b:	41 c1 ec 0b          	shr    $0xb,%r12d
    277f:	41 09 c9             	or     %ecx,%r9d
    2782:	89 d9                	mov    %ebx,%ecx
    2784:	c1 ed 0b             	shr    $0xb,%ebp
    2787:	66 41 0f 6e d4       	movd   %r12d,%xmm2
    278c:	c0 e9 07             	shr    $0x7,%cl
    278f:	41 81 c3 00 04 00 00 	add    $0x400,%r11d
    2796:	66 0f 6e ed          	movd   %ebp,%xmm5
    279a:	0f b6 c9             	movzbl %cl,%ecx
    279d:	41 c1 eb 0b          	shr    $0xb,%r11d
    27a1:	66 0f 62 d5          	punpckldq %xmm5,%xmm2
    27a5:	41 09 c9             	or     %ecx,%r9d
    27a8:	44 89 c1             	mov    %r8d,%ecx
    27ab:	66 41 0f 6e c3       	movd   %r11d,%xmm0
    27b0:	c0 e9 05             	shr    $0x5,%cl
    27b3:	83 e1 07             	and    $0x7,%ecx
    27b6:	41 81 e2 ff 07 00 00 	and    $0x7ff,%r10d
    27bd:	c0 ea 04             	shr    $0x4,%dl
    27c0:	41 81 e1 ff 07 00 00 	and    $0x7ff,%r9d
    27c7:	c0 e8 02             	shr    $0x2,%al
    27ca:	0f b6 d2             	movzbl %dl,%edx
    27cd:	c1 e3 04             	shl    $0x4,%ebx
    27d0:	09 f1                	or     %esi,%ecx
    27d2:	0f b6 c0             	movzbl %al,%eax
    27d5:	41 c1 e0 06          	shl    $0x6,%r8d
    27d9:	45 69 d2 01 0d 00 00 	imul   $0xd01,%r10d,%r10d
    27e0:	09 da                	or     %ebx,%edx
    27e2:	44 09 c0             	or     %r8d,%eax
    27e5:	81 e2 ff 07 00 00    	and    $0x7ff,%edx
    27eb:	49 83 c5 10          	add    $0x10,%r13
    27ef:	25 ff 07 00 00       	and    $0x7ff,%eax
    27f4:	69 d2 01 0d 00 00    	imul   $0xd01,%edx,%edx
    27fa:	45 69 c9 01 0d 00 00 	imul   $0xd01,%r9d,%r9d
    2801:	41 81 c2 00 04 00 00 	add    $0x400,%r10d
    2808:	69 c0 01 0d 00 00    	imul   $0xd01,%eax,%eax
    280e:	41 c1 ea 0b          	shr    $0xb,%r10d
    2812:	69 c9 01 0d 00 00    	imul   $0xd01,%ecx,%ecx
    2818:	66 41 0f 6e e2       	movd   %r10d,%xmm4
    281d:	81 c2 00 04 00 00    	add    $0x400,%edx
    2823:	41 81 c1 00 04 00 00 	add    $0x400,%r9d
    282a:	66 0f 62 c4          	punpckldq %xmm4,%xmm0
    282e:	c1 ea 0b             	shr    $0xb,%edx
    2831:	05 00 04 00 00       	add    $0x400,%eax
    2836:	41 c1 e9 0b          	shr    $0xb,%r9d
    283a:	66 0f 6c d0          	punpcklqdq %xmm0,%xmm2
    283e:	66 0f 6e c2          	movd   %edx,%xmm0
    2842:	81 c1 00 04 00 00    	add    $0x400,%ecx
    2848:	c1 e8 0b             	shr    $0xb,%eax
    284b:	66 41 0f 6e f9       	movd   %r9d,%xmm7
    2850:	66 0f 6f da          	movdqa %xmm2,%xmm3
    2854:	c1 e9 0b             	shr    $0xb,%ecx
    2857:	66 0f 6e c8          	movd   %eax,%xmm1
    285b:	66 0f 62 c7          	punpckldq %xmm7,%xmm0
    285f:	66 0f 6e f1          	movd   %ecx,%xmm6
    2863:	66 0f 62 ce          	punpckldq %xmm6,%xmm1
    2867:	66 0f 6c c1          	punpcklqdq %xmm1,%xmm0
    286b:	66 0f 6f ca          	movdqa %xmm2,%xmm1
    286f:	66 0f 61 c8          	punpcklwd %xmm0,%xmm1
    2873:	66 0f 69 d8          	punpckhwd %xmm0,%xmm3
    2877:	66 0f 6f c1          	movdqa %xmm1,%xmm0
    287b:	66 0f 61 cb          	punpcklwd %xmm3,%xmm1
    287f:	66 0f 69 c3          	punpckhwd %xmm3,%xmm0
    2883:	66 0f 61 c8          	punpcklwd %xmm0,%xmm1
    2887:	41 0f 11 4d f0       	movups %xmm1,-0x10(%r13)
    288c:	4c 39 f7             	cmp    %r14,%rdi
    288f:	0f 85 3b fe ff ff    	jne    26d0 <pqcrystals_kyber1024_ref_polyvec_decompress+0x30>
    2895:	83 44 24 ec 01       	addl   $0x1,-0x14(%rsp)
    289a:	4c 8b 7c 24 f0       	mov    -0x10(%rsp),%r15
    289f:	4c 8d b7 60 01 00 00 	lea    0x160(%rdi),%r14
    28a6:	8b 44 24 ec          	mov    -0x14(%rsp),%eax
    28aa:	49 81 c7 00 02 00 00 	add    $0x200,%r15
    28b1:	83 f8 04             	cmp    $0x4,%eax
    28b4:	0f 85 06 fe ff ff    	jne    26c0 <pqcrystals_kyber1024_ref_polyvec_decompress+0x20>
    28ba:	5b                   	pop    %rbx
    28bb:	5d                   	pop    %rbp
    28bc:	41 5c                	pop    %r12
    28be:	41 5d                	pop    %r13
    28c0:	41 5e                	pop    %r14
    28c2:	41 5f                	pop    %r15
    28c4:	c3                   	ret    
    28c5:	66 66 2e 0f 1f 84 00 	data16 cs nopw 0x0(%rax,%rax,1)
    28cc:	00 00 00 00 

00000000000028d0 <pqcrystals_kyber1024_ref_polyvec_tobytes>:
    28d0:	f3 0f 1e fa          	endbr64 
    28d4:	41 54                	push   %r12
    28d6:	4c 8d a7 00 06 00 00 	lea    0x600(%rdi),%r12
    28dd:	55                   	push   %rbp
    28de:	48 89 f5             	mov    %rsi,%rbp
    28e1:	53                   	push   %rbx
    28e2:	48 89 fb             	mov    %rdi,%rbx
    28e5:	48 89 ee             	mov    %rbp,%rsi
    28e8:	48 89 df             	mov    %rbx,%rdi
    28eb:	48 81 c3 80 01 00 00 	add    $0x180,%rbx
    28f2:	48 81 c5 00 02 00 00 	add    $0x200,%rbp
    28f9:	e8 42 05 00 00       	call   2e40 <pqcrystals_kyber1024_ref_poly_tobytes>
    28fe:	4c 39 e3             	cmp    %r12,%rbx
    2901:	75 e2                	jne    28e5 <pqcrystals_kyber1024_ref_polyvec_tobytes+0x15>
    2903:	5b                   	pop    %rbx
    2904:	5d                   	pop    %rbp
    2905:	41 5c                	pop    %r12
    2907:	c3                   	ret    
    2908:	0f 1f 84 00 00 00 00 	nopl   0x0(%rax,%rax,1)
    290f:	00 

0000000000002910 <pqcrystals_kyber1024_ref_polyvec_frombytes>:
    2910:	f3 0f 1e fa          	endbr64 
    2914:	41 54                	push   %r12
    2916:	4c 8d a6 00 06 00 00 	lea    0x600(%rsi),%r12
    291d:	55                   	push   %rbp
    291e:	48 89 fd             	mov    %rdi,%rbp
    2921:	53                   	push   %rbx
    2922:	48 89 f3             	mov    %rsi,%rbx
    2925:	48 89 de             	mov    %rbx,%rsi
    2928:	48 89 ef             	mov    %rbp,%rdi
    292b:	48 81 c3 80 01 00 00 	add    $0x180,%rbx
    2932:	48 81 c5 00 02 00 00 	add    $0x200,%rbp
    2939:	e8 62 05 00 00       	call   2ea0 <pqcrystals_kyber1024_ref_poly_frombytes>
    293e:	4c 39 e3             	cmp    %r12,%rbx
    2941:	75 e2                	jne    2925 <pqcrystals_kyber1024_ref_polyvec_frombytes+0x15>
    2943:	5b                   	pop    %rbx
    2944:	5d                   	pop    %rbp
    2945:	41 5c                	pop    %r12
    2947:	c3                   	ret    
    2948:	0f 1f 84 00 00 00 00 	nopl   0x0(%rax,%rax,1)
    294f:	00 

0000000000002950 <pqcrystals_kyber1024_ref_polyvec_ntt>:
    2950:	f3 0f 1e fa          	endbr64 
    2954:	53                   	push   %rbx
    2955:	48 89 fb             	mov    %rdi,%rbx
    2958:	e8 03 23 00 00       	call   4c60 <pqcrystals_kyber1024_ref_poly_ntt>
    295d:	48 8d bb 00 02 00 00 	lea    0x200(%rbx),%rdi
    2964:	e8 f7 22 00 00       	call   4c60 <pqcrystals_kyber1024_ref_poly_ntt>
    2969:	48 8d bb 00 04 00 00 	lea    0x400(%rbx),%rdi
    2970:	e8 eb 22 00 00       	call   4c60 <pqcrystals_kyber1024_ref_poly_ntt>
    2975:	48 8d bb 00 06 00 00 	lea    0x600(%rbx),%rdi
    297c:	5b                   	pop    %rbx
    297d:	e9 de 22 00 00       	jmp    4c60 <pqcrystals_kyber1024_ref_poly_ntt>
    2982:	66 66 2e 0f 1f 84 00 	data16 cs nopw 0x0(%rax,%rax,1)
    2989:	00 00 00 00 
    298d:	0f 1f 00             	nopl   (%rax)

0000000000002990 <pqcrystals_kyber1024_ref_polyvec_invntt_tomont>:
    2990:	f3 0f 1e fa          	endbr64 
    2994:	53                   	push   %rbx
    2995:	48 89 fb             	mov    %rdi,%rbx
    2998:	e8 03 23 00 00       	call   4ca0 <pqcrystals_kyber1024_ref_poly_invntt_tomont>
    299d:	48 8d bb 00 02 00 00 	lea    0x200(%rbx),%rdi
    29a4:	e8 f7 22 00 00       	call   4ca0 <pqcrystals_kyber1024_ref_poly_invntt_tomont>
    29a9:	48 8d bb 00 04 00 00 	lea    0x400(%rbx),%rdi
    29b0:	e8 eb 22 00 00       	call   4ca0 <pqcrystals_kyber1024_ref_poly_invntt_tomont>
    29b5:	48 8d bb 00 06 00 00 	lea    0x600(%rbx),%rdi
    29bc:	5b                   	pop    %rbx
    29bd:	e9 de 22 00 00       	jmp    4ca0 <pqcrystals_kyber1024_ref_poly_invntt_tomont>
    29c2:	66 66 2e 0f 1f 84 00 	data16 cs nopw 0x0(%rax,%rax,1)
    29c9:	00 00 00 00 
    29cd:	0f 1f 00             	nopl   (%rax)

00000000000029d0 <pqcrystals_kyber1024_ref_polyvec_basemul_acc_montgomery>:
    29d0:	f3 0f 1e fa          	endbr64 
    29d4:	41 56                	push   %r14
    29d6:	49 89 d6             	mov    %rdx,%r14
    29d9:	41 55                	push   %r13
    29db:	49 89 f5             	mov    %rsi,%r13
    29de:	41 54                	push   %r12
    29e0:	55                   	push   %rbp
    29e1:	48 89 fd             	mov    %rdi,%rbp
    29e4:	53                   	push   %rbx
    29e5:	bb 00 02 00 00       	mov    $0x200,%ebx
    29ea:	48 81 ec 10 02 00 00 	sub    $0x210,%rsp
    29f1:	64 48 8b 04 25 28 00 	mov    %fs:0x28,%rax
    29f8:	00 00 
    29fa:	48 89 84 24 08 02 00 	mov    %rax,0x208(%rsp)
    2a01:	00 
    2a02:	31 c0                	xor    %eax,%eax
    2a04:	49 89 e4             	mov    %rsp,%r12
    2a07:	e8 a4 22 00 00       	call   4cb0 <pqcrystals_kyber1024_ref_poly_basemul_montgomery>
    2a0c:	49 8d 14 1e          	lea    (%r14,%rbx,1),%rdx
    2a10:	49 8d 74 1d 00       	lea    0x0(%r13,%rbx,1),%rsi
    2a15:	4c 89 e7             	mov    %r12,%rdi
    2a18:	48 81 c3 00 02 00 00 	add    $0x200,%rbx
    2a1f:	e8 8c 22 00 00       	call   4cb0 <pqcrystals_kyber1024_ref_poly_basemul_montgomery>
    2a24:	4c 89 e2             	mov    %r12,%rdx
    2a27:	48 89 ee             	mov    %rbp,%rsi
    2a2a:	48 89 ef             	mov    %rbp,%rdi
    2a2d:	e8 7e 23 00 00       	call   4db0 <pqcrystals_kyber1024_ref_poly_add>
    2a32:	48 81 fb 00 08 00 00 	cmp    $0x800,%rbx
    2a39:	75 d1                	jne    2a0c <pqcrystals_kyber1024_ref_polyvec_basemul_acc_montgomery+0x3c>
    2a3b:	48 89 ef             	mov    %rbp,%rdi
    2a3e:	e8 2d 23 00 00       	call   4d70 <pqcrystals_kyber1024_ref_poly_reduce>
    2a43:	48 8b 84 24 08 02 00 	mov    0x208(%rsp),%rax
    2a4a:	00 
    2a4b:	64 48 2b 04 25 28 00 	sub    %fs:0x28,%rax
    2a52:	00 00 
    2a54:	75 10                	jne    2a66 <pqcrystals_kyber1024_ref_polyvec_basemul_acc_montgomery+0x96>
    2a56:	48 81 c4 10 02 00 00 	add    $0x210,%rsp
    2a5d:	5b                   	pop    %rbx
    2a5e:	5d                   	pop    %rbp
    2a5f:	41 5c                	pop    %r12
    2a61:	41 5d                	pop    %r13
    2a63:	41 5e                	pop    %r14
    2a65:	c3                   	ret    
    2a66:	e8 15 e7 ff ff       	call   1180 <__stack_chk_fail@plt>
    2a6b:	0f 1f 44 00 00       	nopl   0x0(%rax,%rax,1)

0000000000002a70 <pqcrystals_kyber1024_ref_polyvec_reduce>:
    2a70:	f3 0f 1e fa          	endbr64 
    2a74:	53                   	push   %rbx
    2a75:	48 89 fb             	mov    %rdi,%rbx
    2a78:	e8 f3 22 00 00       	call   4d70 <pqcrystals_kyber1024_ref_poly_reduce>
    2a7d:	48 8d bb 00 02 00 00 	lea    0x200(%rbx),%rdi
    2a84:	e8 e7 22 00 00       	call   4d70 <pqcrystals_kyber1024_ref_poly_reduce>
    2a89:	48 8d bb 00 04 00 00 	lea    0x400(%rbx),%rdi
    2a90:	e8 db 22 00 00       	call   4d70 <pqcrystals_kyber1024_ref_poly_reduce>
    2a95:	48 8d bb 00 06 00 00 	lea    0x600(%rbx),%rdi
    2a9c:	5b                   	pop    %rbx
    2a9d:	e9 ce 22 00 00       	jmp    4d70 <pqcrystals_kyber1024_ref_poly_reduce>
    2aa2:	66 66 2e 0f 1f 84 00 	data16 cs nopw 0x0(%rax,%rax,1)
    2aa9:	00 00 00 00 
    2aad:	0f 1f 00             	nopl   (%rax)

0000000000002ab0 <pqcrystals_kyber1024_ref_polyvec_add>:
    2ab0:	f3 0f 1e fa          	endbr64 
    2ab4:	41 55                	push   %r13
    2ab6:	49 89 fd             	mov    %rdi,%r13
    2ab9:	41 54                	push   %r12
    2abb:	49 89 f4             	mov    %rsi,%r12
    2abe:	55                   	push   %rbp
    2abf:	48 89 d5             	mov    %rdx,%rbp
    2ac2:	53                   	push   %rbx
    2ac3:	31 db                	xor    %ebx,%ebx
    2ac5:	48 83 ec 08          	sub    $0x8,%rsp
    2ac9:	48 8d 54 1d 00       	lea    0x0(%rbp,%rbx,1),%rdx
    2ace:	49 8d 34 1c          	lea    (%r12,%rbx,1),%rsi
    2ad2:	49 8d 7c 1d 00       	lea    0x0(%r13,%rbx,1),%rdi
    2ad7:	48 81 c3 00 02 00 00 	add    $0x200,%rbx
    2ade:	e8 cd 22 00 00       	call   4db0 <pqcrystals_kyber1024_ref_poly_add>
    2ae3:	48 81 fb 00 08 00 00 	cmp    $0x800,%rbx
    2aea:	75 dd                	jne    2ac9 <pqcrystals_kyber1024_ref_polyvec_add+0x19>
    2aec:	48 83 c4 08          	add    $0x8,%rsp
    2af0:	5b                   	pop    %rbx
    2af1:	5d                   	pop    %rbp
    2af2:	41 5c                	pop    %r12
    2af4:	41 5d                	pop    %r13
    2af6:	c3                   	ret    
    2af7:	66 0f 1f 84 00 00 00 	nopw   0x0(%rax,%rax,1)
    2afe:	00 00 

0000000000002b00 <pqcrystals_kyber1024_ref_poly_compress>:
    2b00:	f3 0f 1e fa          	endbr64 
    2b04:	41 54                	push   %r12
    2b06:	49 89 f3             	mov    %rsi,%r11
    2b09:	55                   	push   %rbp
    2b0a:	48 8d af a0 00 00 00 	lea    0xa0(%rdi),%rbp
    2b11:	53                   	push   %rbx
    2b12:	48 89 fb             	mov    %rdi,%rbx
    2b15:	0f 1f 00             	nopl   (%rax)
    2b18:	41 0f b7 03          	movzwl (%r11),%eax
    2b1c:	41 0f b7 4b 08       	movzwl 0x8(%r11),%ecx
    2b21:	41 0f b7 73 0c       	movzwl 0xc(%r11),%esi
    2b26:	45 0f b7 63 0e       	movzwl 0xe(%r11),%r12d
    2b2b:	41 89 c2             	mov    %eax,%r10d
    2b2e:	66 41 c1 fa 0f       	sar    $0xf,%r10w
    2b33:	66 41 81 e2 01 0d    	and    $0xd01,%r10w
    2b39:	41 01 c2             	add    %eax,%r10d
    2b3c:	41 0f b7 43 02       	movzwl 0x2(%r11),%eax
    2b41:	45 0f bf d2          	movswl %r10w,%r10d
    2b45:	89 c2                	mov    %eax,%edx
    2b47:	41 c1 e2 05          	shl    $0x5,%r10d
    2b4b:	66 c1 fa 0f          	sar    $0xf,%dx
    2b4f:	41 81 c2 80 06 00 00 	add    $0x680,%r10d
    2b56:	66 81 e2 01 0d       	and    $0xd01,%dx
    2b5b:	45 69 d2 7e 9d 00 00 	imul   $0x9d7e,%r10d,%r10d
    2b62:	01 c2                	add    %eax,%edx
    2b64:	41 0f b7 43 04       	movzwl 0x4(%r11),%eax
    2b69:	0f bf d2             	movswl %dx,%edx
    2b6c:	41 89 c1             	mov    %eax,%r9d
    2b6f:	c1 e2 05             	shl    $0x5,%edx
    2b72:	66 41 c1 f9 0f       	sar    $0xf,%r9w
    2b77:	81 c2 80 06 00 00    	add    $0x680,%edx
    2b7d:	66 41 81 e1 01 0d    	and    $0xd01,%r9w
    2b83:	69 d2 7e 9d 00 00    	imul   $0x9d7e,%edx,%edx
    2b89:	41 01 c1             	add    %eax,%r9d
    2b8c:	41 0f b7 43 06       	movzwl 0x6(%r11),%eax
    2b91:	45 0f bf c9          	movswl %r9w,%r9d
    2b95:	41 c1 e1 05          	shl    $0x5,%r9d
    2b99:	89 c7                	mov    %eax,%edi
    2b9b:	c1 ea 1b             	shr    $0x1b,%edx
    2b9e:	66 c1 ff 0f          	sar    $0xf,%di
    2ba2:	41 81 c1 80 06 00 00 	add    $0x680,%r9d
    2ba9:	66 81 e7 01 0d       	and    $0xd01,%di
    2bae:	45 69 c9 7e 9d 00 00 	imul   $0x9d7e,%r9d,%r9d
    2bb5:	01 c7                	add    %eax,%edi
    2bb7:	89 c8                	mov    %ecx,%eax
    2bb9:	66 c1 f8 0f          	sar    $0xf,%ax
    2bbd:	0f bf ff             	movswl %di,%edi
    2bc0:	66 25 01 0d          	and    $0xd01,%ax
    2bc4:	c1 e7 05             	shl    $0x5,%edi
    2bc7:	01 c8                	add    %ecx,%eax
    2bc9:	81 c7 80 06 00 00    	add    $0x680,%edi
    2bcf:	41 0f b7 4b 0a       	movzwl 0xa(%r11),%ecx
    2bd4:	98                   	cwtl   
    2bd5:	69 ff 7e 9d 00 00    	imul   $0x9d7e,%edi,%edi
    2bdb:	c1 e0 05             	shl    $0x5,%eax
    2bde:	41 89 c8             	mov    %ecx,%r8d
    2be1:	05 80 06 00 00       	add    $0x680,%eax
    2be6:	69 c0 7e 9d 00 00    	imul   $0x9d7e,%eax,%eax
    2bec:	c1 ef 1b             	shr    $0x1b,%edi
    2bef:	c1 e8 1b             	shr    $0x1b,%eax
    2bf2:	66 41 c1 f8 0f       	sar    $0xf,%r8w
    2bf7:	41 c1 e9 1b          	shr    $0x1b,%r9d
    2bfb:	66 41 81 e0 01 0d    	and    $0xd01,%r8w
    2c01:	41 c1 ea 1b          	shr    $0x1b,%r10d
    2c05:	41 01 c8             	add    %ecx,%r8d
    2c08:	89 f1                	mov    %esi,%ecx
    2c0a:	41 c1 e1 02          	shl    $0x2,%r9d
    2c0e:	66 c1 f9 0f          	sar    $0xf,%cx
    2c12:	45 0f bf c0          	movswl %r8w,%r8d
    2c16:	66 81 e1 01 0d       	and    $0xd01,%cx
    2c1b:	41 c1 e0 05          	shl    $0x5,%r8d
    2c1f:	01 f1                	add    %esi,%ecx
    2c21:	44 89 e6             	mov    %r12d,%esi
    2c24:	41 81 c0 80 06 00 00 	add    $0x680,%r8d
    2c2b:	66 c1 fe 0f          	sar    $0xf,%si
    2c2f:	45 69 c0 7e 9d 00 00 	imul   $0x9d7e,%r8d,%r8d
    2c36:	0f bf c9             	movswl %cx,%ecx
    2c39:	66 81 e6 01 0d       	and    $0xd01,%si
    2c3e:	c1 e1 05             	shl    $0x5,%ecx
    2c41:	44 01 e6             	add    %r12d,%esi
    2c44:	41 89 d4             	mov    %edx,%r12d
    2c47:	c0 ea 03             	shr    $0x3,%dl
    2c4a:	81 c1 80 06 00 00    	add    $0x680,%ecx
    2c50:	44 09 ca             	or     %r9d,%edx
    2c53:	0f bf f6             	movswl %si,%esi
    2c56:	41 89 f9             	mov    %edi,%r9d
    2c59:	41 c1 e4 05          	shl    $0x5,%r12d
    2c5d:	c1 e6 05             	shl    $0x5,%esi
    2c60:	41 c1 e1 07          	shl    $0x7,%r9d
    2c64:	69 c9 7e 9d 00 00    	imul   $0x9d7e,%ecx,%ecx
    2c6a:	45 09 e2             	or     %r12d,%r10d
    2c6d:	44 09 ca             	or     %r9d,%edx
    2c70:	81 c6 80 06 00 00    	add    $0x680,%esi
    2c76:	40 d0 ef             	shr    %dil
    2c79:	44 88 13             	mov    %r10b,(%rbx)
    2c7c:	69 f6 7e 9d 00 00    	imul   $0x9d7e,%esi,%esi
    2c82:	88 53 01             	mov    %dl,0x1(%rbx)
    2c85:	89 c2                	mov    %eax,%edx
    2c87:	c1 e2 04             	shl    $0x4,%edx
    2c8a:	c1 e9 1b             	shr    $0x1b,%ecx
    2c8d:	09 d7                	or     %edx,%edi
    2c8f:	41 c1 e8 1b          	shr    $0x1b,%r8d
    2c93:	89 ca                	mov    %ecx,%edx
    2c95:	48 83 c3 05          	add    $0x5,%rbx
    2c99:	45 01 c0             	add    %r8d,%r8d
    2c9c:	c0 e8 04             	shr    $0x4,%al
    2c9f:	40 88 7b fd          	mov    %dil,-0x3(%rbx)
    2ca3:	49 83 c3 10          	add    $0x10,%r11
    2ca7:	c1 ee 1b             	shr    $0x1b,%esi
    2caa:	44 09 c0             	or     %r8d,%eax
    2cad:	c1 e2 06             	shl    $0x6,%edx
    2cb0:	c1 e6 03             	shl    $0x3,%esi
    2cb3:	c0 e9 02             	shr    $0x2,%cl
    2cb6:	09 d0                	or     %edx,%eax
    2cb8:	09 f1                	or     %esi,%ecx
    2cba:	88 43 fe             	mov    %al,-0x2(%rbx)
    2cbd:	88 4b ff             	mov    %cl,-0x1(%rbx)
    2cc0:	48 39 eb             	cmp    %rbp,%rbx
    2cc3:	0f 85 4f fe ff ff    	jne    2b18 <pqcrystals_kyber1024_ref_poly_compress+0x18>
    2cc9:	5b                   	pop    %rbx
    2cca:	5d                   	pop    %rbp
    2ccb:	41 5c                	pop    %r12
    2ccd:	c3                   	ret    
    2cce:	66 90                	xchg   %ax,%ax

0000000000002cd0 <pqcrystals_kyber1024_ref_poly_decompress>:
    2cd0:	f3 0f 1e fa          	endbr64 
    2cd4:	53                   	push   %rbx
    2cd5:	48 89 f1             	mov    %rsi,%rcx
    2cd8:	48 89 fe             	mov    %rdi,%rsi
    2cdb:	48 8d b9 a0 00 00 00 	lea    0xa0(%rcx),%rdi
    2ce2:	66 0f 1f 44 00 00    	nopw   0x0(%rax,%rax,1)
    2ce8:	44 0f b6 19          	movzbl (%rcx),%r11d
    2cec:	44 0f b6 51 01       	movzbl 0x1(%rcx),%r10d
    2cf1:	48 83 c1 05          	add    $0x5,%rcx
    2cf5:	44 0f b6 49 fd       	movzbl -0x3(%rcx),%r9d
    2cfa:	44 0f b6 41 fe       	movzbl -0x2(%rcx),%r8d
    2cff:	44 89 d8             	mov    %r11d,%eax
    2d02:	41 c0 eb 05          	shr    $0x5,%r11b
    2d06:	44 89 d3             	mov    %r10d,%ebx
    2d09:	0f b6 51 ff          	movzbl -0x1(%rcx),%edx
    2d0d:	83 e0 1f             	and    $0x1f,%eax
    2d10:	c0 eb 07             	shr    $0x7,%bl
    2d13:	69 c0 01 0d 00 00    	imul   $0xd01,%eax,%eax
    2d19:	83 c0 10             	add    $0x10,%eax
    2d1c:	c1 e8 05             	shr    $0x5,%eax
    2d1f:	66 0f 6e c0          	movd   %eax,%xmm0
    2d23:	42 8d 04 d5 00 00 00 	lea    0x0(,%r10,8),%eax
    2d2a:	00 
    2d2b:	44 09 d8             	or     %r11d,%eax
    2d2e:	83 e0 1f             	and    $0x1f,%eax
    2d31:	69 c0 01 0d 00 00    	imul   $0xd01,%eax,%eax
    2d37:	83 c0 10             	add    $0x10,%eax
    2d3a:	c1 e8 05             	shr    $0x5,%eax
    2d3d:	41 89 c3             	mov    %eax,%r11d
    2d40:	44 89 d0             	mov    %r10d,%eax
    2d43:	47 8d 14 09          	lea    (%r9,%r9,1),%r10d
    2d47:	41 c0 e9 04          	shr    $0x4,%r9b
    2d4b:	c0 e8 02             	shr    $0x2,%al
    2d4e:	41 09 da             	or     %ebx,%r10d
    2d51:	66 41 0f 6e e3       	movd   %r11d,%xmm4
    2d56:	83 e0 1f             	and    $0x1f,%eax
    2d59:	41 83 e2 1f          	and    $0x1f,%r10d
    2d5d:	66 0f 62 c4          	punpckldq %xmm4,%xmm0
    2d61:	69 c0 01 0d 00 00    	imul   $0xd01,%eax,%eax
    2d67:	45 69 d2 01 0d 00 00 	imul   $0xd01,%r10d,%r10d
    2d6e:	83 c0 10             	add    $0x10,%eax
    2d71:	c1 e8 05             	shr    $0x5,%eax
    2d74:	41 83 c2 10          	add    $0x10,%r10d
    2d78:	66 0f 6e c8          	movd   %eax,%xmm1
    2d7c:	44 89 c0             	mov    %r8d,%eax
    2d7f:	41 c1 ea 05          	shr    $0x5,%r10d
    2d83:	c1 e0 04             	shl    $0x4,%eax
    2d86:	66 41 0f 6e da       	movd   %r10d,%xmm3
    2d8b:	44 09 c8             	or     %r9d,%eax
    2d8e:	66 0f 62 cb          	punpckldq %xmm3,%xmm1
    2d92:	83 e0 1f             	and    $0x1f,%eax
    2d95:	66 0f 6c c1          	punpcklqdq %xmm1,%xmm0
    2d99:	69 c0 01 0d 00 00    	imul   $0xd01,%eax,%eax
    2d9f:	83 c0 10             	add    $0x10,%eax
    2da2:	c1 e8 05             	shr    $0x5,%eax
    2da5:	66 0f 6e c8          	movd   %eax,%xmm1
    2da9:	44 89 c0             	mov    %r8d,%eax
    2dac:	d0 e8                	shr    %al
    2dae:	83 e0 1f             	and    $0x1f,%eax
    2db1:	69 c0 01 0d 00 00    	imul   $0xd01,%eax,%eax
    2db7:	83 c0 10             	add    $0x10,%eax
    2dba:	41 c0 e8 06          	shr    $0x6,%r8b
    2dbe:	48 83 c6 10          	add    $0x10,%rsi
    2dc2:	c1 e8 05             	shr    $0x5,%eax
    2dc5:	41 89 c1             	mov    %eax,%r9d
    2dc8:	8d 04 95 00 00 00 00 	lea    0x0(,%rdx,4),%eax
    2dcf:	c0 ea 03             	shr    $0x3,%dl
    2dd2:	44 09 c0             	or     %r8d,%eax
    2dd5:	0f b6 d2             	movzbl %dl,%edx
    2dd8:	66 41 0f 6e f1       	movd   %r9d,%xmm6
    2ddd:	83 e0 1f             	and    $0x1f,%eax
    2de0:	69 d2 01 0d 00 00    	imul   $0xd01,%edx,%edx
    2de6:	66 0f 62 ce          	punpckldq %xmm6,%xmm1
    2dea:	69 c0 01 0d 00 00    	imul   $0xd01,%eax,%eax
    2df0:	83 c2 10             	add    $0x10,%edx
    2df3:	83 c0 10             	add    $0x10,%eax
    2df6:	c1 ea 05             	shr    $0x5,%edx
    2df9:	c1 e8 05             	shr    $0x5,%eax
    2dfc:	66 0f 6e ea          	movd   %edx,%xmm5
    2e00:	66 0f 6e d0          	movd   %eax,%xmm2
    2e04:	66 0f 62 d5          	punpckldq %xmm5,%xmm2
    2e08:	66 0f 6c ca          	punpcklqdq %xmm2,%xmm1
    2e0c:	66 0f 6f d0          	movdqa %xmm0,%xmm2
    2e10:	66 0f 61 c1          	punpcklwd %xmm1,%xmm0
    2e14:	66 0f 69 d1          	punpckhwd %xmm1,%xmm2
    2e18:	66 0f 6f c8          	movdqa %xmm0,%xmm1
    2e1c:	66 0f 61 c2          	punpcklwd %xmm2,%xmm0
    2e20:	66 0f 69 ca          	punpckhwd %xmm2,%xmm1
    2e24:	66 0f 61 c1          	punpcklwd %xmm1,%xmm0
    2e28:	0f 11 46 f0          	movups %xmm0,-0x10(%rsi)
    2e2c:	48 39 f9             	cmp    %rdi,%rcx
    2e2f:	0f 85 b3 fe ff ff    	jne    2ce8 <pqcrystals_kyber1024_ref_poly_decompress+0x18>
    2e35:	5b                   	pop    %rbx
    2e36:	c3                   	ret    
    2e37:	66 0f 1f 84 00 00 00 	nopw   0x0(%rax,%rax,1)
    2e3e:	00 00 

0000000000002e40 <pqcrystals_kyber1024_ref_poly_tobytes>:
    2e40:	f3 0f 1e fa          	endbr64 
    2e44:	48 89 f1             	mov    %rsi,%rcx
    2e47:	4c 8d 87 80 01 00 00 	lea    0x180(%rdi),%r8
    2e4e:	66 90                	xchg   %ax,%ax
    2e50:	0f b7 01             	movzwl (%rcx),%eax
    2e53:	0f b7 71 02          	movzwl 0x2(%rcx),%esi
    2e57:	48 83 c7 03          	add    $0x3,%rdi
    2e5b:	48 83 c1 04          	add    $0x4,%rcx
    2e5f:	89 c2                	mov    %eax,%edx
    2e61:	66 c1 fa 0f          	sar    $0xf,%dx
    2e65:	66 81 e2 01 0d       	and    $0xd01,%dx
    2e6a:	01 c2                	add    %eax,%edx
    2e6c:	89 f0                	mov    %esi,%eax
    2e6e:	66 c1 f8 0f          	sar    $0xf,%ax
    2e72:	88 57 fd             	mov    %dl,-0x3(%rdi)
    2e75:	66 c1 ea 08          	shr    $0x8,%dx
    2e79:	66 25 01 0d          	and    $0xd01,%ax
    2e7d:	01 f0                	add    %esi,%eax
    2e7f:	89 c6                	mov    %eax,%esi
    2e81:	66 c1 e8 04          	shr    $0x4,%ax
    2e85:	c1 e6 04             	shl    $0x4,%esi
    2e88:	88 47 ff             	mov    %al,-0x1(%rdi)
    2e8b:	09 f2                	or     %esi,%edx
    2e8d:	88 57 fe             	mov    %dl,-0x2(%rdi)
    2e90:	49 39 f8             	cmp    %rdi,%r8
    2e93:	75 bb                	jne    2e50 <pqcrystals_kyber1024_ref_poly_tobytes+0x10>
    2e95:	c3                   	ret    
    2e96:	66 2e 0f 1f 84 00 00 	cs nopw 0x0(%rax,%rax,1)
    2e9d:	00 00 00 

0000000000002ea0 <pqcrystals_kyber1024_ref_poly_frombytes>:
    2ea0:	f3 0f 1e fa          	endbr64 
    2ea4:	48 8d 8e 80 01 00 00 	lea    0x180(%rsi),%rcx
    2eab:	0f 1f 44 00 00       	nopl   0x0(%rax,%rax,1)
    2eb0:	0f b6 56 01          	movzbl 0x1(%rsi),%edx
    2eb4:	0f b6 06             	movzbl (%rsi),%eax
    2eb7:	48 83 c6 03          	add    $0x3,%rsi
    2ebb:	48 83 c7 04          	add    $0x4,%rdi
    2ebf:	c1 e2 08             	shl    $0x8,%edx
    2ec2:	09 d0                	or     %edx,%eax
    2ec4:	66 25 ff 0f          	and    $0xfff,%ax
    2ec8:	66 89 47 fc          	mov    %ax,-0x4(%rdi)
    2ecc:	0f b6 46 fe          	movzbl -0x2(%rsi),%eax
    2ed0:	0f b6 56 ff          	movzbl -0x1(%rsi),%edx
    2ed4:	c0 e8 04             	shr    $0x4,%al
    2ed7:	0f b6 c0             	movzbl %al,%eax
    2eda:	c1 e2 04             	shl    $0x4,%edx
    2edd:	09 d0                	or     %edx,%eax
    2edf:	66 89 47 fe          	mov    %ax,-0x2(%rdi)
    2ee3:	48 39 f1             	cmp    %rsi,%rcx
    2ee6:	75 c8                	jne    2eb0 <pqcrystals_kyber1024_ref_poly_frombytes+0x10>
    2ee8:	c3                   	ret    
    2ee9:	0f 1f 80 00 00 00 00 	nopl   0x0(%rax)

0000000000002ef0 <pqcrystals_kyber1024_ref_poly_frommsg>:
    2ef0:	f3 0f 1e fa          	endbr64 
    2ef4:	48 8d 4e 20          	lea    0x20(%rsi),%rcx
    2ef8:	48 89 f8             	mov    %rdi,%rax
    2efb:	48 89 f2             	mov    %rsi,%rdx
    2efe:	48 39 cf             	cmp    %rcx,%rdi
    2f01:	73 10                	jae    2f13 <pqcrystals_kyber1024_ref_poly_frommsg+0x23>
    2f03:	48 8d bf 00 02 00 00 	lea    0x200(%rdi),%rdi
    2f0a:	48 39 fe             	cmp    %rdi,%rsi
    2f0d:	0f 82 cd 07 00 00    	jb     36e0 <pqcrystals_kyber1024_ref_poly_frommsg+0x7f0>
    2f13:	66 0f 6f 2d 05 81 00 	movdqa 0x8105(%rip),%xmm5        # b020 <_IO_stdin_used+0x20>
    2f1a:	00 
    2f1b:	66 0f ef e4          	pxor   %xmm4,%xmm4
    2f1f:	66 0f ef c9          	pxor   %xmm1,%xmm1
    2f23:	f3 0f 6f 02          	movdqu (%rdx),%xmm0
    2f27:	66 44 0f 6f d9       	movdqa %xmm1,%xmm11
    2f2c:	66 44 0f 6f e1       	movdqa %xmm1,%xmm12
    2f31:	66 0f 6f 15 d7 80 00 	movdqa 0x80d7(%rip),%xmm2        # b010 <_IO_stdin_used+0x10>
    2f38:	00 
    2f39:	66 44 0f 6f c9       	movdqa %xmm1,%xmm9
    2f3e:	66 44 0f 6f d1       	movdqa %xmm1,%xmm10
    2f43:	66 0f 6f f9          	movdqa %xmm1,%xmm7
    2f47:	48 83 c2 10          	add    $0x10,%rdx
    2f4b:	66 0f db d0          	pand   %xmm0,%xmm2
    2f4f:	66 44 0f 6f e8       	movdqa %xmm0,%xmm13
    2f54:	66 44 0f 6f c1       	movdqa %xmm1,%xmm8
    2f59:	48 05 00 01 00 00    	add    $0x100,%rax
    2f5f:	66 0f 6f da          	movdqa %xmm2,%xmm3
    2f63:	66 0f 68 d4          	punpckhbw %xmm4,%xmm2
    2f67:	66 0f 6f f1          	movdqa %xmm1,%xmm6
    2f6b:	66 44 0f f9 da       	psubw  %xmm2,%xmm11
    2f70:	66 0f 6f d0          	movdqa %xmm0,%xmm2
    2f74:	66 0f 60 dc          	punpcklbw %xmm4,%xmm3
    2f78:	66 0f 71 d2 01       	psrlw  $0x1,%xmm2
    2f7d:	66 44 0f f9 e3       	psubw  %xmm3,%xmm12
    2f82:	66 44 0f db dd       	pand   %xmm5,%xmm11
    2f87:	66 0f db 15 a1 80 00 	pand   0x80a1(%rip),%xmm2        # b030 <_IO_stdin_used+0x30>
    2f8e:	00 
    2f8f:	66 0f db 15 79 80 00 	pand   0x8079(%rip),%xmm2        # b010 <_IO_stdin_used+0x10>
    2f96:	00 
    2f97:	66 44 0f db e5       	pand   %xmm5,%xmm12
    2f9c:	66 41 0f c5 f4 00    	pextrw $0x0,%xmm12,%esi
    2fa2:	66 41 0f 71 d5 04    	psrlw  $0x4,%xmm13
    2fa8:	66 44 0f db 2d af 80 	pand   0x80af(%rip),%xmm13        # b060 <_IO_stdin_used+0x60>
    2faf:	00 00 
    2fb1:	66 0f 6f da          	movdqa %xmm2,%xmm3
    2fb5:	66 0f 68 d4          	punpckhbw %xmm4,%xmm2
    2fb9:	66 89 b0 00 ff ff ff 	mov    %si,-0x100(%rax)
    2fc0:	66 41 0f c5 f4 01    	pextrw $0x1,%xmm12,%esi
    2fc6:	66 44 0f f9 ca       	psubw  %xmm2,%xmm9
    2fcb:	66 0f 6f d0          	movdqa %xmm0,%xmm2
    2fcf:	66 0f 60 dc          	punpcklbw %xmm4,%xmm3
    2fd3:	66 89 b0 10 ff ff ff 	mov    %si,-0xf0(%rax)
    2fda:	66 0f 71 d2 02       	psrlw  $0x2,%xmm2
    2fdf:	66 44 0f f9 d3       	psubw  %xmm3,%xmm10
    2fe4:	66 0f db 15 54 80 00 	pand   0x8054(%rip),%xmm2        # b040 <_IO_stdin_used+0x40>
    2feb:	00 
    2fec:	66 41 0f c5 f4 02    	pextrw $0x2,%xmm12,%esi
    2ff2:	66 44 0f db d5       	pand   %xmm5,%xmm10
    2ff7:	66 44 0f db cd       	pand   %xmm5,%xmm9
    2ffc:	66 0f db 15 0c 80 00 	pand   0x800c(%rip),%xmm2        # b010 <_IO_stdin_used+0x10>
    3003:	00 
    3004:	66 89 b0 20 ff ff ff 	mov    %si,-0xe0(%rax)
    300b:	66 41 0f c5 f4 03    	pextrw $0x3,%xmm12,%esi
    3011:	66 44 0f db 2d f6 7f 	pand   0x7ff6(%rip),%xmm13        # b010 <_IO_stdin_used+0x10>
    3018:	00 00 
    301a:	66 89 b0 30 ff ff ff 	mov    %si,-0xd0(%rax)
    3021:	66 41 0f c5 f4 04    	pextrw $0x4,%xmm12,%esi
    3027:	66 0f 6f da          	movdqa %xmm2,%xmm3
    302b:	66 0f 68 d4          	punpckhbw %xmm4,%xmm2
    302f:	66 89 b0 40 ff ff ff 	mov    %si,-0xc0(%rax)
    3036:	66 41 0f c5 f4 05    	pextrw $0x5,%xmm12,%esi
    303c:	66 0f f9 fa          	psubw  %xmm2,%xmm7
    3040:	66 0f 6f d0          	movdqa %xmm0,%xmm2
    3044:	66 0f 60 dc          	punpcklbw %xmm4,%xmm3
    3048:	66 89 b0 50 ff ff ff 	mov    %si,-0xb0(%rax)
    304f:	66 0f 71 d2 03       	psrlw  $0x3,%xmm2
    3054:	66 44 0f f9 c3       	psubw  %xmm3,%xmm8
    3059:	66 0f db fd          	pand   %xmm5,%xmm7
    305d:	66 45 0f 6f f5       	movdqa %xmm13,%xmm14
    3062:	66 41 0f c5 f4 06    	pextrw $0x6,%xmm12,%esi
    3068:	66 44 0f 68 ec       	punpckhbw %xmm4,%xmm13
    306d:	66 0f db 15 db 7f 00 	pand   0x7fdb(%rip),%xmm2        # b050 <_IO_stdin_used+0x50>
    3074:	00 
    3075:	66 44 0f 60 f4       	punpcklbw %xmm4,%xmm14
    307a:	66 44 0f db c5       	pand   %xmm5,%xmm8
    307f:	66 89 b0 60 ff ff ff 	mov    %si,-0xa0(%rax)
    3086:	66 0f db 15 82 7f 00 	pand   0x7f82(%rip),%xmm2        # b010 <_IO_stdin_used+0x10>
    308d:	00 
    308e:	66 41 0f c5 f4 07    	pextrw $0x7,%xmm12,%esi
    3094:	66 89 b0 70 ff ff ff 	mov    %si,-0x90(%rax)
    309b:	66 41 0f c5 f3 00    	pextrw $0x0,%xmm11,%esi
    30a1:	66 0f 6f da          	movdqa %xmm2,%xmm3
    30a5:	66 0f 68 d4          	punpckhbw %xmm4,%xmm2
    30a9:	66 89 70 80          	mov    %si,-0x80(%rax)
    30ad:	66 41 0f c5 f3 01    	pextrw $0x1,%xmm11,%esi
    30b3:	66 0f 60 dc          	punpcklbw %xmm4,%xmm3
    30b7:	66 89 70 90          	mov    %si,-0x70(%rax)
    30bb:	66 41 0f c5 f3 02    	pextrw $0x2,%xmm11,%esi
    30c1:	66 0f f9 f3          	psubw  %xmm3,%xmm6
    30c5:	66 0f 6f d9          	movdqa %xmm1,%xmm3
    30c9:	66 89 70 a0          	mov    %si,-0x60(%rax)
    30cd:	66 41 0f c5 f3 03    	pextrw $0x3,%xmm11,%esi
    30d3:	66 0f f9 da          	psubw  %xmm2,%xmm3
    30d7:	66 0f 6f d1          	movdqa %xmm1,%xmm2
    30db:	66 89 70 b0          	mov    %si,-0x50(%rax)
    30df:	66 0f db f5          	pand   %xmm5,%xmm6
    30e3:	66 41 0f f9 d6       	psubw  %xmm14,%xmm2
    30e8:	66 44 0f 6f f1       	movdqa %xmm1,%xmm14
    30ed:	66 41 0f c5 f3 04    	pextrw $0x4,%xmm11,%esi
    30f3:	66 45 0f f9 f5       	psubw  %xmm13,%xmm14
    30f8:	66 89 70 c0          	mov    %si,-0x40(%rax)
    30fc:	66 0f db dd          	pand   %xmm5,%xmm3
    3100:	66 0f db d5          	pand   %xmm5,%xmm2
    3104:	66 44 0f 6f e8       	movdqa %xmm0,%xmm13
    3109:	66 44 0f db f5       	pand   %xmm5,%xmm14
    310e:	66 41 0f c5 f3 05    	pextrw $0x5,%xmm11,%esi
    3114:	66 41 0f 71 d5 05    	psrlw  $0x5,%xmm13
    311a:	44 0f 29 74 24 d8    	movaps %xmm14,-0x28(%rsp)
    3120:	66 44 0f 6f f1       	movdqa %xmm1,%xmm14
    3125:	66 44 0f db 2d 42 7f 	pand   0x7f42(%rip),%xmm13        # b070 <_IO_stdin_used+0x70>
    312c:	00 00 
    312e:	66 44 0f db 2d d9 7e 	pand   0x7ed9(%rip),%xmm13        # b010 <_IO_stdin_used+0x10>
    3135:	00 00 
    3137:	66 89 70 d0          	mov    %si,-0x30(%rax)
    313b:	66 41 0f c5 f3 06    	pextrw $0x6,%xmm11,%esi
    3141:	66 89 70 e0          	mov    %si,-0x20(%rax)
    3145:	66 41 0f c5 f3 07    	pextrw $0x7,%xmm11,%esi
    314b:	66 0f 71 d0 06       	psrlw  $0x6,%xmm0
    3150:	66 0f db 05 28 7f 00 	pand   0x7f28(%rip),%xmm0        # b080 <_IO_stdin_used+0x80>
    3157:	00 
    3158:	66 45 0f 6f fd       	movdqa %xmm13,%xmm15
    315d:	66 44 0f 68 ec       	punpckhbw %xmm4,%xmm13
    3162:	66 89 70 f0          	mov    %si,-0x10(%rax)
    3166:	66 41 0f c5 f2 00    	pextrw $0x0,%xmm10,%esi
    316c:	66 44 0f 60 fc       	punpcklbw %xmm4,%xmm15
    3171:	66 0f db 05 97 7e 00 	pand   0x7e97(%rip),%xmm0        # b010 <_IO_stdin_used+0x10>
    3178:	00 
    3179:	66 45 0f f9 f7       	psubw  %xmm15,%xmm14
    317e:	66 45 0f 6f fe       	movdqa %xmm14,%xmm15
    3183:	66 44 0f 6f f1       	movdqa %xmm1,%xmm14
    3188:	66 45 0f f9 f5       	psubw  %xmm13,%xmm14
    318d:	66 44 0f db fd       	pand   %xmm5,%xmm15
    3192:	66 44 0f 6f e8       	movdqa %xmm0,%xmm13
    3197:	66 44 0f db f5       	pand   %xmm5,%xmm14
    319c:	66 44 0f 60 ec       	punpcklbw %xmm4,%xmm13
    31a1:	66 0f 68 c4          	punpckhbw %xmm4,%xmm0
    31a5:	44 0f 29 74 24 e8    	movaps %xmm14,-0x18(%rsp)
    31ab:	66 44 0f 6f f1       	movdqa %xmm1,%xmm14
    31b0:	66 89 b0 02 ff ff ff 	mov    %si,-0xfe(%rax)
    31b7:	66 41 0f c5 f2 01    	pextrw $0x1,%xmm10,%esi
    31bd:	66 45 0f f9 f5       	psubw  %xmm13,%xmm14
    31c2:	66 44 0f 6f e9       	movdqa %xmm1,%xmm13
    31c7:	66 89 b0 12 ff ff ff 	mov    %si,-0xee(%rax)
    31ce:	66 41 0f c5 f2 02    	pextrw $0x2,%xmm10,%esi
    31d4:	66 44 0f db f5       	pand   %xmm5,%xmm14
    31d9:	66 44 0f f9 e8       	psubw  %xmm0,%xmm13
    31de:	66 89 b0 22 ff ff ff 	mov    %si,-0xde(%rax)
    31e5:	66 41 0f c5 f2 03    	pextrw $0x3,%xmm10,%esi
    31eb:	66 44 0f db ed       	pand   %xmm5,%xmm13
    31f0:	66 89 b0 32 ff ff ff 	mov    %si,-0xce(%rax)
    31f7:	66 41 0f c5 f2 04    	pextrw $0x4,%xmm10,%esi
    31fd:	66 89 b0 42 ff ff ff 	mov    %si,-0xbe(%rax)
    3204:	66 41 0f c5 f2 05    	pextrw $0x5,%xmm10,%esi
    320a:	66 89 b0 52 ff ff ff 	mov    %si,-0xae(%rax)
    3211:	66 41 0f c5 f2 06    	pextrw $0x6,%xmm10,%esi
    3217:	66 89 b0 62 ff ff ff 	mov    %si,-0x9e(%rax)
    321e:	66 41 0f c5 f2 07    	pextrw $0x7,%xmm10,%esi
    3224:	66 89 b0 72 ff ff ff 	mov    %si,-0x8e(%rax)
    322b:	66 41 0f c5 f1 00    	pextrw $0x0,%xmm9,%esi
    3231:	66 89 70 82          	mov    %si,-0x7e(%rax)
    3235:	66 41 0f c5 f1 01    	pextrw $0x1,%xmm9,%esi
    323b:	66 89 70 92          	mov    %si,-0x6e(%rax)
    323f:	66 41 0f c5 f1 02    	pextrw $0x2,%xmm9,%esi
    3245:	66 89 70 a2          	mov    %si,-0x5e(%rax)
    3249:	66 41 0f c5 f1 03    	pextrw $0x3,%xmm9,%esi
    324f:	66 89 70 b2          	mov    %si,-0x4e(%rax)
    3253:	66 41 0f c5 f1 04    	pextrw $0x4,%xmm9,%esi
    3259:	66 89 70 c2          	mov    %si,-0x3e(%rax)
    325d:	66 41 0f c5 f1 05    	pextrw $0x5,%xmm9,%esi
    3263:	66 89 70 d2          	mov    %si,-0x2e(%rax)
    3267:	66 41 0f c5 f1 06    	pextrw $0x6,%xmm9,%esi
    326d:	66 89 70 e2          	mov    %si,-0x1e(%rax)
    3271:	66 41 0f c5 f1 07    	pextrw $0x7,%xmm9,%esi
    3277:	66 89 70 f2          	mov    %si,-0xe(%rax)
    327b:	66 41 0f c5 f0 00    	pextrw $0x0,%xmm8,%esi
    3281:	66 89 b0 04 ff ff ff 	mov    %si,-0xfc(%rax)
    3288:	66 41 0f c5 f0 01    	pextrw $0x1,%xmm8,%esi
    328e:	66 89 b0 14 ff ff ff 	mov    %si,-0xec(%rax)
    3295:	66 41 0f c5 f0 02    	pextrw $0x2,%xmm8,%esi
    329b:	66 89 b0 24 ff ff ff 	mov    %si,-0xdc(%rax)
    32a2:	66 41 0f c5 f0 03    	pextrw $0x3,%xmm8,%esi
    32a8:	66 89 b0 34 ff ff ff 	mov    %si,-0xcc(%rax)
    32af:	66 41 0f c5 f0 04    	pextrw $0x4,%xmm8,%esi
    32b5:	66 89 b0 44 ff ff ff 	mov    %si,-0xbc(%rax)
    32bc:	66 41 0f c5 f0 05    	pextrw $0x5,%xmm8,%esi
    32c2:	66 89 b0 54 ff ff ff 	mov    %si,-0xac(%rax)
    32c9:	66 41 0f c5 f0 06    	pextrw $0x6,%xmm8,%esi
    32cf:	66 89 b0 64 ff ff ff 	mov    %si,-0x9c(%rax)
    32d6:	66 41 0f c5 f0 07    	pextrw $0x7,%xmm8,%esi
    32dc:	66 89 b0 74 ff ff ff 	mov    %si,-0x8c(%rax)
    32e3:	66 0f c5 f7 00       	pextrw $0x0,%xmm7,%esi
    32e8:	66 89 70 84          	mov    %si,-0x7c(%rax)
    32ec:	66 0f c5 f7 01       	pextrw $0x1,%xmm7,%esi
    32f1:	66 89 70 94          	mov    %si,-0x6c(%rax)
    32f5:	66 0f c5 f7 02       	pextrw $0x2,%xmm7,%esi
    32fa:	66 89 70 a4          	mov    %si,-0x5c(%rax)
    32fe:	66 0f c5 f7 03       	pextrw $0x3,%xmm7,%esi
    3303:	66 89 70 b4          	mov    %si,-0x4c(%rax)
    3307:	66 0f c5 f7 04       	pextrw $0x4,%xmm7,%esi
    330c:	66 89 70 c4          	mov    %si,-0x3c(%rax)
    3310:	66 0f c5 f7 05       	pextrw $0x5,%xmm7,%esi
    3315:	66 89 70 d4          	mov    %si,-0x2c(%rax)
    3319:	66 0f c5 f7 06       	pextrw $0x6,%xmm7,%esi
    331e:	66 89 70 e4          	mov    %si,-0x1c(%rax)
    3322:	66 0f c5 f7 07       	pextrw $0x7,%xmm7,%esi
    3327:	66 89 70 f4          	mov    %si,-0xc(%rax)
    332b:	66 0f c5 f6 00       	pextrw $0x0,%xmm6,%esi
    3330:	66 89 b0 06 ff ff ff 	mov    %si,-0xfa(%rax)
    3337:	66 0f c5 f6 01       	pextrw $0x1,%xmm6,%esi
    333c:	66 89 b0 16 ff ff ff 	mov    %si,-0xea(%rax)
    3343:	66 0f c5 f6 02       	pextrw $0x2,%xmm6,%esi
    3348:	66 89 b0 26 ff ff ff 	mov    %si,-0xda(%rax)
    334f:	66 0f c5 f6 03       	pextrw $0x3,%xmm6,%esi
    3354:	66 89 b0 36 ff ff ff 	mov    %si,-0xca(%rax)
    335b:	66 0f c5 f6 04       	pextrw $0x4,%xmm6,%esi
    3360:	66 89 b0 46 ff ff ff 	mov    %si,-0xba(%rax)
    3367:	66 0f c5 f6 05       	pextrw $0x5,%xmm6,%esi
    336c:	66 89 b0 56 ff ff ff 	mov    %si,-0xaa(%rax)
    3373:	66 0f c5 f6 06       	pextrw $0x6,%xmm6,%esi
    3378:	66 89 b0 66 ff ff ff 	mov    %si,-0x9a(%rax)
    337f:	66 0f c5 f6 07       	pextrw $0x7,%xmm6,%esi
    3384:	66 0f 6f 74 24 d8    	movdqa -0x28(%rsp),%xmm6
    338a:	66 89 b0 76 ff ff ff 	mov    %si,-0x8a(%rax)
    3391:	66 0f c5 f3 00       	pextrw $0x0,%xmm3,%esi
    3396:	66 89 70 86          	mov    %si,-0x7a(%rax)
    339a:	66 0f c5 f3 01       	pextrw $0x1,%xmm3,%esi
    339f:	66 89 70 96          	mov    %si,-0x6a(%rax)
    33a3:	66 0f c5 f3 02       	pextrw $0x2,%xmm3,%esi
    33a8:	66 89 70 a6          	mov    %si,-0x5a(%rax)
    33ac:	66 0f c5 f3 03       	pextrw $0x3,%xmm3,%esi
    33b1:	66 89 70 b6          	mov    %si,-0x4a(%rax)
    33b5:	66 0f c5 f3 04       	pextrw $0x4,%xmm3,%esi
    33ba:	66 89 70 c6          	mov    %si,-0x3a(%rax)
    33be:	66 0f c5 f3 05       	pextrw $0x5,%xmm3,%esi
    33c3:	66 89 70 d6          	mov    %si,-0x2a(%rax)
    33c7:	66 0f c5 f3 06       	pextrw $0x6,%xmm3,%esi
    33cc:	66 89 70 e6          	mov    %si,-0x1a(%rax)
    33d0:	66 0f c5 f3 07       	pextrw $0x7,%xmm3,%esi
    33d5:	66 89 70 f6          	mov    %si,-0xa(%rax)
    33d9:	66 0f c5 f2 00       	pextrw $0x0,%xmm2,%esi
    33de:	66 89 b0 08 ff ff ff 	mov    %si,-0xf8(%rax)
    33e5:	66 0f c5 f2 01       	pextrw $0x1,%xmm2,%esi
    33ea:	66 89 b0 18 ff ff ff 	mov    %si,-0xe8(%rax)
    33f1:	66 0f c5 f2 02       	pextrw $0x2,%xmm2,%esi
    33f6:	66 89 b0 28 ff ff ff 	mov    %si,-0xd8(%rax)
    33fd:	66 0f c5 f2 03       	pextrw $0x3,%xmm2,%esi
    3402:	66 89 b0 38 ff ff ff 	mov    %si,-0xc8(%rax)
    3409:	66 0f c5 f2 04       	pextrw $0x4,%xmm2,%esi
    340e:	66 89 b0 48 ff ff ff 	mov    %si,-0xb8(%rax)
    3415:	66 0f c5 f2 05       	pextrw $0x5,%xmm2,%esi
    341a:	66 89 b0 58 ff ff ff 	mov    %si,-0xa8(%rax)
    3421:	66 0f c5 f2 06       	pextrw $0x6,%xmm2,%esi
    3426:	66 89 b0 68 ff ff ff 	mov    %si,-0x98(%rax)
    342d:	66 0f c5 f2 07       	pextrw $0x7,%xmm2,%esi
    3432:	66 0f 6f d1          	movdqa %xmm1,%xmm2
    3436:	66 89 b0 78 ff ff ff 	mov    %si,-0x88(%rax)
    343d:	66 0f c5 f6 00       	pextrw $0x0,%xmm6,%esi
    3442:	66 89 70 88          	mov    %si,-0x78(%rax)
    3446:	66 0f c5 f6 01       	pextrw $0x1,%xmm6,%esi
    344b:	66 89 70 98          	mov    %si,-0x68(%rax)
    344f:	66 0f c5 f6 02       	pextrw $0x2,%xmm6,%esi
    3454:	66 89 70 a8          	mov    %si,-0x58(%rax)
    3458:	66 0f c5 f6 03       	pextrw $0x3,%xmm6,%esi
    345d:	66 89 70 b8          	mov    %si,-0x48(%rax)
    3461:	66 0f c5 f6 04       	pextrw $0x4,%xmm6,%esi
    3466:	66 89 70 c8          	mov    %si,-0x38(%rax)
    346a:	66 0f c5 f6 05       	pextrw $0x5,%xmm6,%esi
    346f:	66 89 70 d8          	mov    %si,-0x28(%rax)
    3473:	66 0f c5 f6 06       	pextrw $0x6,%xmm6,%esi
    3478:	66 89 70 e8          	mov    %si,-0x18(%rax)
    347c:	66 0f c5 f6 07       	pextrw $0x7,%xmm6,%esi
    3481:	66 89 70 f8          	mov    %si,-0x8(%rax)
    3485:	66 41 0f c5 f7 00    	pextrw $0x0,%xmm15,%esi
    348b:	66 89 b0 0a ff ff ff 	mov    %si,-0xf6(%rax)
    3492:	66 41 0f c5 f7 01    	pextrw $0x1,%xmm15,%esi
    3498:	66 89 b0 1a ff ff ff 	mov    %si,-0xe6(%rax)
    349f:	66 41 0f c5 f7 02    	pextrw $0x2,%xmm15,%esi
    34a5:	66 0f 6f 7c 24 e8    	movdqa -0x18(%rsp),%xmm7
    34ab:	66 89 b0 2a ff ff ff 	mov    %si,-0xd6(%rax)
    34b2:	66 41 0f c5 f7 03    	pextrw $0x3,%xmm15,%esi
    34b8:	66 89 b0 3a ff ff ff 	mov    %si,-0xc6(%rax)
    34bf:	66 41 0f c5 f7 04    	pextrw $0x4,%xmm15,%esi
    34c5:	66 89 b0 4a ff ff ff 	mov    %si,-0xb6(%rax)
    34cc:	66 41 0f c5 f7 05    	pextrw $0x5,%xmm15,%esi
    34d2:	66 89 b0 5a ff ff ff 	mov    %si,-0xa6(%rax)
    34d9:	66 41 0f c5 f7 06    	pextrw $0x6,%xmm15,%esi
    34df:	66 89 b0 6a ff ff ff 	mov    %si,-0x96(%rax)
    34e6:	66 41 0f c5 f7 07    	pextrw $0x7,%xmm15,%esi
    34ec:	66 89 b0 7a ff ff ff 	mov    %si,-0x86(%rax)
    34f3:	66 0f c5 f7 00       	pextrw $0x0,%xmm7,%esi
    34f8:	66 89 70 8a          	mov    %si,-0x76(%rax)
    34fc:	66 0f c5 f7 01       	pextrw $0x1,%xmm7,%esi
    3501:	66 89 70 9a          	mov    %si,-0x66(%rax)
    3505:	66 0f c5 f7 02       	pextrw $0x2,%xmm7,%esi
    350a:	66 89 70 aa          	mov    %si,-0x56(%rax)
    350e:	66 0f c5 f7 03       	pextrw $0x3,%xmm7,%esi
    3513:	66 89 70 ba          	mov    %si,-0x46(%rax)
    3517:	66 0f c5 f7 04       	pextrw $0x4,%xmm7,%esi
    351c:	66 89 70 ca          	mov    %si,-0x36(%rax)
    3520:	66 0f c5 f7 05       	pextrw $0x5,%xmm7,%esi
    3525:	66 89 70 da          	mov    %si,-0x26(%rax)
    3529:	66 0f c5 f7 06       	pextrw $0x6,%xmm7,%esi
    352e:	66 89 70 ea          	mov    %si,-0x16(%rax)
    3532:	66 0f c5 f7 07       	pextrw $0x7,%xmm7,%esi
    3537:	66 89 70 fa          	mov    %si,-0x6(%rax)
    353b:	66 41 0f c5 f6 00    	pextrw $0x0,%xmm14,%esi
    3541:	66 89 b0 0c ff ff ff 	mov    %si,-0xf4(%rax)
    3548:	66 41 0f c5 f6 01    	pextrw $0x1,%xmm14,%esi
    354e:	66 89 b0 1c ff ff ff 	mov    %si,-0xe4(%rax)
    3555:	66 41 0f c5 f6 02    	pextrw $0x2,%xmm14,%esi
    355b:	66 89 b0 2c ff ff ff 	mov    %si,-0xd4(%rax)
    3562:	66 41 0f c5 f6 03    	pextrw $0x3,%xmm14,%esi
    3568:	66 89 b0 3c ff ff ff 	mov    %si,-0xc4(%rax)
    356f:	66 41 0f c5 f6 04    	pextrw $0x4,%xmm14,%esi
    3575:	66 89 b0 4c ff ff ff 	mov    %si,-0xb4(%rax)
    357c:	66 41 0f c5 f6 05    	pextrw $0x5,%xmm14,%esi
    3582:	66 89 b0 5c ff ff ff 	mov    %si,-0xa4(%rax)
    3589:	66 41 0f c5 f6 06    	pextrw $0x6,%xmm14,%esi
    358f:	66 89 b0 6c ff ff ff 	mov    %si,-0x94(%rax)
    3596:	66 41 0f c5 f6 07    	pextrw $0x7,%xmm14,%esi
    359c:	66 89 b0 7c ff ff ff 	mov    %si,-0x84(%rax)
    35a3:	66 41 0f c5 f5 00    	pextrw $0x0,%xmm13,%esi
    35a9:	66 89 70 8c          	mov    %si,-0x74(%rax)
    35ad:	66 41 0f c5 f5 01    	pextrw $0x1,%xmm13,%esi
    35b3:	66 89 70 9c          	mov    %si,-0x64(%rax)
    35b7:	66 41 0f c5 f5 02    	pextrw $0x2,%xmm13,%esi
    35bd:	66 89 70 ac          	mov    %si,-0x54(%rax)
    35c1:	66 41 0f c5 f5 03    	pextrw $0x3,%xmm13,%esi
    35c7:	66 89 70 bc          	mov    %si,-0x44(%rax)
    35cb:	66 41 0f c5 f5 04    	pextrw $0x4,%xmm13,%esi
    35d1:	66 89 70 cc          	mov    %si,-0x34(%rax)
    35d5:	66 41 0f c5 f5 05    	pextrw $0x5,%xmm13,%esi
    35db:	66 89 70 dc          	mov    %si,-0x24(%rax)
    35df:	66 41 0f c5 f5 06    	pextrw $0x6,%xmm13,%esi
    35e5:	66 89 70 ec          	mov    %si,-0x14(%rax)
    35e9:	66 41 0f c5 f5 07    	pextrw $0x7,%xmm13,%esi
    35ef:	66 89 70 fc          	mov    %si,-0x4(%rax)
    35f3:	f3 0f 6f 42 f0       	movdqu -0x10(%rdx),%xmm0
    35f8:	66 0f 71 d0 07       	psrlw  $0x7,%xmm0
    35fd:	66 0f db 05 0b 7a 00 	pand   0x7a0b(%rip),%xmm0        # b010 <_IO_stdin_used+0x10>
    3604:	00 
    3605:	66 0f 6f d8          	movdqa %xmm0,%xmm3
    3609:	66 0f 68 c4          	punpckhbw %xmm4,%xmm0
    360d:	66 0f 60 dc          	punpcklbw %xmm4,%xmm3
    3611:	66 0f f9 d3          	psubw  %xmm3,%xmm2
    3615:	66 0f 6f d8          	movdqa %xmm0,%xmm3
    3619:	66 0f 6f c1          	movdqa %xmm1,%xmm0
    361d:	66 0f db d5          	pand   %xmm5,%xmm2
    3621:	66 0f f9 c3          	psubw  %xmm3,%xmm0
    3625:	66 0f c5 f2 00       	pextrw $0x0,%xmm2,%esi
    362a:	66 0f db c5          	pand   %xmm5,%xmm0
    362e:	66 89 b0 0e ff ff ff 	mov    %si,-0xf2(%rax)
    3635:	66 0f c5 f2 01       	pextrw $0x1,%xmm2,%esi
    363a:	66 89 b0 1e ff ff ff 	mov    %si,-0xe2(%rax)
    3641:	66 0f c5 f2 02       	pextrw $0x2,%xmm2,%esi
    3646:	66 89 b0 2e ff ff ff 	mov    %si,-0xd2(%rax)
    364d:	66 0f c5 f2 03       	pextrw $0x3,%xmm2,%esi
    3652:	66 89 b0 3e ff ff ff 	mov    %si,-0xc2(%rax)
    3659:	66 0f c5 f2 04       	pextrw $0x4,%xmm2,%esi
    365e:	66 89 b0 4e ff ff ff 	mov    %si,-0xb2(%rax)
    3665:	66 0f c5 f2 05       	pextrw $0x5,%xmm2,%esi
    366a:	66 89 b0 5e ff ff ff 	mov    %si,-0xa2(%rax)
    3671:	66 0f c5 f2 06       	pextrw $0x6,%xmm2,%esi
    3676:	66 89 b0 6e ff ff ff 	mov    %si,-0x92(%rax)
    367d:	66 0f c5 f2 07       	pextrw $0x7,%xmm2,%esi
    3682:	66 89 b0 7e ff ff ff 	mov    %si,-0x82(%rax)
    3689:	66 0f c5 f0 00       	pextrw $0x0,%xmm0,%esi
    368e:	66 89 70 8e          	mov    %si,-0x72(%rax)
    3692:	66 0f c5 f0 01       	pextrw $0x1,%xmm0,%esi
    3697:	66 89 70 9e          	mov    %si,-0x62(%rax)
    369b:	66 0f c5 f0 02       	pextrw $0x2,%xmm0,%esi
    36a0:	66 89 70 ae          	mov    %si,-0x52(%rax)
    36a4:	66 0f c5 f0 03       	pextrw $0x3,%xmm0,%esi
    36a9:	66 89 70 be          	mov    %si,-0x42(%rax)
    36ad:	66 0f c5 f0 04       	pextrw $0x4,%xmm0,%esi
    36b2:	66 89 70 ce          	mov    %si,-0x32(%rax)
    36b6:	66 0f c5 f0 05       	pextrw $0x5,%xmm0,%esi
    36bb:	66 89 70 de          	mov    %si,-0x22(%rax)
    36bf:	66 0f c5 f0 06       	pextrw $0x6,%xmm0,%esi
    36c4:	66 89 70 ee          	mov    %si,-0x12(%rax)
    36c8:	66 0f c5 f0 07       	pextrw $0x7,%xmm0,%esi
    36cd:	66 89 70 fe          	mov    %si,-0x2(%rax)
    36d1:	48 39 ca             	cmp    %rcx,%rdx
    36d4:	0f 85 49 f8 ff ff    	jne    2f23 <pqcrystals_kyber1024_ref_poly_frommsg+0x33>
    36da:	c3                   	ret    
    36db:	0f 1f 44 00 00       	nopl   0x0(%rax,%rax,1)
    36e0:	0f b6 0a             	movzbl (%rdx),%ecx
    36e3:	48 83 c0 10          	add    $0x10,%rax
    36e7:	48 83 c2 01          	add    $0x1,%rdx
    36eb:	83 e1 01             	and    $0x1,%ecx
    36ee:	f7 d9                	neg    %ecx
    36f0:	66 81 e1 81 06       	and    $0x681,%cx
    36f5:	66 89 48 f0          	mov    %cx,-0x10(%rax)
    36f9:	0f b6 4a ff          	movzbl -0x1(%rdx),%ecx
    36fd:	d1 f9                	sar    %ecx
    36ff:	83 e1 01             	and    $0x1,%ecx
    3702:	f7 d9                	neg    %ecx
    3704:	66 81 e1 81 06       	and    $0x681,%cx
    3709:	66 89 48 f2          	mov    %cx,-0xe(%rax)
    370d:	0f b6 4a ff          	movzbl -0x1(%rdx),%ecx
    3711:	c1 f9 02             	sar    $0x2,%ecx
    3714:	83 e1 01             	and    $0x1,%ecx
    3717:	f7 d9                	neg    %ecx
    3719:	66 81 e1 81 06       	and    $0x681,%cx
    371e:	66 89 48 f4          	mov    %cx,-0xc(%rax)
    3722:	0f b6 4a ff          	movzbl -0x1(%rdx),%ecx
    3726:	c1 f9 03             	sar    $0x3,%ecx
    3729:	83 e1 01             	and    $0x1,%ecx
    372c:	f7 d9                	neg    %ecx
    372e:	66 81 e1 81 06       	and    $0x681,%cx
    3733:	66 89 48 f6          	mov    %cx,-0xa(%rax)
    3737:	0f b6 4a ff          	movzbl -0x1(%rdx),%ecx
    373b:	c1 f9 04             	sar    $0x4,%ecx
    373e:	83 e1 01             	and    $0x1,%ecx
    3741:	f7 d9                	neg    %ecx
    3743:	66 81 e1 81 06       	and    $0x681,%cx
    3748:	66 89 48 f8          	mov    %cx,-0x8(%rax)
    374c:	0f b6 4a ff          	movzbl -0x1(%rdx),%ecx
    3750:	c1 f9 05             	sar    $0x5,%ecx
    3753:	83 e1 01             	and    $0x1,%ecx
    3756:	f7 d9                	neg    %ecx
    3758:	66 81 e1 81 06       	and    $0x681,%cx
    375d:	66 89 48 fa          	mov    %cx,-0x6(%rax)
    3761:	0f b6 4a ff          	movzbl -0x1(%rdx),%ecx
    3765:	c1 f9 06             	sar    $0x6,%ecx
    3768:	83 e1 01             	and    $0x1,%ecx
    376b:	f7 d9                	neg    %ecx
    376d:	66 81 e1 81 06       	and    $0x681,%cx
    3772:	66 89 48 fc          	mov    %cx,-0x4(%rax)
    3776:	0f b6 4a ff          	movzbl -0x1(%rdx),%ecx
    377a:	c1 f9 07             	sar    $0x7,%ecx
    377d:	f7 d9                	neg    %ecx
    377f:	66 81 e1 81 06       	and    $0x681,%cx
    3784:	66 89 48 fe          	mov    %cx,-0x2(%rax)
    3788:	48 39 c7             	cmp    %rax,%rdi
    378b:	0f 85 4f ff ff ff    	jne    36e0 <pqcrystals_kyber1024_ref_poly_frommsg+0x7f0>
    3791:	c3                   	ret    
    3792:	66 66 2e 0f 1f 84 00 	data16 cs nopw 0x0(%rax,%rax,1)
    3799:	00 00 00 00 
    379d:	0f 1f 00             	nopl   (%rax)

00000000000037a0 <pqcrystals_kyber1024_ref_poly_tomsg>:
    37a0:	f3 0f 1e fa          	endbr64 
    37a4:	48 8d 47 20          	lea    0x20(%rdi),%rax
    37a8:	48 89 f9             	mov    %rdi,%rcx
    37ab:	48 89 f2             	mov    %rsi,%rdx
    37ae:	48 39 c6             	cmp    %rax,%rsi
    37b1:	73 10                	jae    37c3 <pqcrystals_kyber1024_ref_poly_tomsg+0x23>
    37b3:	4c 8d 86 00 02 00 00 	lea    0x200(%rsi),%r8
    37ba:	4c 39 c7             	cmp    %r8,%rdi
    37bd:	0f 82 c5 12 00 00    	jb     4a88 <pqcrystals_kyber1024_ref_poly_tomsg+0x12e8>
    37c3:	66 0f ef ff          	pxor   %xmm7,%xmm7
    37c7:	48 83 c1 10          	add    $0x10,%rcx
    37cb:	48 81 c2 00 01 00 00 	add    $0x100,%rdx
    37d2:	0f 11 79 f0          	movups %xmm7,-0x10(%rcx)
    37d6:	f3 0f 6f aa 00 ff ff 	movdqu -0x100(%rdx),%xmm5
    37dd:	ff 
    37de:	f3 44 0f 6f 82 10 ff 	movdqu -0xf0(%rdx),%xmm8
    37e5:	ff ff 
    37e7:	f3 0f 6f b2 20 ff ff 	movdqu -0xe0(%rdx),%xmm6
    37ee:	ff 
    37ef:	f3 0f 6f ba 30 ff ff 	movdqu -0xd0(%rdx),%xmm7
    37f6:	ff 
    37f7:	66 0f 6f c5          	movdqa %xmm5,%xmm0
    37fb:	66 0f 6f d5          	movdqa %xmm5,%xmm2
    37ff:	f3 0f 6f 8a 40 ff ff 	movdqu -0xc0(%rdx),%xmm1
    3806:	ff 
    3807:	66 41 0f 61 e8       	punpcklwd %xmm8,%xmm5
    380c:	66 41 0f 61 c0       	punpcklwd %xmm8,%xmm0
    3811:	66 41 0f 69 d0       	punpckhwd %xmm8,%xmm2
    3816:	66 44 0f 6f c6       	movdqa %xmm6,%xmm8
    381b:	f3 0f 6f a2 50 ff ff 	movdqu -0xb0(%rdx),%xmm4
    3822:	ff 
    3823:	66 44 0f 6f d0       	movdqa %xmm0,%xmm10
    3828:	66 0f 61 ea          	punpcklwd %xmm2,%xmm5
    382c:	66 44 0f 61 c7       	punpcklwd %xmm7,%xmm8
    3831:	f3 0f 6f 9a 60 ff ff 	movdqu -0xa0(%rdx),%xmm3
    3838:	ff 
    3839:	66 44 0f 69 d2       	punpckhwd %xmm2,%xmm10
    383e:	66 0f 61 c2          	punpcklwd %xmm2,%xmm0
    3842:	66 0f 6f d6          	movdqa %xmm6,%xmm2
    3846:	f3 44 0f 6f 8a 70 ff 	movdqu -0x90(%rdx),%xmm9
    384d:	ff ff 
    384f:	66 0f 69 d7          	punpckhwd %xmm7,%xmm2
    3853:	66 41 0f 61 c2       	punpcklwd %xmm10,%xmm0
    3858:	66 41 0f 69 ea       	punpckhwd %xmm10,%xmm5
    385d:	f3 44 0f 6f 62 b0    	movdqu -0x50(%rdx),%xmm12
    3863:	66 45 0f 6f d0       	movdqa %xmm8,%xmm10
    3868:	66 0f 61 f7          	punpcklwd %xmm7,%xmm6
    386c:	66 0f 6f f9          	movdqa %xmm1,%xmm7
    3870:	66 44 0f 69 d2       	punpckhwd %xmm2,%xmm10
    3875:	66 0f 61 fc          	punpcklwd %xmm4,%xmm7
    3879:	66 44 0f 61 c2       	punpcklwd %xmm2,%xmm8
    387e:	66 0f 61 f2          	punpcklwd %xmm2,%xmm6
    3882:	66 0f 6f d1          	movdqa %xmm1,%xmm2
    3886:	66 45 0f 61 c2       	punpcklwd %xmm10,%xmm8
    388b:	66 41 0f 69 f2       	punpckhwd %xmm10,%xmm6
    3890:	66 0f 69 d4          	punpckhwd %xmm4,%xmm2
    3894:	66 44 0f 6f d7       	movdqa %xmm7,%xmm10
    3899:	66 0f 61 cc          	punpcklwd %xmm4,%xmm1
    389d:	66 44 0f 69 d2       	punpckhwd %xmm2,%xmm10
    38a2:	66 0f 61 fa          	punpcklwd %xmm2,%xmm7
    38a6:	66 0f 61 ca          	punpcklwd %xmm2,%xmm1
    38aa:	66 0f 6f d3          	movdqa %xmm3,%xmm2
    38ae:	66 0f 6f e3          	movdqa %xmm3,%xmm4
    38b2:	66 41 0f 61 d1       	punpcklwd %xmm9,%xmm2
    38b7:	66 41 0f 69 e1       	punpckhwd %xmm9,%xmm4
    38bc:	66 41 0f 61 fa       	punpcklwd %xmm10,%xmm7
    38c1:	66 41 0f 69 ca       	punpckhwd %xmm10,%xmm1
    38c6:	66 41 0f 61 d9       	punpcklwd %xmm9,%xmm3
    38cb:	66 44 0f 6f d2       	movdqa %xmm2,%xmm10
    38d0:	66 44 0f 69 d4       	punpckhwd %xmm4,%xmm10
    38d5:	66 0f 61 d4          	punpcklwd %xmm4,%xmm2
    38d9:	66 0f 61 dc          	punpcklwd %xmm4,%xmm3
    38dd:	66 0f 6f e0          	movdqa %xmm0,%xmm4
    38e1:	66 44 0f 6f c8       	movdqa %xmm0,%xmm9
    38e6:	66 41 0f 61 d2       	punpcklwd %xmm10,%xmm2
    38eb:	66 41 0f 61 e0       	punpcklwd %xmm8,%xmm4
    38f0:	66 41 0f 69 da       	punpckhwd %xmm10,%xmm3
    38f5:	66 45 0f 69 c8       	punpckhwd %xmm8,%xmm9
    38fa:	66 44 0f 6f d4       	movdqa %xmm4,%xmm10
    38ff:	66 41 0f 61 c0       	punpcklwd %xmm8,%xmm0
    3904:	66 44 0f 6f c7       	movdqa %xmm7,%xmm8
    3909:	66 45 0f 69 d1       	punpckhwd %xmm9,%xmm10
    390e:	66 44 0f 61 c2       	punpcklwd %xmm2,%xmm8
    3913:	66 41 0f 61 e1       	punpcklwd %xmm9,%xmm4
    3918:	66 41 0f 61 c1       	punpcklwd %xmm9,%xmm0
    391d:	66 44 0f 6f cf       	movdqa %xmm7,%xmm9
    3922:	66 41 0f 61 e2       	punpcklwd %xmm10,%xmm4
    3927:	66 44 0f 69 ca       	punpckhwd %xmm2,%xmm9
    392c:	66 41 0f 69 c2       	punpckhwd %xmm10,%xmm0
    3931:	66 0f 61 fa          	punpcklwd %xmm2,%xmm7
    3935:	66 45 0f 6f d0       	movdqa %xmm8,%xmm10
    393a:	66 0f 6f d5          	movdqa %xmm5,%xmm2
    393e:	66 45 0f 61 c1       	punpcklwd %xmm9,%xmm8
    3943:	66 45 0f 69 d1       	punpckhwd %xmm9,%xmm10
    3948:	66 0f 61 d6          	punpcklwd %xmm6,%xmm2
    394c:	66 41 0f 61 f9       	punpcklwd %xmm9,%xmm7
    3951:	66 44 0f 6f cd       	movdqa %xmm5,%xmm9
    3956:	66 45 0f 61 c2       	punpcklwd %xmm10,%xmm8
    395b:	66 41 0f 69 fa       	punpckhwd %xmm10,%xmm7
    3960:	66 44 0f 69 ce       	punpckhwd %xmm6,%xmm9
    3965:	66 44 0f 6f d2       	movdqa %xmm2,%xmm10
    396a:	66 0f 61 ee          	punpcklwd %xmm6,%xmm5
    396e:	66 0f 6f f1          	movdqa %xmm1,%xmm6
    3972:	66 45 0f 69 d1       	punpckhwd %xmm9,%xmm10
    3977:	66 41 0f 61 d1       	punpcklwd %xmm9,%xmm2
    397c:	66 0f 61 f3          	punpcklwd %xmm3,%xmm6
    3980:	66 41 0f 61 e9       	punpcklwd %xmm9,%xmm5
    3985:	66 44 0f 6f c9       	movdqa %xmm1,%xmm9
    398a:	66 44 0f 69 cb       	punpckhwd %xmm3,%xmm9
    398f:	66 41 0f 61 d2       	punpcklwd %xmm10,%xmm2
    3994:	66 41 0f 69 ea       	punpckhwd %xmm10,%xmm5
    3999:	66 44 0f 6f dc       	movdqa %xmm4,%xmm11
    399e:	66 44 0f 6f d6       	movdqa %xmm6,%xmm10
    39a3:	66 0f 61 cb          	punpcklwd %xmm3,%xmm1
    39a7:	66 45 0f 69 d1       	punpckhwd %xmm9,%xmm10
    39ac:	66 45 0f 61 d8       	punpcklwd %xmm8,%xmm11
    39b1:	66 41 0f 61 f1       	punpcklwd %xmm9,%xmm6
    39b6:	66 0f 6f dc          	movdqa %xmm4,%xmm3
    39ba:	66 41 0f 61 f2       	punpcklwd %xmm10,%xmm6
    39bf:	66 41 0f 61 c9       	punpcklwd %xmm9,%xmm1
    39c4:	66 41 0f 69 d8       	punpckhwd %xmm8,%xmm3
    39c9:	66 45 0f 6f cb       	movdqa %xmm11,%xmm9
    39ce:	66 41 0f 61 e0       	punpcklwd %xmm8,%xmm4
    39d3:	66 44 0f 6f ea       	movdqa %xmm2,%xmm13
    39d8:	66 44 0f 69 cb       	punpckhwd %xmm3,%xmm9
    39dd:	66 44 0f 61 db       	punpcklwd %xmm3,%xmm11
    39e2:	66 44 0f 61 ee       	punpcklwd %xmm6,%xmm13
    39e7:	66 0f 61 e3          	punpcklwd %xmm3,%xmm4
    39eb:	66 0f 6f da          	movdqa %xmm2,%xmm3
    39ef:	66 0f 69 de          	punpckhwd %xmm6,%xmm3
    39f3:	66 45 0f 61 d9       	punpcklwd %xmm9,%xmm11
    39f8:	66 41 0f 69 e1       	punpckhwd %xmm9,%xmm4
    39fd:	66 45 0f 6f c5       	movdqa %xmm13,%xmm8
    3a02:	66 0f 61 d6          	punpcklwd %xmm6,%xmm2
    3a06:	66 44 0f 6f c8       	movdqa %xmm0,%xmm9
    3a0b:	66 44 0f 69 c3       	punpckhwd %xmm3,%xmm8
    3a10:	66 44 0f 61 cf       	punpcklwd %xmm7,%xmm9
    3a15:	66 44 0f 61 eb       	punpcklwd %xmm3,%xmm13
    3a1a:	66 0f 61 d3          	punpcklwd %xmm3,%xmm2
    3a1e:	66 0f 6f d8          	movdqa %xmm0,%xmm3
    3a22:	66 0f 61 c7          	punpcklwd %xmm7,%xmm0
    3a26:	66 0f 69 df          	punpckhwd %xmm7,%xmm3
    3a2a:	66 41 0f 6f f1       	movdqa %xmm9,%xmm6
    3a2f:	66 0f 6f f8          	movdqa %xmm0,%xmm7
    3a33:	f3 0f 6f 42 d0       	movdqu -0x30(%rdx),%xmm0
    3a38:	66 0f 69 f3          	punpckhwd %xmm3,%xmm6
    3a3c:	66 0f 61 fb          	punpcklwd %xmm3,%xmm7
    3a40:	66 41 0f 69 ca       	punpckhwd %xmm10,%xmm1
    3a45:	f3 44 0f 6f 52 c0    	movdqu -0x40(%rdx),%xmm10
    3a4b:	66 0f 69 fe          	punpckhwd %xmm6,%xmm7
    3a4f:	66 44 0f 61 cb       	punpcklwd %xmm3,%xmm9
    3a54:	66 0f 6f dd          	movdqa %xmm5,%xmm3
    3a58:	0f 29 7c 24 c8       	movaps %xmm7,-0x38(%rsp)
    3a5d:	66 0f 6f fd          	movdqa %xmm5,%xmm7
    3a61:	66 0f 69 d9          	punpckhwd %xmm1,%xmm3
    3a65:	66 44 0f 61 ce       	punpcklwd %xmm6,%xmm9
    3a6a:	66 0f 61 f9          	punpcklwd %xmm1,%xmm7
    3a6e:	66 0f 61 e9          	punpcklwd %xmm1,%xmm5
    3a72:	66 45 0f 61 e8       	punpcklwd %xmm8,%xmm13
    3a77:	66 0f 6f f7          	movdqa %xmm7,%xmm6
    3a7b:	66 0f 61 eb          	punpcklwd %xmm3,%xmm5
    3a7f:	66 0f 61 fb          	punpcklwd %xmm3,%xmm7
    3a83:	66 0f 69 f3          	punpckhwd %xmm3,%xmm6
    3a87:	f3 0f 6f 5a 90       	movdqu -0x70(%rdx),%xmm3
    3a8c:	66 41 0f 69 d0       	punpckhwd %xmm8,%xmm2
    3a91:	66 0f 69 ee          	punpckhwd %xmm6,%xmm5
    3a95:	66 0f 61 fe          	punpcklwd %xmm6,%xmm7
    3a99:	f3 0f 6f 72 a0       	movdqu -0x60(%rdx),%xmm6
    3a9e:	0f 29 6c 24 d8       	movaps %xmm5,-0x28(%rsp)
    3aa3:	f3 0f 6f 6a 80       	movdqu -0x80(%rdx),%xmm5
    3aa8:	66 44 0f 6f f6       	movdqa %xmm6,%xmm14
    3aad:	66 44 0f 6f fd       	movdqa %xmm5,%xmm15
    3ab2:	66 0f 6f cd          	movdqa %xmm5,%xmm1
    3ab6:	66 0f 61 eb          	punpcklwd %xmm3,%xmm5
    3aba:	66 44 0f 61 fb       	punpcklwd %xmm3,%xmm15
    3abf:	66 0f 69 cb          	punpckhwd %xmm3,%xmm1
    3ac3:	66 45 0f 61 f4       	punpcklwd %xmm12,%xmm14
    3ac8:	66 45 0f 6f c7       	movdqa %xmm15,%xmm8
    3acd:	66 0f 61 e9          	punpcklwd %xmm1,%xmm5
    3ad1:	66 44 0f 61 f9       	punpcklwd %xmm1,%xmm15
    3ad6:	66 44 0f 69 c1       	punpckhwd %xmm1,%xmm8
    3adb:	66 0f 6f ce          	movdqa %xmm6,%xmm1
    3adf:	66 45 0f 61 f8       	punpcklwd %xmm8,%xmm15
    3ae4:	66 41 0f 69 e8       	punpckhwd %xmm8,%xmm5
    3ae9:	66 44 0f 6f c6       	movdqa %xmm6,%xmm8
    3aee:	66 45 0f 61 c4       	punpcklwd %xmm12,%xmm8
    3af3:	66 41 0f 69 cc       	punpckhwd %xmm12,%xmm1
    3af8:	66 41 0f 6f d8       	movdqa %xmm8,%xmm3
    3afd:	66 44 0f 61 f1       	punpcklwd %xmm1,%xmm14
    3b02:	66 44 0f 61 c1       	punpcklwd %xmm1,%xmm8
    3b07:	66 0f 69 d9          	punpckhwd %xmm1,%xmm3
    3b0b:	66 41 0f 6f ca       	movdqa %xmm10,%xmm1
    3b10:	66 44 0f 61 c3       	punpcklwd %xmm3,%xmm8
    3b15:	66 44 0f 69 f3       	punpckhwd %xmm3,%xmm14
    3b1a:	f3 0f 6f 5a d0       	movdqu -0x30(%rdx),%xmm3
    3b1f:	66 0f 69 c8          	punpckhwd %xmm0,%xmm1
    3b23:	66 41 0f 6f c2       	movdqa %xmm10,%xmm0
    3b28:	66 0f 61 c3          	punpcklwd %xmm3,%xmm0
    3b2c:	66 0f 6f f0          	movdqa %xmm0,%xmm6
    3b30:	66 0f 6f d8          	movdqa %xmm0,%xmm3
    3b34:	f3 0f 6f 42 d0       	movdqu -0x30(%rdx),%xmm0
    3b39:	66 0f 69 d9          	punpckhwd %xmm1,%xmm3
    3b3d:	66 0f 61 f1          	punpcklwd %xmm1,%xmm6
    3b41:	66 44 0f 61 d0       	punpcklwd %xmm0,%xmm10
    3b46:	66 0f 61 f3          	punpcklwd %xmm3,%xmm6
    3b4a:	f3 0f 6f 42 f0       	movdqu -0x10(%rdx),%xmm0
    3b4f:	66 44 0f 61 d1       	punpcklwd %xmm1,%xmm10
    3b54:	f3 0f 6f 4a f0       	movdqu -0x10(%rdx),%xmm1
    3b59:	66 44 0f 69 d3       	punpckhwd %xmm3,%xmm10
    3b5e:	f3 0f 6f 5a e0       	movdqu -0x20(%rdx),%xmm3
    3b63:	66 0f 69 d9          	punpckhwd %xmm1,%xmm3
    3b67:	f3 0f 6f 4a e0       	movdqu -0x20(%rdx),%xmm1
    3b6c:	66 0f 61 c8          	punpcklwd %xmm0,%xmm1
    3b70:	66 0f 6f c1          	movdqa %xmm1,%xmm0
    3b74:	66 0f 69 cb          	punpckhwd %xmm3,%xmm1
    3b78:	66 0f 61 c3          	punpcklwd %xmm3,%xmm0
    3b7c:	66 44 0f 6f e1       	movdqa %xmm1,%xmm12
    3b81:	66 0f 6f c8          	movdqa %xmm0,%xmm1
    3b85:	f3 0f 6f 42 f0       	movdqu -0x10(%rdx),%xmm0
    3b8a:	66 41 0f 61 cc       	punpcklwd %xmm12,%xmm1
    3b8f:	0f 29 4c 24 e8       	movaps %xmm1,-0x18(%rsp)
    3b94:	f3 0f 6f 4a e0       	movdqu -0x20(%rdx),%xmm1
    3b99:	66 0f 61 c8          	punpcklwd %xmm0,%xmm1
    3b9d:	66 0f 61 cb          	punpcklwd %xmm3,%xmm1
    3ba1:	66 41 0f 6f df       	movdqa %xmm15,%xmm3
    3ba6:	66 41 0f 69 cc       	punpckhwd %xmm12,%xmm1
    3bab:	66 41 0f 61 d8       	punpcklwd %xmm8,%xmm3
    3bb0:	66 45 0f 6f e7       	movdqa %xmm15,%xmm12
    3bb5:	0f 29 4c 24 b8       	movaps %xmm1,-0x48(%rsp)
    3bba:	66 45 0f 69 e0       	punpckhwd %xmm8,%xmm12
    3bbf:	66 0f 6f c3          	movdqa %xmm3,%xmm0
    3bc3:	66 0f 6f 4c 24 e8    	movdqa -0x18(%rsp),%xmm1
    3bc9:	66 45 0f 61 f8       	punpcklwd %xmm8,%xmm15
    3bce:	66 41 0f 69 c4       	punpckhwd %xmm12,%xmm0
    3bd3:	66 41 0f 61 dc       	punpcklwd %xmm12,%xmm3
    3bd8:	66 45 0f 61 fc       	punpcklwd %xmm12,%xmm15
    3bdd:	66 44 0f 6f c6       	movdqa %xmm6,%xmm8
    3be2:	66 44 0f 6f e6       	movdqa %xmm6,%xmm12
    3be7:	66 44 0f 69 e1       	punpckhwd %xmm1,%xmm12
    3bec:	66 44 0f 61 c1       	punpcklwd %xmm1,%xmm8
    3bf1:	66 0f 61 f1          	punpcklwd %xmm1,%xmm6
    3bf5:	66 0f 61 d8          	punpcklwd %xmm0,%xmm3
    3bf9:	66 44 0f 69 f8       	punpckhwd %xmm0,%xmm15
    3bfe:	66 41 0f 61 f4       	punpcklwd %xmm12,%xmm6
    3c03:	66 41 0f 6f c0       	movdqa %xmm8,%xmm0
    3c08:	66 45 0f 61 c4       	punpcklwd %xmm12,%xmm8
    3c0d:	66 41 0f 69 c4       	punpckhwd %xmm12,%xmm0
    3c12:	66 44 0f 6f e6       	movdqa %xmm6,%xmm12
    3c17:	66 44 0f 61 c0       	punpcklwd %xmm0,%xmm8
    3c1c:	66 44 0f 69 e0       	punpckhwd %xmm0,%xmm12
    3c21:	66 0f 6f c5          	movdqa %xmm5,%xmm0
    3c25:	66 41 0f 69 c6       	punpckhwd %xmm14,%xmm0
    3c2a:	44 0f 29 64 24 e8    	movaps %xmm12,-0x18(%rsp)
    3c30:	66 0f 6f f0          	movdqa %xmm0,%xmm6
    3c34:	66 0f 6f c5          	movdqa %xmm5,%xmm0
    3c38:	66 41 0f 61 ee       	punpcklwd %xmm14,%xmm5
    3c3d:	66 41 0f 61 c6       	punpcklwd %xmm14,%xmm0
    3c42:	66 0f 61 ee          	punpcklwd %xmm6,%xmm5
    3c46:	66 44 0f 6f 74 24 b8 	movdqa -0x48(%rsp),%xmm14
    3c4d:	66 0f 6f c8          	movdqa %xmm0,%xmm1
    3c51:	66 0f 69 c6          	punpckhwd %xmm6,%xmm0
    3c55:	66 0f 61 ce          	punpcklwd %xmm6,%xmm1
    3c59:	66 0f 69 e8          	punpckhwd %xmm0,%xmm5
    3c5d:	66 0f 61 c8          	punpcklwd %xmm0,%xmm1
    3c61:	66 41 0f 6f c2       	movdqa %xmm10,%xmm0
    3c66:	66 41 0f 69 c6       	punpckhwd %xmm14,%xmm0
    3c6b:	66 44 0f 6f e0       	movdqa %xmm0,%xmm12
    3c70:	66 41 0f 6f c2       	movdqa %xmm10,%xmm0
    3c75:	66 41 0f 61 c6       	punpcklwd %xmm14,%xmm0
    3c7a:	66 0f 6f f0          	movdqa %xmm0,%xmm6
    3c7e:	66 41 0f 69 c4       	punpckhwd %xmm12,%xmm0
    3c83:	66 41 0f 61 f4       	punpcklwd %xmm12,%xmm6
    3c88:	66 44 0f 6f f0       	movdqa %xmm0,%xmm14
    3c8d:	66 0f 61 f0          	punpcklwd %xmm0,%xmm6
    3c91:	66 41 0f 6f c2       	movdqa %xmm10,%xmm0
    3c96:	66 0f 61 44 24 b8    	punpcklwd -0x48(%rsp),%xmm0
    3c9c:	66 44 0f 6f d3       	movdqa %xmm3,%xmm10
    3ca1:	66 45 0f 61 d0       	punpcklwd %xmm8,%xmm10
    3ca6:	66 41 0f 61 c4       	punpcklwd %xmm12,%xmm0
    3cab:	66 44 0f 6f e3       	movdqa %xmm3,%xmm12
    3cb0:	66 45 0f 69 e0       	punpckhwd %xmm8,%xmm12
    3cb5:	66 41 0f 69 c6       	punpckhwd %xmm14,%xmm0
    3cba:	66 41 0f 61 d8       	punpcklwd %xmm8,%xmm3
    3cbf:	66 45 0f 6f f2       	movdqa %xmm10,%xmm14
    3cc4:	66 41 0f 61 dc       	punpcklwd %xmm12,%xmm3
    3cc9:	66 45 0f 61 d4       	punpcklwd %xmm12,%xmm10
    3cce:	0f 29 44 24 b8       	movaps %xmm0,-0x48(%rsp)
    3cd3:	66 45 0f 69 f4       	punpckhwd %xmm12,%xmm14
    3cd8:	66 44 0f 6f e1       	movdqa %xmm1,%xmm12
    3cdd:	66 44 0f 6f c1       	movdqa %xmm1,%xmm8
    3ce2:	66 0f 6f 44 24 e8    	movdqa -0x18(%rsp),%xmm0
    3ce8:	66 44 0f 61 e6       	punpcklwd %xmm6,%xmm12
    3ced:	66 41 0f 69 de       	punpckhwd %xmm14,%xmm3
    3cf2:	66 44 0f 69 c6       	punpckhwd %xmm6,%xmm8
    3cf7:	66 45 0f 61 d6       	punpcklwd %xmm14,%xmm10
    3cfc:	66 0f 61 ce          	punpcklwd %xmm6,%xmm1
    3d00:	66 45 0f 6f f4       	movdqa %xmm12,%xmm14
    3d05:	66 45 0f 69 f0       	punpckhwd %xmm8,%xmm14
    3d0a:	66 45 0f 61 e0       	punpcklwd %xmm8,%xmm12
    3d0f:	66 41 0f 61 c8       	punpcklwd %xmm8,%xmm1
    3d14:	66 45 0f 6f c7       	movdqa %xmm15,%xmm8
    3d19:	66 41 0f 69 ce       	punpckhwd %xmm14,%xmm1
    3d1e:	66 45 0f 61 e6       	punpcklwd %xmm14,%xmm12
    3d23:	66 44 0f 69 c0       	punpckhwd %xmm0,%xmm8
    3d28:	66 41 0f 6f f0       	movdqa %xmm8,%xmm6
    3d2d:	66 45 0f 6f c7       	movdqa %xmm15,%xmm8
    3d32:	66 44 0f 61 f8       	punpcklwd %xmm0,%xmm15
    3d37:	66 44 0f 61 c0       	punpcklwd %xmm0,%xmm8
    3d3c:	66 44 0f 61 fe       	punpcklwd %xmm6,%xmm15
    3d41:	66 0f 6f 44 24 b8    	movdqa -0x48(%rsp),%xmm0
    3d47:	66 45 0f 6f f0       	movdqa %xmm8,%xmm14
    3d4c:	66 44 0f 61 c6       	punpcklwd %xmm6,%xmm8
    3d51:	66 44 0f 69 f6       	punpckhwd %xmm6,%xmm14
    3d56:	66 0f 6f f5          	movdqa %xmm5,%xmm6
    3d5a:	66 45 0f 61 c6       	punpcklwd %xmm14,%xmm8
    3d5f:	66 45 0f 69 fe       	punpckhwd %xmm14,%xmm15
    3d64:	66 44 0f 6f f5       	movdqa %xmm5,%xmm14
    3d69:	66 44 0f 69 f0       	punpckhwd %xmm0,%xmm14
    3d6e:	66 0f 61 f0          	punpcklwd %xmm0,%xmm6
    3d72:	66 0f 61 e8          	punpcklwd %xmm0,%xmm5
    3d76:	44 0f 29 7c 24 e8    	movaps %xmm15,-0x18(%rsp)
    3d7c:	66 0f ef c0          	pxor   %xmm0,%xmm0
    3d80:	66 44 0f 6f fe       	movdqa %xmm6,%xmm15
    3d85:	66 41 0f 61 ee       	punpcklwd %xmm14,%xmm5
    3d8a:	66 41 0f 65 c5       	pcmpgtw %xmm13,%xmm0
    3d8f:	66 45 0f 69 fe       	punpckhwd %xmm14,%xmm15
    3d94:	66 41 0f 61 f6       	punpcklwd %xmm14,%xmm6
    3d99:	66 44 0f 6f f5       	movdqa %xmm5,%xmm14
    3d9e:	66 41 0f 61 f7       	punpcklwd %xmm15,%xmm6
    3da3:	66 45 0f 69 f7       	punpckhwd %xmm15,%xmm14
    3da8:	66 44 0f 6f f8       	movdqa %xmm0,%xmm15
    3dad:	66 41 0f 6f c5       	movdqa %xmm13,%xmm0
    3db2:	44 0f 29 74 24 b8    	movaps %xmm14,-0x48(%rsp)
    3db8:	66 41 0f 61 c7       	punpcklwd %xmm15,%xmm0
    3dbd:	66 45 0f 69 ef       	punpckhwd %xmm15,%xmm13
    3dc2:	66 44 0f 6f f0       	movdqa %xmm0,%xmm14
    3dc7:	66 41 0f 72 f5 01    	pslld  $0x1,%xmm13
    3dcd:	66 44 0f fe 2d ba 72 	paddd  0x72ba(%rip),%xmm13        # b090 <_IO_stdin_used+0x90>
    3dd4:	00 00 
    3dd6:	66 41 0f 72 f6 01    	pslld  $0x1,%xmm14
    3ddc:	66 44 0f fe 35 ab 72 	paddd  0x72ab(%rip),%xmm14        # b090 <_IO_stdin_used+0x90>
    3de3:	00 00 
    3de5:	66 41 0f 6f c6       	movdqa %xmm14,%xmm0
    3dea:	66 0f 72 f0 06       	pslld  $0x6,%xmm0
    3def:	66 0f 6f e8          	movdqa %xmm0,%xmm5
    3df3:	66 41 0f fa ee       	psubd  %xmm14,%xmm5
    3df8:	66 0f 72 f5 08       	pslld  $0x8,%xmm5
    3dfd:	66 41 0f fa ee       	psubd  %xmm14,%xmm5
    3e02:	66 0f 6f c5          	movdqa %xmm5,%xmm0
    3e06:	66 0f 72 f0 02       	pslld  $0x2,%xmm0
    3e0b:	66 0f fe e8          	paddd  %xmm0,%xmm5
    3e0f:	66 41 0f 6f c5       	movdqa %xmm13,%xmm0
    3e14:	66 0f 72 f0 06       	pslld  $0x6,%xmm0
    3e19:	66 0f 72 d5 1c       	psrld  $0x1c,%xmm5
    3e1e:	66 44 0f 6f f0       	movdqa %xmm0,%xmm14
    3e23:	66 0f 6f c5          	movdqa %xmm5,%xmm0
    3e27:	66 45 0f fa f5       	psubd  %xmm13,%xmm14
    3e2c:	66 41 0f 72 f6 08    	pslld  $0x8,%xmm14
    3e32:	66 45 0f fa f5       	psubd  %xmm13,%xmm14
    3e37:	66 45 0f 6f ee       	movdqa %xmm14,%xmm13
    3e3c:	66 41 0f 72 f5 02    	pslld  $0x2,%xmm13
    3e42:	66 45 0f fe ee       	paddd  %xmm14,%xmm13
    3e47:	66 41 0f 72 d5 1c    	psrld  $0x1c,%xmm13
    3e4d:	66 41 0f 69 c5       	punpckhwd %xmm13,%xmm0
    3e52:	66 44 0f 6f f0       	movdqa %xmm0,%xmm14
    3e57:	66 0f 6f c5          	movdqa %xmm5,%xmm0
    3e5b:	66 41 0f 61 c5       	punpcklwd %xmm13,%xmm0
    3e60:	66 45 0f 6f ec       	movdqa %xmm12,%xmm13
    3e65:	66 44 0f 6f f8       	movdqa %xmm0,%xmm15
    3e6a:	66 41 0f 69 c6       	punpckhwd %xmm14,%xmm0
    3e6f:	66 45 0f 61 fe       	punpcklwd %xmm14,%xmm15
    3e74:	66 44 0f 61 f8       	punpcklwd %xmm0,%xmm15
    3e79:	66 0f ef c0          	pxor   %xmm0,%xmm0
    3e7d:	66 41 0f 65 c4       	pcmpgtw %xmm12,%xmm0
    3e82:	66 44 0f 61 e8       	punpcklwd %xmm0,%xmm13
    3e87:	66 44 0f 6f f0       	movdqa %xmm0,%xmm14
    3e8c:	66 41 0f 72 f5 01    	pslld  $0x1,%xmm13
    3e92:	66 45 0f 69 e6       	punpckhwd %xmm14,%xmm12
    3e97:	66 44 0f fe 2d f0 71 	paddd  0x71f0(%rip),%xmm13        # b090 <_IO_stdin_used+0x90>
    3e9e:	00 00 
    3ea0:	66 41 0f 72 f4 01    	pslld  $0x1,%xmm12
    3ea6:	66 44 0f fe 25 e1 71 	paddd  0x71e1(%rip),%xmm12        # b090 <_IO_stdin_used+0x90>
    3ead:	00 00 
    3eaf:	66 41 0f 6f c5       	movdqa %xmm13,%xmm0
    3eb4:	66 0f 72 f0 06       	pslld  $0x6,%xmm0
    3eb9:	66 0f 6f e8          	movdqa %xmm0,%xmm5
    3ebd:	66 41 0f fa ed       	psubd  %xmm13,%xmm5
    3ec2:	66 0f 72 f5 08       	pslld  $0x8,%xmm5
    3ec7:	66 41 0f fa ed       	psubd  %xmm13,%xmm5
    3ecc:	66 44 0f 6f ed       	movdqa %xmm5,%xmm13
    3ed1:	66 41 0f 72 f5 02    	pslld  $0x2,%xmm13
    3ed7:	66 41 0f fe ed       	paddd  %xmm13,%xmm5
    3edc:	66 45 0f 6f ec       	movdqa %xmm12,%xmm13
    3ee1:	66 41 0f 72 f5 06    	pslld  $0x6,%xmm13
    3ee7:	66 0f 72 d5 1c       	psrld  $0x1c,%xmm5
    3eec:	66 45 0f fa ec       	psubd  %xmm12,%xmm13
    3ef1:	66 41 0f 72 f5 08    	pslld  $0x8,%xmm13
    3ef7:	66 45 0f fa ec       	psubd  %xmm12,%xmm13
    3efc:	66 45 0f 6f e5       	movdqa %xmm13,%xmm12
    3f01:	66 41 0f 72 f4 02    	pslld  $0x2,%xmm12
    3f07:	66 45 0f fe ec       	paddd  %xmm12,%xmm13
    3f0c:	66 44 0f 6f e5       	movdqa %xmm5,%xmm12
    3f11:	66 41 0f 72 d5 1c    	psrld  $0x1c,%xmm13
    3f17:	66 41 0f 61 ed       	punpcklwd %xmm13,%xmm5
    3f1c:	66 45 0f 69 e5       	punpckhwd %xmm13,%xmm12
    3f21:	66 44 0f 6f ed       	movdqa %xmm5,%xmm13
    3f26:	66 41 0f 61 ec       	punpcklwd %xmm12,%xmm5
    3f2b:	66 45 0f 69 ec       	punpckhwd %xmm12,%xmm13
    3f30:	66 44 0f 6f 25 67 71 	movdqa 0x7167(%rip),%xmm12        # b0a0 <_IO_stdin_used+0xa0>
    3f37:	00 00 
    3f39:	66 41 0f 61 ed       	punpcklwd %xmm13,%xmm5
    3f3e:	66 0f db 2d 5a 71 00 	pand   0x715a(%rip),%xmm5        # b0a0 <_IO_stdin_used+0xa0>
    3f45:	00 
    3f46:	66 45 0f ef ed       	pxor   %xmm13,%xmm13
    3f4b:	66 45 0f db e7       	pand   %xmm15,%xmm12
    3f50:	66 45 0f 65 eb       	pcmpgtw %xmm11,%xmm13
    3f55:	66 44 0f 67 e5       	packuswb %xmm5,%xmm12
    3f5a:	66 45 0f fc e4       	paddb  %xmm12,%xmm12
    3f5f:	66 44 0f db 25 48 71 	pand   0x7148(%rip),%xmm12        # b0b0 <_IO_stdin_used+0xb0>
    3f66:	00 00 
    3f68:	66 45 0f 6f f4       	movdqa %xmm12,%xmm14
    3f6d:	66 45 0f 6f e3       	movdqa %xmm11,%xmm12
    3f72:	66 45 0f 69 dd       	punpckhwd %xmm13,%xmm11
    3f77:	66 45 0f 61 e5       	punpcklwd %xmm13,%xmm12
    3f7c:	66 41 0f 72 f3 01    	pslld  $0x1,%xmm11
    3f82:	66 44 0f fe 1d 05 71 	paddd  0x7105(%rip),%xmm11        # b090 <_IO_stdin_used+0x90>
    3f89:	00 00 
    3f8b:	66 41 0f 72 f4 01    	pslld  $0x1,%xmm12
    3f91:	66 44 0f fe 25 f6 70 	paddd  0x70f6(%rip),%xmm12        # b090 <_IO_stdin_used+0x90>
    3f98:	00 00 
    3f9a:	66 41 0f 6f c4       	movdqa %xmm12,%xmm0
    3f9f:	66 0f 72 f0 06       	pslld  $0x6,%xmm0
    3fa4:	66 0f 6f e8          	movdqa %xmm0,%xmm5
    3fa8:	66 41 0f fa ec       	psubd  %xmm12,%xmm5
    3fad:	66 0f 72 f5 08       	pslld  $0x8,%xmm5
    3fb2:	66 41 0f fa ec       	psubd  %xmm12,%xmm5
    3fb7:	66 44 0f 6f e5       	movdqa %xmm5,%xmm12
    3fbc:	66 41 0f 72 f4 02    	pslld  $0x2,%xmm12
    3fc2:	66 41 0f fe ec       	paddd  %xmm12,%xmm5
    3fc7:	66 45 0f 6f e3       	movdqa %xmm11,%xmm12
    3fcc:	66 41 0f 72 f3 06    	pslld  $0x6,%xmm11
    3fd2:	66 0f 72 d5 1c       	psrld  $0x1c,%xmm5
    3fd7:	66 45 0f fa dc       	psubd  %xmm12,%xmm11
    3fdc:	66 44 0f 6f ed       	movdqa %xmm5,%xmm13
    3fe1:	66 41 0f 72 f3 08    	pslld  $0x8,%xmm11
    3fe7:	66 45 0f fa dc       	psubd  %xmm12,%xmm11
    3fec:	66 45 0f 6f e3       	movdqa %xmm11,%xmm12
    3ff1:	66 41 0f 72 f4 02    	pslld  $0x2,%xmm12
    3ff7:	66 45 0f fe dc       	paddd  %xmm12,%xmm11
    3ffc:	66 44 0f 6f e5       	movdqa %xmm5,%xmm12
    4001:	66 41 0f 72 d3 1c    	psrld  $0x1c,%xmm11
    4007:	66 45 0f 61 eb       	punpcklwd %xmm11,%xmm13
    400c:	66 45 0f 69 e3       	punpckhwd %xmm11,%xmm12
    4011:	66 45 0f 6f da       	movdqa %xmm10,%xmm11
    4016:	66 41 0f 6f c5       	movdqa %xmm13,%xmm0
    401b:	66 45 0f 61 ec       	punpcklwd %xmm12,%xmm13
    4020:	66 41 0f 69 c4       	punpckhwd %xmm12,%xmm0
    4025:	66 45 0f ef e4       	pxor   %xmm12,%xmm12
    402a:	66 45 0f 65 e2       	pcmpgtw %xmm10,%xmm12
    402f:	66 44 0f 61 e8       	punpcklwd %xmm0,%xmm13
    4034:	66 44 0f db 2d 63 70 	pand   0x7063(%rip),%xmm13        # b0a0 <_IO_stdin_used+0xa0>
    403b:	00 00 
    403d:	66 45 0f 61 dc       	punpcklwd %xmm12,%xmm11
    4042:	66 45 0f 69 d4       	punpckhwd %xmm12,%xmm10
    4047:	66 45 0f 6f e1       	movdqa %xmm9,%xmm12
    404c:	66 41 0f 72 f3 01    	pslld  $0x1,%xmm11
    4052:	66 41 0f 72 f2 01    	pslld  $0x1,%xmm10
    4058:	66 44 0f fe 1d 2f 70 	paddd  0x702f(%rip),%xmm11        # b090 <_IO_stdin_used+0x90>
    405f:	00 00 
    4061:	66 44 0f fe 15 26 70 	paddd  0x7026(%rip),%xmm10        # b090 <_IO_stdin_used+0x90>
    4068:	00 00 
    406a:	66 41 0f 6f c3       	movdqa %xmm11,%xmm0
    406f:	66 0f 72 f0 06       	pslld  $0x6,%xmm0
    4074:	66 0f 6f e8          	movdqa %xmm0,%xmm5
    4078:	66 41 0f fa eb       	psubd  %xmm11,%xmm5
    407d:	66 0f 72 f5 08       	pslld  $0x8,%xmm5
    4082:	66 41 0f fa eb       	psubd  %xmm11,%xmm5
    4087:	66 44 0f 6f dd       	movdqa %xmm5,%xmm11
    408c:	66 41 0f 72 f3 02    	pslld  $0x2,%xmm11
    4092:	66 41 0f fe eb       	paddd  %xmm11,%xmm5
    4097:	66 45 0f 6f da       	movdqa %xmm10,%xmm11
    409c:	66 41 0f 72 f3 06    	pslld  $0x6,%xmm11
    40a2:	66 0f 72 d5 1c       	psrld  $0x1c,%xmm5
    40a7:	66 45 0f fa da       	psubd  %xmm10,%xmm11
    40ac:	66 41 0f 72 f3 08    	pslld  $0x8,%xmm11
    40b2:	66 45 0f fa da       	psubd  %xmm10,%xmm11
    40b7:	66 45 0f 6f d3       	movdqa %xmm11,%xmm10
    40bc:	66 41 0f 72 f2 02    	pslld  $0x2,%xmm10
    40c2:	66 45 0f fe d3       	paddd  %xmm11,%xmm10
    40c7:	66 44 0f 6f dd       	movdqa %xmm5,%xmm11
    40cc:	66 41 0f 72 d2 1c    	psrld  $0x1c,%xmm10
    40d2:	66 41 0f 61 ea       	punpcklwd %xmm10,%xmm5
    40d7:	66 45 0f 69 da       	punpckhwd %xmm10,%xmm11
    40dc:	66 44 0f 6f d5       	movdqa %xmm5,%xmm10
    40e1:	66 41 0f 61 eb       	punpcklwd %xmm11,%xmm5
    40e6:	66 45 0f 69 d3       	punpckhwd %xmm11,%xmm10
    40eb:	66 45 0f ef db       	pxor   %xmm11,%xmm11
    40f0:	66 45 0f 65 d9       	pcmpgtw %xmm9,%xmm11
    40f5:	66 41 0f 61 ea       	punpcklwd %xmm10,%xmm5
    40fa:	66 45 0f 6f d5       	movdqa %xmm13,%xmm10
    40ff:	66 0f db 2d 99 6f 00 	pand   0x6f99(%rip),%xmm5        # b0a0 <_IO_stdin_used+0xa0>
    4106:	00 
    4107:	66 45 0f 61 e3       	punpcklwd %xmm11,%xmm12
    410c:	66 45 0f 69 cb       	punpckhwd %xmm11,%xmm9
    4111:	66 44 0f 67 d5       	packuswb %xmm5,%xmm10
    4116:	66 41 0f 72 f4 01    	pslld  $0x1,%xmm12
    411c:	66 41 0f 72 f1 01    	pslld  $0x1,%xmm9
    4122:	66 44 0f fe 25 65 6f 	paddd  0x6f65(%rip),%xmm12        # b090 <_IO_stdin_used+0x90>
    4129:	00 00 
    412b:	66 44 0f fe 0d 5c 6f 	paddd  0x6f5c(%rip),%xmm9        # b090 <_IO_stdin_used+0x90>
    4132:	00 00 
    4134:	66 44 0f db 15 d3 6e 	pand   0x6ed3(%rip),%xmm10        # b010 <_IO_stdin_used+0x10>
    413b:	00 00 
    413d:	66 41 0f 6f c4       	movdqa %xmm12,%xmm0
    4142:	66 0f 72 f0 06       	pslld  $0x6,%xmm0
    4147:	66 45 0f 6f d9       	movdqa %xmm9,%xmm11
    414c:	66 45 0f eb d6       	por    %xmm14,%xmm10
    4151:	66 0f 6f e8          	movdqa %xmm0,%xmm5
    4155:	66 41 0f 72 f3 06    	pslld  $0x6,%xmm11
    415b:	66 41 0f fa ec       	psubd  %xmm12,%xmm5
    4160:	66 45 0f fa d9       	psubd  %xmm9,%xmm11
    4165:	66 0f 72 f5 08       	pslld  $0x8,%xmm5
    416a:	66 41 0f 72 f3 08    	pslld  $0x8,%xmm11
    4170:	66 45 0f fa d9       	psubd  %xmm9,%xmm11
    4175:	66 41 0f fa ec       	psubd  %xmm12,%xmm5
    417a:	66 44 0f 6f e5       	movdqa %xmm5,%xmm12
    417f:	66 45 0f 6f cb       	movdqa %xmm11,%xmm9
    4184:	66 41 0f 72 f4 02    	pslld  $0x2,%xmm12
    418a:	66 41 0f 72 f1 02    	pslld  $0x2,%xmm9
    4190:	66 41 0f fe ec       	paddd  %xmm12,%xmm5
    4195:	66 45 0f fe cb       	paddd  %xmm11,%xmm9
    419a:	66 45 0f 6f e0       	movdqa %xmm8,%xmm12
    419f:	66 41 0f 72 d1 1c    	psrld  $0x1c,%xmm9
    41a5:	66 0f 72 d5 1c       	psrld  $0x1c,%xmm5
    41aa:	66 44 0f 6f dd       	movdqa %xmm5,%xmm11
    41af:	66 41 0f 61 e9       	punpcklwd %xmm9,%xmm5
    41b4:	66 45 0f 69 d9       	punpckhwd %xmm9,%xmm11
    41b9:	66 44 0f 6f cd       	movdqa %xmm5,%xmm9
    41be:	66 45 0f 69 cb       	punpckhwd %xmm11,%xmm9
    41c3:	66 41 0f 61 eb       	punpcklwd %xmm11,%xmm5
    41c8:	66 45 0f ef db       	pxor   %xmm11,%xmm11
    41cd:	66 45 0f 65 d8       	pcmpgtw %xmm8,%xmm11
    41d2:	66 41 0f 61 e9       	punpcklwd %xmm9,%xmm5
    41d7:	66 0f db 2d c1 6e 00 	pand   0x6ec1(%rip),%xmm5        # b0a0 <_IO_stdin_used+0xa0>
    41de:	00 
    41df:	66 45 0f 61 e3       	punpcklwd %xmm11,%xmm12
    41e4:	66 45 0f 69 c3       	punpckhwd %xmm11,%xmm8
    41e9:	66 41 0f 72 f4 01    	pslld  $0x1,%xmm12
    41ef:	66 41 0f 72 f0 01    	pslld  $0x1,%xmm8
    41f5:	66 44 0f fe 25 92 6e 	paddd  0x6e92(%rip),%xmm12        # b090 <_IO_stdin_used+0x90>
    41fc:	00 00 
    41fe:	66 44 0f fe 05 89 6e 	paddd  0x6e89(%rip),%xmm8        # b090 <_IO_stdin_used+0x90>
    4205:	00 00 
    4207:	66 45 0f 6f cc       	movdqa %xmm12,%xmm9
    420c:	66 45 0f 6f d8       	movdqa %xmm8,%xmm11
    4211:	66 41 0f 72 f1 06    	pslld  $0x6,%xmm9
    4217:	66 41 0f 72 f3 06    	pslld  $0x6,%xmm11
    421d:	66 45 0f fa cc       	psubd  %xmm12,%xmm9
    4222:	66 45 0f fa d8       	psubd  %xmm8,%xmm11
    4227:	66 41 0f 72 f1 08    	pslld  $0x8,%xmm9
    422d:	66 41 0f 72 f3 08    	pslld  $0x8,%xmm11
    4233:	66 45 0f fa cc       	psubd  %xmm12,%xmm9
    4238:	66 45 0f fa d8       	psubd  %xmm8,%xmm11
    423d:	66 45 0f 6f e1       	movdqa %xmm9,%xmm12
    4242:	66 45 0f 6f c3       	movdqa %xmm11,%xmm8
    4247:	66 41 0f 72 f4 02    	pslld  $0x2,%xmm12
    424d:	66 41 0f 72 f0 02    	pslld  $0x2,%xmm8
    4253:	66 45 0f fe cc       	paddd  %xmm12,%xmm9
    4258:	66 45 0f fe c3       	paddd  %xmm11,%xmm8
    425d:	66 41 0f 72 d1 1c    	psrld  $0x1c,%xmm9
    4263:	66 41 0f 72 d0 1c    	psrld  $0x1c,%xmm8
    4269:	66 45 0f 6f d9       	movdqa %xmm9,%xmm11
    426e:	66 45 0f 61 c8       	punpcklwd %xmm8,%xmm9
    4273:	66 45 0f 69 d8       	punpckhwd %xmm8,%xmm11
    4278:	66 45 0f 6f c1       	movdqa %xmm9,%xmm8
    427d:	66 45 0f 61 cb       	punpcklwd %xmm11,%xmm9
    4282:	66 45 0f 69 c3       	punpckhwd %xmm11,%xmm8
    4287:	66 45 0f 61 c8       	punpcklwd %xmm8,%xmm9
    428c:	66 45 0f 6f c2       	movdqa %xmm10,%xmm8
    4291:	66 44 0f 6f d7       	movdqa %xmm7,%xmm10
    4296:	66 44 0f db 0d 01 6e 	pand   0x6e01(%rip),%xmm9        # b0a0 <_IO_stdin_used+0xa0>
    429d:	00 00 
    429f:	66 41 0f 67 e9       	packuswb %xmm9,%xmm5
    42a4:	66 45 0f ef c9       	pxor   %xmm9,%xmm9
    42a9:	66 44 0f 65 cf       	pcmpgtw %xmm7,%xmm9
    42ae:	66 0f fc ed          	paddb  %xmm5,%xmm5
    42b2:	66 0f fc ed          	paddb  %xmm5,%xmm5
    42b6:	66 0f db 2d 02 6e 00 	pand   0x6e02(%rip),%xmm5        # b0c0 <_IO_stdin_used+0xc0>
    42bd:	00 
    42be:	66 45 0f 61 d1       	punpcklwd %xmm9,%xmm10
    42c3:	66 41 0f 69 f9       	punpckhwd %xmm9,%xmm7
    42c8:	66 44 0f eb c5       	por    %xmm5,%xmm8
    42cd:	66 41 0f 72 f2 01    	pslld  $0x1,%xmm10
    42d3:	66 0f 72 f7 01       	pslld  $0x1,%xmm7
    42d8:	66 44 0f fe 15 af 6d 	paddd  0x6daf(%rip),%xmm10        # b090 <_IO_stdin_used+0x90>
    42df:	00 00 
    42e1:	66 0f fe 3d a7 6d 00 	paddd  0x6da7(%rip),%xmm7        # b090 <_IO_stdin_used+0x90>
    42e8:	00 
    42e9:	66 41 0f 6f c2       	movdqa %xmm10,%xmm0
    42ee:	66 44 0f 6f cf       	movdqa %xmm7,%xmm9
    42f3:	66 0f 72 f0 06       	pslld  $0x6,%xmm0
    42f8:	66 41 0f 72 f1 06    	pslld  $0x6,%xmm9
    42fe:	66 0f 6f e8          	movdqa %xmm0,%xmm5
    4302:	66 44 0f fa cf       	psubd  %xmm7,%xmm9
    4307:	66 41 0f fa ea       	psubd  %xmm10,%xmm5
    430c:	66 41 0f 72 f1 08    	pslld  $0x8,%xmm9
    4312:	66 0f 72 f5 08       	pslld  $0x8,%xmm5
    4317:	66 44 0f fa cf       	psubd  %xmm7,%xmm9
    431c:	66 41 0f fa ea       	psubd  %xmm10,%xmm5
    4321:	66 41 0f 6f c1       	movdqa %xmm9,%xmm0
    4326:	66 44 0f 6f d5       	movdqa %xmm5,%xmm10
    432b:	66 0f 72 f0 02       	pslld  $0x2,%xmm0
    4330:	66 41 0f 72 f2 02    	pslld  $0x2,%xmm10
    4336:	66 0f 6f f8          	movdqa %xmm0,%xmm7
    433a:	66 41 0f fe ea       	paddd  %xmm10,%xmm5
    433f:	66 44 0f 6f d6       	movdqa %xmm6,%xmm10
    4344:	66 41 0f fe f9       	paddd  %xmm9,%xmm7
    4349:	66 0f 72 d5 1c       	psrld  $0x1c,%xmm5
    434e:	66 0f 72 d7 1c       	psrld  $0x1c,%xmm7
    4353:	66 44 0f 6f cd       	movdqa %xmm5,%xmm9
    4358:	66 0f 61 ef          	punpcklwd %xmm7,%xmm5
    435c:	66 44 0f 69 cf       	punpckhwd %xmm7,%xmm9
    4361:	66 0f 6f c5          	movdqa %xmm5,%xmm0
    4365:	66 41 0f 61 e9       	punpcklwd %xmm9,%xmm5
    436a:	66 41 0f 69 c1       	punpckhwd %xmm9,%xmm0
    436f:	66 45 0f ef c9       	pxor   %xmm9,%xmm9
    4374:	66 44 0f 65 ce       	pcmpgtw %xmm6,%xmm9
    4379:	66 0f 61 e8          	punpcklwd %xmm0,%xmm5
    437d:	66 0f db 2d 1b 6d 00 	pand   0x6d1b(%rip),%xmm5        # b0a0 <_IO_stdin_used+0xa0>
    4384:	00 
    4385:	66 45 0f 61 d1       	punpcklwd %xmm9,%xmm10
    438a:	66 41 0f 69 f1       	punpckhwd %xmm9,%xmm6
    438f:	66 41 0f 72 f2 01    	pslld  $0x1,%xmm10
    4395:	66 0f 72 f6 01       	pslld  $0x1,%xmm6
    439a:	66 44 0f fe 15 ed 6c 	paddd  0x6ced(%rip),%xmm10        # b090 <_IO_stdin_used+0x90>
    43a1:	00 00 
    43a3:	66 0f fe 35 e5 6c 00 	paddd  0x6ce5(%rip),%xmm6        # b090 <_IO_stdin_used+0x90>
    43aa:	00 
    43ab:	66 41 0f 6f c2       	movdqa %xmm10,%xmm0
    43b0:	66 44 0f 6f ce       	movdqa %xmm6,%xmm9
    43b5:	66 0f 72 f0 06       	pslld  $0x6,%xmm0
    43ba:	66 41 0f 72 f1 06    	pslld  $0x6,%xmm9
    43c0:	66 0f 6f f8          	movdqa %xmm0,%xmm7
    43c4:	66 44 0f fa ce       	psubd  %xmm6,%xmm9
    43c9:	66 41 0f fa fa       	psubd  %xmm10,%xmm7
    43ce:	66 41 0f 72 f1 08    	pslld  $0x8,%xmm9
    43d4:	66 0f 72 f7 08       	pslld  $0x8,%xmm7
    43d9:	66 44 0f fa ce       	psubd  %xmm6,%xmm9
    43de:	66 41 0f fa fa       	psubd  %xmm10,%xmm7
    43e3:	66 41 0f 6f c1       	movdqa %xmm9,%xmm0
    43e8:	66 44 0f 6f d7       	movdqa %xmm7,%xmm10
    43ed:	66 0f 72 f0 02       	pslld  $0x2,%xmm0
    43f2:	66 41 0f 72 f2 02    	pslld  $0x2,%xmm10
    43f8:	66 0f 6f f0          	movdqa %xmm0,%xmm6
    43fc:	66 41 0f fe fa       	paddd  %xmm10,%xmm7
    4401:	66 41 0f fe f1       	paddd  %xmm9,%xmm6
    4406:	66 0f 72 d7 1c       	psrld  $0x1c,%xmm7
    440b:	66 0f 72 d6 1c       	psrld  $0x1c,%xmm6
    4410:	66 44 0f 6f cf       	movdqa %xmm7,%xmm9
    4415:	66 0f 61 fe          	punpcklwd %xmm6,%xmm7
    4419:	66 44 0f 69 ce       	punpckhwd %xmm6,%xmm9
    441e:	66 0f 6f c7          	movdqa %xmm7,%xmm0
    4422:	66 41 0f 61 f9       	punpcklwd %xmm9,%xmm7
    4427:	66 41 0f 69 c1       	punpckhwd %xmm9,%xmm0
    442c:	66 0f 61 f8          	punpcklwd %xmm0,%xmm7
    4430:	66 0f db 3d 68 6c 00 	pand   0x6c68(%rip),%xmm7        # b0a0 <_IO_stdin_used+0xa0>
    4437:	00 
    4438:	66 0f ef c0          	pxor   %xmm0,%xmm0
    443c:	66 0f 65 c4          	pcmpgtw %xmm4,%xmm0
    4440:	66 0f 67 ef          	packuswb %xmm7,%xmm5
    4444:	66 0f fc ed          	paddb  %xmm5,%xmm5
    4448:	66 0f fc ed          	paddb  %xmm5,%xmm5
    444c:	66 0f 6f f8          	movdqa %xmm0,%xmm7
    4450:	66 0f fc ed          	paddb  %xmm5,%xmm5
    4454:	66 0f db 2d 74 6c 00 	pand   0x6c74(%rip),%xmm5        # b0d0 <_IO_stdin_used+0xd0>
    445b:	00 
    445c:	66 41 0f eb e8       	por    %xmm8,%xmm5
    4461:	66 44 0f 6f c4       	movdqa %xmm4,%xmm8
    4466:	66 0f 69 e7          	punpckhwd %xmm7,%xmm4
    446a:	66 44 0f 61 c0       	punpcklwd %xmm0,%xmm8
    446f:	66 0f 72 f4 01       	pslld  $0x1,%xmm4
    4474:	66 41 0f 72 f0 01    	pslld  $0x1,%xmm8
    447a:	66 44 0f fe 05 0d 6c 	paddd  0x6c0d(%rip),%xmm8        # b090 <_IO_stdin_used+0x90>
    4481:	00 00 
    4483:	66 0f fe 25 05 6c 00 	paddd  0x6c05(%rip),%xmm4        # b090 <_IO_stdin_used+0x90>
    448a:	00 
    448b:	66 41 0f 6f c0       	movdqa %xmm8,%xmm0
    4490:	66 0f 72 f0 06       	pslld  $0x6,%xmm0
    4495:	66 0f 6f f0          	movdqa %xmm0,%xmm6
    4499:	66 0f 6f c4          	movdqa %xmm4,%xmm0
    449d:	66 0f 72 f0 06       	pslld  $0x6,%xmm0
    44a2:	66 41 0f fa f0       	psubd  %xmm8,%xmm6
    44a7:	66 0f 6f f8          	movdqa %xmm0,%xmm7
    44ab:	66 0f 72 f6 08       	pslld  $0x8,%xmm6
    44b0:	66 0f fa fc          	psubd  %xmm4,%xmm7
    44b4:	66 41 0f fa f0       	psubd  %xmm8,%xmm6
    44b9:	66 0f 72 f7 08       	pslld  $0x8,%xmm7
    44be:	66 44 0f 6f c6       	movdqa %xmm6,%xmm8
    44c3:	66 0f fa fc          	psubd  %xmm4,%xmm7
    44c7:	66 41 0f 72 f0 02    	pslld  $0x2,%xmm8
    44cd:	66 0f 6f e7          	movdqa %xmm7,%xmm4
    44d1:	66 41 0f fe f0       	paddd  %xmm8,%xmm6
    44d6:	66 45 0f ef c0       	pxor   %xmm8,%xmm8
    44db:	66 0f 72 f4 02       	pslld  $0x2,%xmm4
    44e0:	66 0f 72 d6 1c       	psrld  $0x1c,%xmm6
    44e5:	66 0f fe e7          	paddd  %xmm7,%xmm4
    44e9:	66 44 0f 65 c3       	pcmpgtw %xmm3,%xmm8
    44ee:	66 0f 6f c6          	movdqa %xmm6,%xmm0
    44f2:	66 0f 72 d4 1c       	psrld  $0x1c,%xmm4
    44f7:	66 0f 61 f4          	punpcklwd %xmm4,%xmm6
    44fb:	66 0f 69 c4          	punpckhwd %xmm4,%xmm0
    44ff:	66 0f 6f e6          	movdqa %xmm6,%xmm4
    4503:	66 0f 61 f0          	punpcklwd %xmm0,%xmm6
    4507:	66 0f 69 e0          	punpckhwd %xmm0,%xmm4
    450b:	66 0f 61 f4          	punpcklwd %xmm4,%xmm6
    450f:	66 0f 6f e3          	movdqa %xmm3,%xmm4
    4513:	66 41 0f 61 e0       	punpcklwd %xmm8,%xmm4
    4518:	66 0f 72 f4 01       	pslld  $0x1,%xmm4
    451d:	66 0f fe 25 6b 6b 00 	paddd  0x6b6b(%rip),%xmm4        # b090 <_IO_stdin_used+0x90>
    4524:	00 
    4525:	66 0f 6f c4          	movdqa %xmm4,%xmm0
    4529:	66 0f 72 f0 06       	pslld  $0x6,%xmm0
    452e:	66 0f 6f f8          	movdqa %xmm0,%xmm7
    4532:	66 0f fa fc          	psubd  %xmm4,%xmm7
    4536:	66 0f 72 f7 08       	pslld  $0x8,%xmm7
    453b:	66 0f fa fc          	psubd  %xmm4,%xmm7
    453f:	66 0f 6f e7          	movdqa %xmm7,%xmm4
    4543:	66 0f 72 f4 02       	pslld  $0x2,%xmm4
    4548:	66 0f fe fc          	paddd  %xmm4,%xmm7
    454c:	66 0f 6f e3          	movdqa %xmm3,%xmm4
    4550:	66 41 0f 69 e0       	punpckhwd %xmm8,%xmm4
    4555:	66 0f 72 d7 1c       	psrld  $0x1c,%xmm7
    455a:	66 0f 72 f4 01       	pslld  $0x1,%xmm4
    455f:	66 0f fe 25 29 6b 00 	paddd  0x6b29(%rip),%xmm4        # b090 <_IO_stdin_used+0x90>
    4566:	00 
    4567:	66 0f 6f dc          	movdqa %xmm4,%xmm3
    456b:	66 0f 72 f3 06       	pslld  $0x6,%xmm3
    4570:	66 0f fa dc          	psubd  %xmm4,%xmm3
    4574:	66 0f 72 f3 08       	pslld  $0x8,%xmm3
    4579:	66 0f fa dc          	psubd  %xmm4,%xmm3
    457d:	66 0f 6f e3          	movdqa %xmm3,%xmm4
    4581:	66 0f 72 f4 02       	pslld  $0x2,%xmm4
    4586:	66 0f fe dc          	paddd  %xmm4,%xmm3
    458a:	66 0f 6f e7          	movdqa %xmm7,%xmm4
    458e:	66 0f 72 d3 1c       	psrld  $0x1c,%xmm3
    4593:	66 0f 61 fb          	punpcklwd %xmm3,%xmm7
    4597:	66 0f 69 e3          	punpckhwd %xmm3,%xmm4
    459b:	66 0f 6f df          	movdqa %xmm7,%xmm3
    459f:	66 0f 61 fc          	punpcklwd %xmm4,%xmm7
    45a3:	66 0f 69 dc          	punpckhwd %xmm4,%xmm3
    45a7:	66 0f ef e4          	pxor   %xmm4,%xmm4
    45ab:	66 0f 61 fb          	punpcklwd %xmm3,%xmm7
    45af:	66 0f 6f 1d e9 6a 00 	movdqa 0x6ae9(%rip),%xmm3        # b0a0 <_IO_stdin_used+0xa0>
    45b6:	00 
    45b7:	66 0f db 3d e1 6a 00 	pand   0x6ae1(%rip),%xmm7        # b0a0 <_IO_stdin_used+0xa0>
    45be:	00 
    45bf:	66 0f 65 e2          	pcmpgtw %xmm2,%xmm4
    45c3:	66 0f db de          	pand   %xmm6,%xmm3
    45c7:	66 0f 67 df          	packuswb %xmm7,%xmm3
    45cb:	66 0f 6f 7c 24 c8    	movdqa -0x38(%rsp),%xmm7
    45d1:	66 0f fc db          	paddb  %xmm3,%xmm3
    45d5:	66 0f 6f f4          	movdqa %xmm4,%xmm6
    45d9:	66 0f 6f e2          	movdqa %xmm2,%xmm4
    45dd:	66 0f fc db          	paddb  %xmm3,%xmm3
    45e1:	66 0f 61 e6          	punpcklwd %xmm6,%xmm4
    45e5:	66 0f 69 d6          	punpckhwd %xmm6,%xmm2
    45e9:	66 0f fc db          	paddb  %xmm3,%xmm3
    45ed:	66 0f 72 f2 01       	pslld  $0x1,%xmm2
    45f2:	66 0f fe 15 96 6a 00 	paddd  0x6a96(%rip),%xmm2        # b090 <_IO_stdin_used+0x90>
    45f9:	00 
    45fa:	66 0f fc db          	paddb  %xmm3,%xmm3
    45fe:	66 0f db 1d da 6a 00 	pand   0x6ada(%rip),%xmm3        # b0e0 <_IO_stdin_used+0xe0>
    4605:	00 
    4606:	66 0f eb dd          	por    %xmm5,%xmm3
    460a:	66 0f 6f ec          	movdqa %xmm4,%xmm5
    460e:	66 0f 72 f5 01       	pslld  $0x1,%xmm5
    4613:	66 0f fe 2d 75 6a 00 	paddd  0x6a75(%rip),%xmm5        # b090 <_IO_stdin_used+0x90>
    461a:	00 
    461b:	66 0f 6f e5          	movdqa %xmm5,%xmm4
    461f:	66 0f 72 f4 06       	pslld  $0x6,%xmm4
    4624:	66 0f fa e5          	psubd  %xmm5,%xmm4
    4628:	66 0f 72 f4 08       	pslld  $0x8,%xmm4
    462d:	66 0f fa e5          	psubd  %xmm5,%xmm4
    4631:	66 0f 6f c4          	movdqa %xmm4,%xmm0
    4635:	66 0f 72 f0 02       	pslld  $0x2,%xmm0
    463a:	66 0f fe e0          	paddd  %xmm0,%xmm4
    463e:	66 0f 6f c2          	movdqa %xmm2,%xmm0
    4642:	66 0f 72 f0 06       	pslld  $0x6,%xmm0
    4647:	66 0f 72 d4 1c       	psrld  $0x1c,%xmm4
    464c:	66 0f 6f e8          	movdqa %xmm0,%xmm5
    4650:	66 0f 6f c4          	movdqa %xmm4,%xmm0
    4654:	66 0f fa ea          	psubd  %xmm2,%xmm5
    4658:	66 0f 72 f5 08       	pslld  $0x8,%xmm5
    465d:	66 0f fa ea          	psubd  %xmm2,%xmm5
    4661:	66 0f 6f d5          	movdqa %xmm5,%xmm2
    4665:	66 0f 72 f2 02       	pslld  $0x2,%xmm2
    466a:	66 0f fe d5          	paddd  %xmm5,%xmm2
    466e:	66 0f 72 d2 1c       	psrld  $0x1c,%xmm2
    4673:	66 0f 61 e2          	punpcklwd %xmm2,%xmm4
    4677:	66 0f 69 c2          	punpckhwd %xmm2,%xmm0
    467b:	66 0f 6f d4          	movdqa %xmm4,%xmm2
    467f:	66 0f 61 e0          	punpcklwd %xmm0,%xmm4
    4683:	66 0f 69 d0          	punpckhwd %xmm0,%xmm2
    4687:	66 0f 61 e2          	punpcklwd %xmm2,%xmm4
    468b:	66 0f ef d2          	pxor   %xmm2,%xmm2
    468f:	66 0f db 25 09 6a 00 	pand   0x6a09(%rip),%xmm4        # b0a0 <_IO_stdin_used+0xa0>
    4696:	00 
    4697:	66 0f 65 d1          	pcmpgtw %xmm1,%xmm2
    469b:	66 0f 6f f2          	movdqa %xmm2,%xmm6
    469f:	66 0f 6f d1          	movdqa %xmm1,%xmm2
    46a3:	66 0f 61 d6          	punpcklwd %xmm6,%xmm2
    46a7:	66 0f 72 f2 01       	pslld  $0x1,%xmm2
    46ac:	66 0f fe 15 dc 69 00 	paddd  0x69dc(%rip),%xmm2        # b090 <_IO_stdin_used+0x90>
    46b3:	00 
    46b4:	66 0f 6f c2          	movdqa %xmm2,%xmm0
    46b8:	66 0f 72 f0 06       	pslld  $0x6,%xmm0
    46bd:	66 0f 6f e8          	movdqa %xmm0,%xmm5
    46c1:	66 0f fa ea          	psubd  %xmm2,%xmm5
    46c5:	66 0f 72 f5 08       	pslld  $0x8,%xmm5
    46ca:	66 0f fa ea          	psubd  %xmm2,%xmm5
    46ce:	66 0f 6f d5          	movdqa %xmm5,%xmm2
    46d2:	66 0f 72 f2 02       	pslld  $0x2,%xmm2
    46d7:	66 0f fe ea          	paddd  %xmm2,%xmm5
    46db:	66 0f 6f d1          	movdqa %xmm1,%xmm2
    46df:	66 0f 69 d6          	punpckhwd %xmm6,%xmm2
    46e3:	66 0f 72 d5 1c       	psrld  $0x1c,%xmm5
    46e8:	66 0f 6f 74 24 d8    	movdqa -0x28(%rsp),%xmm6
    46ee:	66 0f 72 f2 01       	pslld  $0x1,%xmm2
    46f3:	66 0f fe 15 95 69 00 	paddd  0x6995(%rip),%xmm2        # b090 <_IO_stdin_used+0x90>
    46fa:	00 
    46fb:	66 0f 6f ca          	movdqa %xmm2,%xmm1
    46ff:	66 0f 72 f1 06       	pslld  $0x6,%xmm1
    4704:	66 0f fa ca          	psubd  %xmm2,%xmm1
    4708:	66 0f 72 f1 08       	pslld  $0x8,%xmm1
    470d:	66 0f fa ca          	psubd  %xmm2,%xmm1
    4711:	66 0f 6f d1          	movdqa %xmm1,%xmm2
    4715:	66 0f 72 f2 02       	pslld  $0x2,%xmm2
    471a:	66 0f fe ca          	paddd  %xmm2,%xmm1
    471e:	66 0f 6f d5          	movdqa %xmm5,%xmm2
    4722:	66 0f 72 d1 1c       	psrld  $0x1c,%xmm1
    4727:	66 0f 61 e9          	punpcklwd %xmm1,%xmm5
    472b:	66 0f 69 d1          	punpckhwd %xmm1,%xmm2
    472f:	66 0f 6f cd          	movdqa %xmm5,%xmm1
    4733:	66 0f 61 ea          	punpcklwd %xmm2,%xmm5
    4737:	66 0f 69 ca          	punpckhwd %xmm2,%xmm1
    473b:	66 0f 6f d3          	movdqa %xmm3,%xmm2
    473f:	66 0f 6f df          	movdqa %xmm7,%xmm3
    4743:	66 0f 61 e9          	punpcklwd %xmm1,%xmm5
    4747:	66 0f db 2d 51 69 00 	pand   0x6951(%rip),%xmm5        # b0a0 <_IO_stdin_used+0xa0>
    474e:	00 
    474f:	66 0f 6f cc          	movdqa %xmm4,%xmm1
    4753:	66 0f ef e4          	pxor   %xmm4,%xmm4
    4757:	66 0f 67 cd          	packuswb %xmm5,%xmm1
    475b:	66 0f 65 e7          	pcmpgtw %xmm7,%xmm4
    475f:	66 0f fc c9          	paddb  %xmm1,%xmm1
    4763:	66 0f fc c9          	paddb  %xmm1,%xmm1
    4767:	66 0f fc c9          	paddb  %xmm1,%xmm1
    476b:	66 0f 61 dc          	punpcklwd %xmm4,%xmm3
    476f:	66 0f 69 fc          	punpckhwd %xmm4,%xmm7
    4773:	66 0f fc c9          	paddb  %xmm1,%xmm1
    4777:	66 0f 72 f3 01       	pslld  $0x1,%xmm3
    477c:	66 0f fe 1d 0c 69 00 	paddd  0x690c(%rip),%xmm3        # b090 <_IO_stdin_used+0x90>
    4783:	00 
    4784:	66 0f fc c9          	paddb  %xmm1,%xmm1
    4788:	66 0f db 0d 60 69 00 	pand   0x6960(%rip),%xmm1        # b0f0 <_IO_stdin_used+0xf0>
    478f:	00 
    4790:	66 0f 6f c7          	movdqa %xmm7,%xmm0
    4794:	66 0f 6f 7c 24 e8    	movdqa -0x18(%rsp),%xmm7
    479a:	66 0f 72 f0 01       	pslld  $0x1,%xmm0
    479f:	66 0f fe 05 e9 68 00 	paddd  0x68e9(%rip),%xmm0        # b090 <_IO_stdin_used+0x90>
    47a6:	00 
    47a7:	66 0f ef e4          	pxor   %xmm4,%xmm4
    47ab:	66 0f eb d1          	por    %xmm1,%xmm2
    47af:	66 0f 65 e7          	pcmpgtw %xmm7,%xmm4
    47b3:	66 0f 6f cb          	movdqa %xmm3,%xmm1
    47b7:	66 0f 72 f1 06       	pslld  $0x6,%xmm1
    47bc:	66 0f fa cb          	psubd  %xmm3,%xmm1
    47c0:	66 0f 72 f1 08       	pslld  $0x8,%xmm1
    47c5:	66 0f 6f ec          	movdqa %xmm4,%xmm5
    47c9:	66 0f fa cb          	psubd  %xmm3,%xmm1
    47cd:	66 0f 6f d9          	movdqa %xmm1,%xmm3
    47d1:	66 0f 72 f3 02       	pslld  $0x2,%xmm3
    47d6:	66 0f fe cb          	paddd  %xmm3,%xmm1
    47da:	66 0f 6f d8          	movdqa %xmm0,%xmm3
    47de:	66 0f 72 f3 06       	pslld  $0x6,%xmm3
    47e3:	66 0f 72 d1 1c       	psrld  $0x1c,%xmm1
    47e8:	66 0f fa d8          	psubd  %xmm0,%xmm3
    47ec:	66 0f 72 f3 08       	pslld  $0x8,%xmm3
    47f1:	66 0f fa d8          	psubd  %xmm0,%xmm3
    47f5:	66 0f 6f c3          	movdqa %xmm3,%xmm0
    47f9:	66 0f 72 f0 02       	pslld  $0x2,%xmm0
    47fe:	66 0f fe c3          	paddd  %xmm3,%xmm0
    4802:	66 0f 6f d9          	movdqa %xmm1,%xmm3
    4806:	66 0f 72 d0 1c       	psrld  $0x1c,%xmm0
    480b:	66 0f 61 c8          	punpcklwd %xmm0,%xmm1
    480f:	66 0f 69 d8          	punpckhwd %xmm0,%xmm3
    4813:	66 0f 6f c1          	movdqa %xmm1,%xmm0
    4817:	66 0f 61 cb          	punpcklwd %xmm3,%xmm1
    481b:	66 0f 69 c3          	punpckhwd %xmm3,%xmm0
    481f:	66 0f 61 c8          	punpcklwd %xmm0,%xmm1
    4823:	66 0f 6f c7          	movdqa %xmm7,%xmm0
    4827:	66 0f db 0d 71 68 00 	pand   0x6871(%rip),%xmm1        # b0a0 <_IO_stdin_used+0xa0>
    482e:	00 
    482f:	66 0f 61 c4          	punpcklwd %xmm4,%xmm0
    4833:	66 0f 72 f0 01       	pslld  $0x1,%xmm0
    4838:	66 0f fe 05 50 68 00 	paddd  0x6850(%rip),%xmm0        # b090 <_IO_stdin_used+0x90>
    483f:	00 
    4840:	66 0f 6f d8          	movdqa %xmm0,%xmm3
    4844:	66 0f 72 f3 06       	pslld  $0x6,%xmm3
    4849:	66 0f fa d8          	psubd  %xmm0,%xmm3
    484d:	66 0f 72 f3 08       	pslld  $0x8,%xmm3
    4852:	66 0f fa d8          	psubd  %xmm0,%xmm3
    4856:	66 0f 6f c3          	movdqa %xmm3,%xmm0
    485a:	66 0f 72 f0 02       	pslld  $0x2,%xmm0
    485f:	66 0f fe d8          	paddd  %xmm0,%xmm3
    4863:	66 0f 6f c7          	movdqa %xmm7,%xmm0
    4867:	66 0f 6f 7c 24 b8    	movdqa -0x48(%rsp),%xmm7
    486d:	66 0f 69 c5          	punpckhwd %xmm5,%xmm0
    4871:	66 0f 6f e3          	movdqa %xmm3,%xmm4
    4875:	66 0f 72 f0 01       	pslld  $0x1,%xmm0
    487a:	66 0f fe 05 0e 68 00 	paddd  0x680e(%rip),%xmm0        # b090 <_IO_stdin_used+0x90>
    4881:	00 
    4882:	66 0f 72 d4 1c       	psrld  $0x1c,%xmm4
    4887:	66 0f 6f d8          	movdqa %xmm0,%xmm3
    488b:	66 0f 72 f3 06       	pslld  $0x6,%xmm3
    4890:	66 0f fa d8          	psubd  %xmm0,%xmm3
    4894:	66 0f 72 f3 08       	pslld  $0x8,%xmm3
    4899:	66 0f fa d8          	psubd  %xmm0,%xmm3
    489d:	66 0f 6f c3          	movdqa %xmm3,%xmm0
    48a1:	66 0f 72 f0 02       	pslld  $0x2,%xmm0
    48a6:	66 0f fe c3          	paddd  %xmm3,%xmm0
    48aa:	66 0f 6f dc          	movdqa %xmm4,%xmm3
    48ae:	66 0f 72 d0 1c       	psrld  $0x1c,%xmm0
    48b3:	66 0f 69 d8          	punpckhwd %xmm0,%xmm3
    48b7:	66 0f 6f eb          	movdqa %xmm3,%xmm5
    48bb:	66 0f 6f dc          	movdqa %xmm4,%xmm3
    48bf:	66 0f ef e4          	pxor   %xmm4,%xmm4
    48c3:	66 0f 61 d8          	punpcklwd %xmm0,%xmm3
    48c7:	66 0f 65 e7          	pcmpgtw %xmm7,%xmm4
    48cb:	66 0f 6f c3          	movdqa %xmm3,%xmm0
    48cf:	66 0f 61 dd          	punpcklwd %xmm5,%xmm3
    48d3:	66 0f 69 c5          	punpckhwd %xmm5,%xmm0
    48d7:	66 0f 61 d8          	punpcklwd %xmm0,%xmm3
    48db:	66 0f db 1d bd 67 00 	pand   0x67bd(%rip),%xmm3        # b0a0 <_IO_stdin_used+0xa0>
    48e2:	00 
    48e3:	66 0f 67 cb          	packuswb %xmm3,%xmm1
    48e7:	66 0f ef db          	pxor   %xmm3,%xmm3
    48eb:	66 0f fc c9          	paddb  %xmm1,%xmm1
    48ef:	66 0f 65 de          	pcmpgtw %xmm6,%xmm3
    48f3:	66 0f fc c9          	paddb  %xmm1,%xmm1
    48f7:	66 0f fc c9          	paddb  %xmm1,%xmm1
    48fb:	66 0f fc c9          	paddb  %xmm1,%xmm1
    48ff:	66 0f fc c9          	paddb  %xmm1,%xmm1
    4903:	66 0f fc c9          	paddb  %xmm1,%xmm1
    4907:	66 0f db 0d f1 67 00 	pand   0x67f1(%rip),%xmm1        # b100 <_IO_stdin_used+0x100>
    490e:	00 
    490f:	66 0f eb d1          	por    %xmm1,%xmm2
    4913:	66 0f 6f c2          	movdqa %xmm2,%xmm0
    4917:	66 0f 6f d6          	movdqa %xmm6,%xmm2
    491b:	66 0f 69 f3          	punpckhwd %xmm3,%xmm6
    491f:	66 0f 61 d3          	punpcklwd %xmm3,%xmm2
    4923:	66 0f 72 f2 01       	pslld  $0x1,%xmm2
    4928:	66 0f fe 15 60 67 00 	paddd  0x6760(%rip),%xmm2        # b090 <_IO_stdin_used+0x90>
    492f:	00 
    4930:	66 0f 6f ca          	movdqa %xmm2,%xmm1
    4934:	66 0f 72 f1 06       	pslld  $0x6,%xmm1
    4939:	66 0f fa ca          	psubd  %xmm2,%xmm1
    493d:	66 0f 72 f1 08       	pslld  $0x8,%xmm1
    4942:	66 0f fa ca          	psubd  %xmm2,%xmm1
    4946:	66 0f 6f d1          	movdqa %xmm1,%xmm2
    494a:	66 0f 72 f2 02       	pslld  $0x2,%xmm2
    494f:	66 0f fe ca          	paddd  %xmm2,%xmm1
    4953:	66 0f 6f d6          	movdqa %xmm6,%xmm2
    4957:	66 0f 72 f2 01       	pslld  $0x1,%xmm2
    495c:	66 0f fe 15 2c 67 00 	paddd  0x672c(%rip),%xmm2        # b090 <_IO_stdin_used+0x90>
    4963:	00 
    4964:	66 0f 72 d1 1c       	psrld  $0x1c,%xmm1
    4969:	66 0f 6f da          	movdqa %xmm2,%xmm3
    496d:	66 0f 72 f3 06       	pslld  $0x6,%xmm3
    4972:	66 0f fa da          	psubd  %xmm2,%xmm3
    4976:	66 0f 72 f3 08       	pslld  $0x8,%xmm3
    497b:	66 0f fa da          	psubd  %xmm2,%xmm3
    497f:	66 0f 6f d3          	movdqa %xmm3,%xmm2
    4983:	66 0f 72 f2 02       	pslld  $0x2,%xmm2
    4988:	66 0f fe d3          	paddd  %xmm3,%xmm2
    498c:	66 0f 6f d9          	movdqa %xmm1,%xmm3
    4990:	66 0f 72 d2 1c       	psrld  $0x1c,%xmm2
    4995:	66 0f 61 ca          	punpcklwd %xmm2,%xmm1
    4999:	66 0f 69 da          	punpckhwd %xmm2,%xmm3
    499d:	66 0f 6f d1          	movdqa %xmm1,%xmm2
    49a1:	66 0f 61 cb          	punpcklwd %xmm3,%xmm1
    49a5:	66 0f 69 d3          	punpckhwd %xmm3,%xmm2
    49a9:	66 0f 6f df          	movdqa %xmm7,%xmm3
    49ad:	66 0f 69 fc          	punpckhwd %xmm4,%xmm7
    49b1:	66 0f 61 dc          	punpcklwd %xmm4,%xmm3
    49b5:	66 0f 61 ca          	punpcklwd %xmm2,%xmm1
    49b9:	66 0f db 0d df 66 00 	pand   0x66df(%rip),%xmm1        # b0a0 <_IO_stdin_used+0xa0>
    49c0:	00 
    49c1:	66 0f 72 f3 01       	pslld  $0x1,%xmm3
    49c6:	66 0f fe 1d c2 66 00 	paddd  0x66c2(%rip),%xmm3        # b090 <_IO_stdin_used+0x90>
    49cd:	00 
    49ce:	66 0f 6f d3          	movdqa %xmm3,%xmm2
    49d2:	66 0f 72 f2 06       	pslld  $0x6,%xmm2
    49d7:	66 0f fa d3          	psubd  %xmm3,%xmm2
    49db:	66 0f 72 f2 08       	pslld  $0x8,%xmm2
    49e0:	66 0f fa d3          	psubd  %xmm3,%xmm2
    49e4:	66 0f 6f da          	movdqa %xmm2,%xmm3
    49e8:	66 0f 72 f3 02       	pslld  $0x2,%xmm3
    49ed:	66 0f fe d3          	paddd  %xmm3,%xmm2
    49f1:	66 0f 6f df          	movdqa %xmm7,%xmm3
    49f5:	66 0f 72 f3 01       	pslld  $0x1,%xmm3
    49fa:	66 0f fe 1d 8e 66 00 	paddd  0x668e(%rip),%xmm3        # b090 <_IO_stdin_used+0x90>
    4a01:	00 
    4a02:	66 0f 72 d2 1c       	psrld  $0x1c,%xmm2
    4a07:	66 0f 6f e3          	movdqa %xmm3,%xmm4
    4a0b:	66 0f 72 f4 06       	pslld  $0x6,%xmm4
    4a10:	66 0f fa e3          	psubd  %xmm3,%xmm4
    4a14:	66 0f 72 f4 08       	pslld  $0x8,%xmm4
    4a19:	66 0f fa e3          	psubd  %xmm3,%xmm4
    4a1d:	66 0f 6f dc          	movdqa %xmm4,%xmm3
    4a21:	66 0f 72 f3 02       	pslld  $0x2,%xmm3
    4a26:	66 0f fe dc          	paddd  %xmm4,%xmm3
    4a2a:	66 0f 6f e2          	movdqa %xmm2,%xmm4
    4a2e:	66 0f 72 d3 1c       	psrld  $0x1c,%xmm3
    4a33:	66 0f 61 d3          	punpcklwd %xmm3,%xmm2
    4a37:	66 0f 69 e3          	punpckhwd %xmm3,%xmm4
    4a3b:	66 0f 6f da          	movdqa %xmm2,%xmm3
    4a3f:	66 0f 61 d4          	punpcklwd %xmm4,%xmm2
    4a43:	66 0f 69 dc          	punpckhwd %xmm4,%xmm3
    4a47:	66 0f 61 d3          	punpcklwd %xmm3,%xmm2
    4a4b:	66 0f db 15 4d 66 00 	pand   0x664d(%rip),%xmm2        # b0a0 <_IO_stdin_used+0xa0>
    4a52:	00 
    4a53:	66 0f 67 ca          	packuswb %xmm2,%xmm1
    4a57:	66 0f fc c9          	paddb  %xmm1,%xmm1
    4a5b:	66 0f fc c9          	paddb  %xmm1,%xmm1
    4a5f:	66 0f fc c9          	paddb  %xmm1,%xmm1
    4a63:	66 0f fc c9          	paddb  %xmm1,%xmm1
    4a67:	66 0f fc c9          	paddb  %xmm1,%xmm1
    4a6b:	66 0f fc c9          	paddb  %xmm1,%xmm1
    4a6f:	66 0f fc c9          	paddb  %xmm1,%xmm1
    4a73:	66 0f eb c1          	por    %xmm1,%xmm0
    4a77:	0f 11 41 f0          	movups %xmm0,-0x10(%rcx)
    4a7b:	48 39 c1             	cmp    %rax,%rcx
    4a7e:	0f 85 3f ed ff ff    	jne    37c3 <pqcrystals_kyber1024_ref_poly_tomsg+0x23>
    4a84:	c3                   	ret    
    4a85:	0f 1f 00             	nopl   (%rax)
    4a88:	c6 01 00             	movb   $0x0,(%rcx)
    4a8b:	0f bf 02             	movswl (%rdx),%eax
    4a8e:	48 83 c1 01          	add    $0x1,%rcx
    4a92:	8d 84 00 81 06 00 00 	lea    0x681(%rax,%rax,1),%eax
    4a99:	69 c0 fb 3a 01 00    	imul   $0x13afb,%eax,%eax
    4a9f:	c1 e8 1c             	shr    $0x1c,%eax
    4aa2:	83 e0 01             	and    $0x1,%eax
    4aa5:	88 41 ff             	mov    %al,-0x1(%rcx)
    4aa8:	0f bf 72 02          	movswl 0x2(%rdx),%esi
    4aac:	8d b4 36 81 06 00 00 	lea    0x681(%rsi,%rsi,1),%esi
    4ab3:	69 f6 fb 3a 01 00    	imul   $0x13afb,%esi,%esi
    4ab9:	c1 ee 1b             	shr    $0x1b,%esi
    4abc:	83 e6 02             	and    $0x2,%esi
    4abf:	09 f0                	or     %esi,%eax
    4ac1:	88 41 ff             	mov    %al,-0x1(%rcx)
    4ac4:	0f bf 72 04          	movswl 0x4(%rdx),%esi
    4ac8:	8d b4 36 81 06 00 00 	lea    0x681(%rsi,%rsi,1),%esi
    4acf:	69 f6 fb 3a 01 00    	imul   $0x13afb,%esi,%esi
    4ad5:	c1 ee 1a             	shr    $0x1a,%esi
    4ad8:	83 e6 04             	and    $0x4,%esi
    4adb:	09 f0                	or     %esi,%eax
    4add:	88 41 ff             	mov    %al,-0x1(%rcx)
    4ae0:	0f bf 72 06          	movswl 0x6(%rdx),%esi
    4ae4:	8d b4 36 81 06 00 00 	lea    0x681(%rsi,%rsi,1),%esi
    4aeb:	69 f6 fb 3a 01 00    	imul   $0x13afb,%esi,%esi
    4af1:	c1 ee 19             	shr    $0x19,%esi
    4af4:	83 e6 08             	and    $0x8,%esi
    4af7:	09 f0                	or     %esi,%eax
    4af9:	88 41 ff             	mov    %al,-0x1(%rcx)
    4afc:	0f bf 72 08          	movswl 0x8(%rdx),%esi
    4b00:	8d b4 36 81 06 00 00 	lea    0x681(%rsi,%rsi,1),%esi
    4b07:	69 f6 fb 3a 01 00    	imul   $0x13afb,%esi,%esi
    4b0d:	c1 ee 18             	shr    $0x18,%esi
    4b10:	83 e6 10             	and    $0x10,%esi
    4b13:	09 f0                	or     %esi,%eax
    4b15:	88 41 ff             	mov    %al,-0x1(%rcx)
    4b18:	0f bf 72 0a          	movswl 0xa(%rdx),%esi
    4b1c:	8d b4 36 81 06 00 00 	lea    0x681(%rsi,%rsi,1),%esi
    4b23:	69 f6 fb 3a 01 00    	imul   $0x13afb,%esi,%esi
    4b29:	c1 ee 17             	shr    $0x17,%esi
    4b2c:	83 e6 20             	and    $0x20,%esi
    4b2f:	09 f0                	or     %esi,%eax
    4b31:	88 41 ff             	mov    %al,-0x1(%rcx)
    4b34:	0f bf 72 0c          	movswl 0xc(%rdx),%esi
    4b38:	8d b4 36 81 06 00 00 	lea    0x681(%rsi,%rsi,1),%esi
    4b3f:	69 f6 fb 3a 01 00    	imul   $0x13afb,%esi,%esi
    4b45:	c1 ee 16             	shr    $0x16,%esi
    4b48:	83 e6 40             	and    $0x40,%esi
    4b4b:	09 f0                	or     %esi,%eax
    4b4d:	88 41 ff             	mov    %al,-0x1(%rcx)
    4b50:	0f bf 72 0e          	movswl 0xe(%rdx),%esi
    4b54:	8d b4 36 81 06 00 00 	lea    0x681(%rsi,%rsi,1),%esi
    4b5b:	69 f6 fb 3a 01 00    	imul   $0x13afb,%esi,%esi
    4b61:	c1 ee 1c             	shr    $0x1c,%esi
    4b64:	c1 e6 07             	shl    $0x7,%esi
    4b67:	09 f0                	or     %esi,%eax
    4b69:	88 41 ff             	mov    %al,-0x1(%rcx)
    4b6c:	48 83 c2 10          	add    $0x10,%rdx
    4b70:	49 39 d0             	cmp    %rdx,%r8
    4b73:	0f 85 0f ff ff ff    	jne    4a88 <pqcrystals_kyber1024_ref_poly_tomsg+0x12e8>
    4b79:	c3                   	ret    
    4b7a:	66 0f 1f 44 00 00    	nopw   0x0(%rax,%rax,1)

0000000000004b80 <pqcrystals_kyber1024_ref_poly_getnoise_eta1>:
    4b80:	f3 0f 1e fa          	endbr64 
    4b84:	41 54                	push   %r12
    4b86:	0f b6 ca             	movzbl %dl,%ecx
    4b89:	48 89 f2             	mov    %rsi,%rdx
    4b8c:	be 80 00 00 00       	mov    $0x80,%esi
    4b91:	55                   	push   %rbp
    4b92:	48 89 fd             	mov    %rdi,%rbp
    4b95:	48 81 ec 98 00 00 00 	sub    $0x98,%rsp
    4b9c:	64 48 8b 04 25 28 00 	mov    %fs:0x28,%rax
    4ba3:	00 00 
    4ba5:	48 89 84 24 88 00 00 	mov    %rax,0x88(%rsp)
    4bac:	00 
    4bad:	31 c0                	xor    %eax,%eax
    4baf:	49 89 e4             	mov    %rsp,%r12
    4bb2:	4c 89 e7             	mov    %r12,%rdi
    4bb5:	e8 b6 57 00 00       	call   a370 <pqcrystals_kyber1024_ref_kyber_shake256_prf>
    4bba:	4c 89 e6             	mov    %r12,%rsi
    4bbd:	48 89 ef             	mov    %rbp,%rdi
    4bc0:	e8 5b 0b 00 00       	call   5720 <pqcrystals_kyber1024_ref_poly_cbd_eta1>
    4bc5:	48 8b 84 24 88 00 00 	mov    0x88(%rsp),%rax
    4bcc:	00 
    4bcd:	64 48 2b 04 25 28 00 	sub    %fs:0x28,%rax
    4bd4:	00 00 
    4bd6:	75 0b                	jne    4be3 <pqcrystals_kyber1024_ref_poly_getnoise_eta1+0x63>
    4bd8:	48 81 c4 98 00 00 00 	add    $0x98,%rsp
    4bdf:	5d                   	pop    %rbp
    4be0:	41 5c                	pop    %r12
    4be2:	c3                   	ret    
    4be3:	e8 98 c5 ff ff       	call   1180 <__stack_chk_fail@plt>
    4be8:	0f 1f 84 00 00 00 00 	nopl   0x0(%rax,%rax,1)
    4bef:	00 

0000000000004bf0 <pqcrystals_kyber1024_ref_poly_getnoise_eta2>:
    4bf0:	f3 0f 1e fa          	endbr64 
    4bf4:	41 54                	push   %r12
    4bf6:	0f b6 ca             	movzbl %dl,%ecx
    4bf9:	48 89 f2             	mov    %rsi,%rdx
    4bfc:	be 80 00 00 00       	mov    $0x80,%esi
    4c01:	55                   	push   %rbp
    4c02:	48 89 fd             	mov    %rdi,%rbp
    4c05:	48 81 ec 98 00 00 00 	sub    $0x98,%rsp
    4c0c:	64 48 8b 04 25 28 00 	mov    %fs:0x28,%rax
    4c13:	00 00 
    4c15:	48 89 84 24 88 00 00 	mov    %rax,0x88(%rsp)
    4c1c:	00 
    4c1d:	31 c0                	xor    %eax,%eax
    4c1f:	49 89 e4             	mov    %rsp,%r12
    4c22:	4c 89 e7             	mov    %r12,%rdi
    4c25:	e8 46 57 00 00       	call   a370 <pqcrystals_kyber1024_ref_kyber_shake256_prf>
    4c2a:	4c 89 e6             	mov    %r12,%rsi
    4c2d:	48 89 ef             	mov    %rbp,%rdi
    4c30:	e8 fb 0a 00 00       	call   5730 <pqcrystals_kyber1024_ref_poly_cbd_eta2>
    4c35:	48 8b 84 24 88 00 00 	mov    0x88(%rsp),%rax
    4c3c:	00 
    4c3d:	64 48 2b 04 25 28 00 	sub    %fs:0x28,%rax
    4c44:	00 00 
    4c46:	75 0b                	jne    4c53 <pqcrystals_kyber1024_ref_poly_getnoise_eta2+0x63>
    4c48:	48 81 c4 98 00 00 00 	add    $0x98,%rsp
    4c4f:	5d                   	pop    %rbp
    4c50:	41 5c                	pop    %r12
    4c52:	c3                   	ret    
    4c53:	e8 28 c5 ff ff       	call   1180 <__stack_chk_fail@plt>
    4c58:	0f 1f 84 00 00 00 00 	nopl   0x0(%rax,%rax,1)
    4c5f:	00 

0000000000004c60 <pqcrystals_kyber1024_ref_poly_ntt>:
    4c60:	f3 0f 1e fa          	endbr64 
    4c64:	55                   	push   %rbp
    4c65:	53                   	push   %rbx
    4c66:	48 89 fb             	mov    %rdi,%rbx
    4c69:	48 8d ab 00 02 00 00 	lea    0x200(%rbx),%rbp
    4c70:	48 83 ec 08          	sub    $0x8,%rsp
    4c74:	e8 97 01 00 00       	call   4e10 <pqcrystals_kyber1024_ref_ntt>
    4c79:	0f 1f 80 00 00 00 00 	nopl   0x0(%rax)
    4c80:	0f bf 3b             	movswl (%rbx),%edi
    4c83:	48 83 c3 02          	add    $0x2,%rbx
    4c87:	e8 d4 0a 00 00       	call   5760 <pqcrystals_kyber1024_ref_barrett_reduce>
    4c8c:	66 89 43 fe          	mov    %ax,-0x2(%rbx)
    4c90:	48 39 eb             	cmp    %rbp,%rbx
    4c93:	75 eb                	jne    4c80 <pqcrystals_kyber1024_ref_poly_ntt+0x20>
    4c95:	48 83 c4 08          	add    $0x8,%rsp
    4c99:	5b                   	pop    %rbx
    4c9a:	5d                   	pop    %rbp
    4c9b:	c3                   	ret    
    4c9c:	0f 1f 40 00          	nopl   0x0(%rax)

0000000000004ca0 <pqcrystals_kyber1024_ref_poly_invntt_tomont>:
    4ca0:	f3 0f 1e fa          	endbr64 
    4ca4:	e9 87 02 00 00       	jmp    4f30 <pqcrystals_kyber1024_ref_invntt>
    4ca9:	0f 1f 80 00 00 00 00 	nopl   0x0(%rax)

0000000000004cb0 <pqcrystals_kyber1024_ref_poly_basemul_montgomery>:
    4cb0:	f3 0f 1e fa          	endbr64 
    4cb4:	41 57                	push   %r15
    4cb6:	4c 8d 3d e3 64 00 00 	lea    0x64e3(%rip),%r15        # b1a0 <pqcrystals_kyber1024_ref_zetas+0x80>
    4cbd:	41 56                	push   %r14
    4cbf:	49 89 f6             	mov    %rsi,%r14
    4cc2:	41 55                	push   %r13
    4cc4:	4d 8d af 80 00 00 00 	lea    0x80(%r15),%r13
    4ccb:	41 54                	push   %r12
    4ccd:	49 89 d4             	mov    %rdx,%r12
    4cd0:	55                   	push   %rbp
    4cd1:	48 8d 6f 04          	lea    0x4(%rdi),%rbp
    4cd5:	53                   	push   %rbx
    4cd6:	48 83 ec 08          	sub    $0x8,%rsp
    4cda:	66 0f 1f 44 00 00    	nopw   0x0(%rax,%rax,1)
    4ce0:	41 0f bf 0f          	movswl (%r15),%ecx
    4ce4:	48 8d 7d fc          	lea    -0x4(%rbp),%rdi
    4ce8:	4c 89 e2             	mov    %r12,%rdx
    4ceb:	4c 89 f6             	mov    %r14,%rsi
    4cee:	49 83 c7 02          	add    $0x2,%r15
    4cf2:	89 cb                	mov    %ecx,%ebx
    4cf4:	e8 97 03 00 00       	call   5090 <pqcrystals_kyber1024_ref_basemul>
    4cf9:	f7 db                	neg    %ebx
    4cfb:	49 8d 54 24 04       	lea    0x4(%r12),%rdx
    4d00:	49 8d 76 04          	lea    0x4(%r14),%rsi
    4d04:	48 89 ef             	mov    %rbp,%rdi
    4d07:	0f bf cb             	movswl %bx,%ecx
    4d0a:	49 83 c6 08          	add    $0x8,%r14
    4d0e:	49 83 c4 08          	add    $0x8,%r12
    4d12:	e8 79 03 00 00       	call   5090 <pqcrystals_kyber1024_ref_basemul>
    4d17:	48 83 c5 08          	add    $0x8,%rbp
    4d1b:	4d 39 fd             	cmp    %r15,%r13
    4d1e:	75 c0                	jne    4ce0 <pqcrystals_kyber1024_ref_poly_basemul_montgomery+0x30>
    4d20:	48 83 c4 08          	add    $0x8,%rsp
    4d24:	5b                   	pop    %rbx
    4d25:	5d                   	pop    %rbp
    4d26:	41 5c                	pop    %r12
    4d28:	41 5d                	pop    %r13
    4d2a:	41 5e                	pop    %r14
    4d2c:	41 5f                	pop    %r15
    4d2e:	c3                   	ret    
    4d2f:	90                   	nop

0000000000004d30 <pqcrystals_kyber1024_ref_poly_tomont>:
    4d30:	f3 0f 1e fa          	endbr64 
    4d34:	55                   	push   %rbp
    4d35:	48 8d af 00 02 00 00 	lea    0x200(%rdi),%rbp
    4d3c:	53                   	push   %rbx
    4d3d:	48 89 fb             	mov    %rdi,%rbx
    4d40:	48 83 ec 08          	sub    $0x8,%rsp
    4d44:	0f 1f 40 00          	nopl   0x0(%rax)
    4d48:	0f bf 3b             	movswl (%rbx),%edi
    4d4b:	48 83 c3 02          	add    $0x2,%rbx
    4d4f:	69 ff 49 05 00 00    	imul   $0x549,%edi,%edi
    4d55:	e8 e6 09 00 00       	call   5740 <pqcrystals_kyber1024_ref_montgomery_reduce>
    4d5a:	66 89 43 fe          	mov    %ax,-0x2(%rbx)
    4d5e:	48 39 eb             	cmp    %rbp,%rbx
    4d61:	75 e5                	jne    4d48 <pqcrystals_kyber1024_ref_poly_tomont+0x18>
    4d63:	48 83 c4 08          	add    $0x8,%rsp
    4d67:	5b                   	pop    %rbx
    4d68:	5d                   	pop    %rbp
    4d69:	c3                   	ret    
    4d6a:	66 0f 1f 44 00 00    	nopw   0x0(%rax,%rax,1)

0000000000004d70 <pqcrystals_kyber1024_ref_poly_reduce>:
    4d70:	f3 0f 1e fa          	endbr64 
    4d74:	55                   	push   %rbp
    4d75:	48 8d af 00 02 00 00 	lea    0x200(%rdi),%rbp
    4d7c:	53                   	push   %rbx
    4d7d:	48 89 fb             	mov    %rdi,%rbx
    4d80:	48 83 ec 08          	sub    $0x8,%rsp
    4d84:	0f 1f 40 00          	nopl   0x0(%rax)
    4d88:	0f bf 3b             	movswl (%rbx),%edi
    4d8b:	48 83 c3 02          	add    $0x2,%rbx
    4d8f:	e8 cc 09 00 00       	call   5760 <pqcrystals_kyber1024_ref_barrett_reduce>
    4d94:	66 89 43 fe          	mov    %ax,-0x2(%rbx)
    4d98:	48 39 eb             	cmp    %rbp,%rbx
    4d9b:	75 eb                	jne    4d88 <pqcrystals_kyber1024_ref_poly_reduce+0x18>
    4d9d:	48 83 c4 08          	add    $0x8,%rsp
    4da1:	5b                   	pop    %rbx
    4da2:	5d                   	pop    %rbp
    4da3:	c3                   	ret    
    4da4:	66 66 2e 0f 1f 84 00 	data16 cs nopw 0x0(%rax,%rax,1)
    4dab:	00 00 00 00 
    4daf:	90                   	nop

0000000000004db0 <pqcrystals_kyber1024_ref_poly_add>:
    4db0:	f3 0f 1e fa          	endbr64 
    4db4:	31 c0                	xor    %eax,%eax
    4db6:	66 2e 0f 1f 84 00 00 	cs nopw 0x0(%rax,%rax,1)
    4dbd:	00 00 00 
    4dc0:	f3 0f 6f 04 02       	movdqu (%rdx,%rax,1),%xmm0
    4dc5:	f3 0f 6f 0c 06       	movdqu (%rsi,%rax,1),%xmm1
    4dca:	66 0f fd c1          	paddw  %xmm1,%xmm0
    4dce:	0f 11 04 07          	movups %xmm0,(%rdi,%rax,1)
    4dd2:	48 83 c0 10          	add    $0x10,%rax
    4dd6:	48 3d 00 02 00 00    	cmp    $0x200,%rax
    4ddc:	75 e2                	jne    4dc0 <pqcrystals_kyber1024_ref_poly_add+0x10>
    4dde:	c3                   	ret    
    4ddf:	90                   	nop

0000000000004de0 <pqcrystals_kyber1024_ref_poly_sub>:
    4de0:	f3 0f 1e fa          	endbr64 
    4de4:	31 c0                	xor    %eax,%eax
    4de6:	66 2e 0f 1f 84 00 00 	cs nopw 0x0(%rax,%rax,1)
    4ded:	00 00 00 
    4df0:	f3 0f 6f 04 06       	movdqu (%rsi,%rax,1),%xmm0
    4df5:	f3 0f 6f 0c 02       	movdqu (%rdx,%rax,1),%xmm1
    4dfa:	66 0f f9 c1          	psubw  %xmm1,%xmm0
    4dfe:	0f 11 04 07          	movups %xmm0,(%rdi,%rax,1)
    4e02:	48 83 c0 10          	add    $0x10,%rax
    4e06:	48 3d 00 02 00 00    	cmp    $0x200,%rax
    4e0c:	75 e2                	jne    4df0 <pqcrystals_kyber1024_ref_poly_sub+0x10>
    4e0e:	c3                   	ret    
    4e0f:	90                   	nop

0000000000004e10 <pqcrystals_kyber1024_ref_ntt>:
    4e10:	f3 0f 1e fa          	endbr64 
    4e14:	41 57                	push   %r15
    4e16:	48 8d 47 02          	lea    0x2(%rdi),%rax
    4e1a:	41 56                	push   %r14
    4e1c:	41 55                	push   %r13
    4e1e:	41 bd 01 00 00 00    	mov    $0x1,%r13d
    4e24:	41 54                	push   %r12
    4e26:	55                   	push   %rbp
    4e27:	53                   	push   %rbx
    4e28:	bb 0a fd ff ff       	mov    $0xfffffd0a,%ebx
    4e2d:	48 83 ec 28          	sub    $0x28,%rsp
    4e31:	48 89 7c 24 08       	mov    %rdi,0x8(%rsp)
    4e36:	c7 44 24 1c 07 00 00 	movl   $0x7,0x1c(%rsp)
    4e3d:	00 
    4e3e:	c7 44 24 04 80 00 00 	movl   $0x80,0x4(%rsp)
    4e45:	00 
    4e46:	48 89 44 24 10       	mov    %rax,0x10(%rsp)
    4e4b:	0f 1f 44 00 00       	nopl   0x0(%rax,%rax,1)
    4e50:	8b 54 24 04          	mov    0x4(%rsp),%edx
    4e54:	31 c0                	xor    %eax,%eax
    4e56:	83 ea 01             	sub    $0x1,%edx
    4e59:	89 54 24 18          	mov    %edx,0x18(%rsp)
    4e5d:	0f 1f 00             	nopl   (%rax)
    4e60:	8b 54 24 04          	mov    0x4(%rsp),%edx
    4e64:	41 83 c5 01          	add    $0x1,%r13d
    4e68:	44 8d 24 02          	lea    (%rdx,%rax,1),%r12d
    4e6c:	41 39 c4             	cmp    %eax,%r12d
    4e6f:	0f 86 9b 00 00 00    	jbe    4f10 <pqcrystals_kyber1024_ref_ntt+0x100>
    4e75:	48 8b 54 24 08       	mov    0x8(%rsp),%rdx
    4e7a:	8b 4c 24 18          	mov    0x18(%rsp),%ecx
    4e7e:	44 89 e6             	mov    %r12d,%esi
    4e81:	48 29 c6             	sub    %rax,%rsi
    4e84:	4c 8d 34 42          	lea    (%rdx,%rax,2),%r14
    4e88:	48 8b 54 24 10       	mov    0x10(%rsp),%rdx
    4e8d:	48 01 c1             	add    %rax,%rcx
    4e90:	49 89 f7             	mov    %rsi,%r15
    4e93:	48 8d 2c 4a          	lea    (%rdx,%rcx,2),%rbp
    4e97:	66 0f 1f 84 00 00 00 	nopw   0x0(%rax,%rax,1)
    4e9e:	00 00 
    4ea0:	43 0f bf 3c 7e       	movswl (%r14,%r15,2),%edi
    4ea5:	0f af fb             	imul   %ebx,%edi
    4ea8:	e8 93 08 00 00       	call   5740 <pqcrystals_kyber1024_ref_montgomery_reduce>
    4ead:	41 0f b7 0e          	movzwl (%r14),%ecx
    4eb1:	29 c1                	sub    %eax,%ecx
    4eb3:	66 43 89 0c 7e       	mov    %cx,(%r14,%r15,2)
    4eb8:	66 41 01 06          	add    %ax,(%r14)
    4ebc:	49 83 c6 02          	add    $0x2,%r14
    4ec0:	4c 39 f5             	cmp    %r14,%rbp
    4ec3:	75 db                	jne    4ea0 <pqcrystals_kyber1024_ref_ntt+0x90>
    4ec5:	8b 44 24 04          	mov    0x4(%rsp),%eax
    4ec9:	44 01 e0             	add    %r12d,%eax
    4ecc:	3d ff 00 00 00       	cmp    $0xff,%eax
    4ed1:	77 1d                	ja     4ef0 <pqcrystals_kyber1024_ref_ntt+0xe0>
    4ed3:	44 89 ea             	mov    %r13d,%edx
    4ed6:	48 8d 35 43 62 00 00 	lea    0x6243(%rip),%rsi        # b120 <pqcrystals_kyber1024_ref_zetas>
    4edd:	0f bf 1c 56          	movswl (%rsi,%rdx,2),%ebx
    4ee1:	e9 7a ff ff ff       	jmp    4e60 <pqcrystals_kyber1024_ref_ntt+0x50>
    4ee6:	66 2e 0f 1f 84 00 00 	cs nopw 0x0(%rax,%rax,1)
    4eed:	00 00 00 
    4ef0:	d1 6c 24 04          	shrl   0x4(%rsp)
    4ef4:	83 6c 24 1c 01       	subl   $0x1,0x1c(%rsp)
    4ef9:	74 1a                	je     4f15 <pqcrystals_kyber1024_ref_ntt+0x105>
    4efb:	44 89 e8             	mov    %r13d,%eax
    4efe:	48 8d 15 1b 62 00 00 	lea    0x621b(%rip),%rdx        # b120 <pqcrystals_kyber1024_ref_zetas>
    4f05:	0f bf 1c 42          	movswl (%rdx,%rax,2),%ebx
    4f09:	e9 42 ff ff ff       	jmp    4e50 <pqcrystals_kyber1024_ref_ntt+0x40>
    4f0e:	66 90                	xchg   %ax,%ax
    4f10:	44 89 e0             	mov    %r12d,%eax
    4f13:	eb be                	jmp    4ed3 <pqcrystals_kyber1024_ref_ntt+0xc3>
    4f15:	48 83 c4 28          	add    $0x28,%rsp
    4f19:	5b                   	pop    %rbx
    4f1a:	5d                   	pop    %rbp
    4f1b:	41 5c                	pop    %r12
    4f1d:	41 5d                	pop    %r13
    4f1f:	41 5e                	pop    %r14
    4f21:	41 5f                	pop    %r15
    4f23:	c3                   	ret    
    4f24:	66 66 2e 0f 1f 84 00 	data16 cs nopw 0x0(%rax,%rax,1)
    4f2b:	00 00 00 00 
    4f2f:	90                   	nop

0000000000004f30 <pqcrystals_kyber1024_ref_invntt>:
    4f30:	f3 0f 1e fa          	endbr64 
    4f34:	41 57                	push   %r15
    4f36:	48 8d 47 02          	lea    0x2(%rdi),%rax
    4f3a:	41 56                	push   %r14
    4f3c:	41 55                	push   %r13
    4f3e:	41 54                	push   %r12
    4f40:	55                   	push   %rbp
    4f41:	53                   	push   %rbx
    4f42:	bb 5c 06 00 00       	mov    $0x65c,%ebx
    4f47:	48 83 ec 28          	sub    $0x28,%rsp
    4f4b:	48 89 7c 24 08       	mov    %rdi,0x8(%rsp)
    4f50:	c7 44 24 1c 07 00 00 	movl   $0x7,0x1c(%rsp)
    4f57:	00 
    4f58:	c7 44 24 04 7f 00 00 	movl   $0x7f,0x4(%rsp)
    4f5f:	00 
    4f60:	c7 04 24 02 00 00 00 	movl   $0x2,(%rsp)
    4f67:	48 89 44 24 10       	mov    %rax,0x10(%rsp)
    4f6c:	0f 1f 40 00          	nopl   0x0(%rax)
    4f70:	8b 14 24             	mov    (%rsp),%edx
    4f73:	31 c0                	xor    %eax,%eax
    4f75:	83 ea 01             	sub    $0x1,%edx
    4f78:	89 54 24 18          	mov    %edx,0x18(%rsp)
    4f7c:	0f 1f 40 00          	nopl   0x0(%rax)
    4f80:	8b 0c 24             	mov    (%rsp),%ecx
    4f83:	83 6c 24 04 01       	subl   $0x1,0x4(%rsp)
    4f88:	44 8d 2c 08          	lea    (%rax,%rcx,1),%r13d
    4f8c:	41 39 c5             	cmp    %eax,%r13d
    4f8f:	0f 86 ab 00 00 00    	jbe    5040 <pqcrystals_kyber1024_ref_invntt+0x110>
    4f95:	48 8b 74 24 08       	mov    0x8(%rsp),%rsi
    4f9a:	44 89 ea             	mov    %r13d,%edx
    4f9d:	48 8b 4c 24 10       	mov    0x10(%rsp),%rcx
    4fa2:	4c 8d 3c 46          	lea    (%rsi,%rax,2),%r15
    4fa6:	48 8d 2c 56          	lea    (%rsi,%rdx,2),%rbp
    4faa:	8b 74 24 18          	mov    0x18(%rsp),%esi
    4fae:	48 01 f0             	add    %rsi,%rax
    4fb1:	4c 8d 24 41          	lea    (%rcx,%rax,2),%r12
    4fb5:	0f 1f 00             	nopl   (%rax)
    4fb8:	45 0f b7 37          	movzwl (%r15),%r14d
    4fbc:	0f b7 7d 00          	movzwl 0x0(%rbp),%edi
    4fc0:	49 83 c7 02          	add    $0x2,%r15
    4fc4:	48 83 c5 02          	add    $0x2,%rbp
    4fc8:	44 01 f7             	add    %r14d,%edi
    4fcb:	0f bf ff             	movswl %di,%edi
    4fce:	e8 8d 07 00 00       	call   5760 <pqcrystals_kyber1024_ref_barrett_reduce>
    4fd3:	66 41 89 47 fe       	mov    %ax,-0x2(%r15)
    4fd8:	0f b7 7d fe          	movzwl -0x2(%rbp),%edi
    4fdc:	44 29 f7             	sub    %r14d,%edi
    4fdf:	66 89 7d fe          	mov    %di,-0x2(%rbp)
    4fe3:	0f bf ff             	movswl %di,%edi
    4fe6:	0f af fb             	imul   %ebx,%edi
    4fe9:	e8 52 07 00 00       	call   5740 <pqcrystals_kyber1024_ref_montgomery_reduce>
    4fee:	66 89 45 fe          	mov    %ax,-0x2(%rbp)
    4ff2:	4d 39 fc             	cmp    %r15,%r12
    4ff5:	75 c1                	jne    4fb8 <pqcrystals_kyber1024_ref_invntt+0x88>
    4ff7:	8b 04 24             	mov    (%rsp),%eax
    4ffa:	44 01 e8             	add    %r13d,%eax
    4ffd:	3d ff 00 00 00       	cmp    $0xff,%eax
    5002:	77 1c                	ja     5020 <pqcrystals_kyber1024_ref_invntt+0xf0>
    5004:	8b 54 24 04          	mov    0x4(%rsp),%edx
    5008:	48 8d 0d 11 61 00 00 	lea    0x6111(%rip),%rcx        # b120 <pqcrystals_kyber1024_ref_zetas>
    500f:	0f bf 1c 51          	movswl (%rcx,%rdx,2),%ebx
    5013:	e9 68 ff ff ff       	jmp    4f80 <pqcrystals_kyber1024_ref_invntt+0x50>
    5018:	0f 1f 84 00 00 00 00 	nopl   0x0(%rax,%rax,1)
    501f:	00 
    5020:	d1 24 24             	shll   (%rsp)
    5023:	83 6c 24 1c 01       	subl   $0x1,0x1c(%rsp)
    5028:	74 1b                	je     5045 <pqcrystals_kyber1024_ref_invntt+0x115>
    502a:	8b 44 24 04          	mov    0x4(%rsp),%eax
    502e:	48 8d 15 eb 60 00 00 	lea    0x60eb(%rip),%rdx        # b120 <pqcrystals_kyber1024_ref_zetas>
    5035:	0f bf 1c 42          	movswl (%rdx,%rax,2),%ebx
    5039:	e9 32 ff ff ff       	jmp    4f70 <pqcrystals_kyber1024_ref_invntt+0x40>
    503e:	66 90                	xchg   %ax,%ax
    5040:	44 89 e8             	mov    %r13d,%eax
    5043:	eb bf                	jmp    5004 <pqcrystals_kyber1024_ref_invntt+0xd4>
    5045:	48 8b 6c 24 08       	mov    0x8(%rsp),%rbp
    504a:	48 8d 9d 00 02 00 00 	lea    0x200(%rbp),%rbx
    5051:	0f 1f 80 00 00 00 00 	nopl   0x0(%rax)
    5058:	0f bf 7d 00          	movswl 0x0(%rbp),%edi
    505c:	48 83 c5 02          	add    $0x2,%rbp
    5060:	69 ff a1 05 00 00    	imul   $0x5a1,%edi,%edi
    5066:	e8 d5 06 00 00       	call   5740 <pqcrystals_kyber1024_ref_montgomery_reduce>
    506b:	66 89 45 fe          	mov    %ax,-0x2(%rbp)
    506f:	48 39 eb             	cmp    %rbp,%rbx
    5072:	75 e4                	jne    5058 <pqcrystals_kyber1024_ref_invntt+0x128>
    5074:	48 83 c4 28          	add    $0x28,%rsp
    5078:	5b                   	pop    %rbx
    5079:	5d                   	pop    %rbp
    507a:	41 5c                	pop    %r12
    507c:	41 5d                	pop    %r13
    507e:	41 5e                	pop    %r14
    5080:	41 5f                	pop    %r15
    5082:	c3                   	ret    
    5083:	66 66 2e 0f 1f 84 00 	data16 cs nopw 0x0(%rax,%rax,1)
    508a:	00 00 00 00 
    508e:	66 90                	xchg   %ax,%ax

0000000000005090 <pqcrystals_kyber1024_ref_basemul>:
    5090:	f3 0f 1e fa          	endbr64 
    5094:	41 55                	push   %r13
    5096:	49 89 d5             	mov    %rdx,%r13
    5099:	41 54                	push   %r12
    509b:	49 89 f4             	mov    %rsi,%r12
    509e:	55                   	push   %rbp
    509f:	89 cd                	mov    %ecx,%ebp
    50a1:	53                   	push   %rbx
    50a2:	48 89 fb             	mov    %rdi,%rbx
    50a5:	48 83 ec 08          	sub    $0x8,%rsp
    50a9:	0f bf 7a 02          	movswl 0x2(%rdx),%edi
    50ad:	0f bf 46 02          	movswl 0x2(%rsi),%eax
    50b1:	0f af f8             	imul   %eax,%edi
    50b4:	e8 87 06 00 00       	call   5740 <pqcrystals_kyber1024_ref_montgomery_reduce>
    50b9:	0f bf fd             	movswl %bp,%edi
    50bc:	66 89 03             	mov    %ax,(%rbx)
    50bf:	98                   	cwtl   
    50c0:	0f af f8             	imul   %eax,%edi
    50c3:	e8 78 06 00 00       	call   5740 <pqcrystals_kyber1024_ref_montgomery_reduce>
    50c8:	66 89 03             	mov    %ax,(%rbx)
    50cb:	41 0f bf 7d 00       	movswl 0x0(%r13),%edi
    50d0:	41 0f bf 04 24       	movswl (%r12),%eax
    50d5:	0f af f8             	imul   %eax,%edi
    50d8:	e8 63 06 00 00       	call   5740 <pqcrystals_kyber1024_ref_montgomery_reduce>
    50dd:	66 01 03             	add    %ax,(%rbx)
    50e0:	41 0f bf 7d 02       	movswl 0x2(%r13),%edi
    50e5:	41 0f bf 04 24       	movswl (%r12),%eax
    50ea:	0f af f8             	imul   %eax,%edi
    50ed:	e8 4e 06 00 00       	call   5740 <pqcrystals_kyber1024_ref_montgomery_reduce>
    50f2:	66 89 43 02          	mov    %ax,0x2(%rbx)
    50f6:	41 0f bf 7d 00       	movswl 0x0(%r13),%edi
    50fb:	41 0f bf 44 24 02    	movswl 0x2(%r12),%eax
    5101:	0f af f8             	imul   %eax,%edi
    5104:	e8 37 06 00 00       	call   5740 <pqcrystals_kyber1024_ref_montgomery_reduce>
    5109:	66 01 43 02          	add    %ax,0x2(%rbx)
    510d:	48 83 c4 08          	add    $0x8,%rsp
    5111:	5b                   	pop    %rbx
    5112:	5d                   	pop    %rbp
    5113:	41 5c                	pop    %r12
    5115:	41 5d                	pop    %r13
    5117:	c3                   	ret    
    5118:	0f 1f 84 00 00 00 00 	nopl   0x0(%rax,%rax,1)
    511f:	00 

0000000000005120 <cbd2>:
    5120:	4c 8d 96 80 00 00 00 	lea    0x80(%rsi),%r10
    5127:	49 89 f1             	mov    %rsi,%r9
    512a:	4c 39 d7             	cmp    %r10,%rdi
    512d:	73 10                	jae    513f <cbd2+0x1f>
    512f:	48 8d 87 00 02 00 00 	lea    0x200(%rdi),%rax
    5136:	48 39 c6             	cmp    %rax,%rsi
    5139:	0f 82 b2 04 00 00    	jb     55f1 <cbd2+0x4d1>
    513f:	66 44 0f 6f 15 d8 60 	movdqa 0x60d8(%rip),%xmm10        # b220 <pqcrystals_kyber1024_ref_zetas+0x100>
    5146:	00 00 
    5148:	66 0f 6f 1d e0 60 00 	movdqa 0x60e0(%rip),%xmm3        # b230 <pqcrystals_kyber1024_ref_zetas+0x110>
    514f:	00 
    5150:	48 89 fe             	mov    %rdi,%rsi
    5153:	f3 41 0f 6f 09       	movdqu (%r9),%xmm1
    5158:	f3 41 0f 6f 51 10    	movdqu 0x10(%r9),%xmm2
    515e:	49 83 c1 20          	add    $0x20,%r9
    5162:	48 83 ee 80          	sub    $0xffffffffffffff80,%rsi
    5166:	66 0f 6f c1          	movdqa %xmm1,%xmm0
    516a:	66 41 0f db ca       	pand   %xmm10,%xmm1
    516f:	66 0f 72 d0 01       	psrld  $0x1,%xmm0
    5174:	66 41 0f db c2       	pand   %xmm10,%xmm0
    5179:	66 0f fe c1          	paddd  %xmm1,%xmm0
    517d:	66 0f 6f ca          	movdqa %xmm2,%xmm1
    5181:	66 41 0f db d2       	pand   %xmm10,%xmm2
    5186:	66 0f 72 d1 01       	psrld  $0x1,%xmm1
    518b:	66 0f 6f e0          	movdqa %xmm0,%xmm4
    518f:	66 41 0f db ca       	pand   %xmm10,%xmm1
    5194:	66 0f fe ca          	paddd  %xmm2,%xmm1
    5198:	66 0f 6f d0          	movdqa %xmm0,%xmm2
    519c:	66 0f 61 e1          	punpcklwd %xmm1,%xmm4
    51a0:	66 0f 69 d1          	punpckhwd %xmm1,%xmm2
    51a4:	66 0f 6f f1          	movdqa %xmm1,%xmm6
    51a8:	66 0f 6f ec          	movdqa %xmm4,%xmm5
    51ac:	66 0f 61 e2          	punpcklwd %xmm2,%xmm4
    51b0:	66 0f 6f f9          	movdqa %xmm1,%xmm7
    51b4:	66 0f 69 ea          	punpckhwd %xmm2,%xmm5
    51b8:	66 0f 6f d0          	movdqa %xmm0,%xmm2
    51bc:	66 44 0f 6f c1       	movdqa %xmm1,%xmm8
    51c1:	66 0f 72 d6 02       	psrld  $0x2,%xmm6
    51c6:	66 0f 72 d2 02       	psrld  $0x2,%xmm2
    51cb:	66 0f 61 e5          	punpcklwd %xmm5,%xmm4
    51cf:	66 0f 6f ea          	movdqa %xmm2,%xmm5
    51d3:	66 0f 61 d6          	punpcklwd %xmm6,%xmm2
    51d7:	66 0f db e3          	pand   %xmm3,%xmm4
    51db:	66 0f 69 ee          	punpckhwd %xmm6,%xmm5
    51df:	66 0f 6f f2          	movdqa %xmm2,%xmm6
    51e3:	66 44 0f 6f c9       	movdqa %xmm1,%xmm9
    51e8:	66 0f 69 f5          	punpckhwd %xmm5,%xmm6
    51ec:	66 0f 61 d5          	punpcklwd %xmm5,%xmm2
    51f0:	66 44 0f 6f d9       	movdqa %xmm1,%xmm11
    51f5:	66 0f 61 d6          	punpcklwd %xmm6,%xmm2
    51f9:	66 0f 6f f1          	movdqa %xmm1,%xmm6
    51fd:	66 44 0f 6f e1       	movdqa %xmm1,%xmm12
    5202:	66 0f db d3          	pand   %xmm3,%xmm2
    5206:	66 0f 72 d6 04       	psrld  $0x4,%xmm6
    520b:	66 44 0f 6f e9       	movdqa %xmm1,%xmm13
    5210:	66 0f 72 d7 06       	psrld  $0x6,%xmm7
    5215:	66 41 0f 72 d0 0a    	psrld  $0xa,%xmm8
    521b:	66 0f f9 e2          	psubw  %xmm2,%xmm4
    521f:	66 41 0f 72 d1 0e    	psrld  $0xe,%xmm9
    5225:	66 41 0f 72 d3 12    	psrld  $0x12,%xmm11
    522b:	66 0f 6f d0          	movdqa %xmm0,%xmm2
    522f:	66 0f 72 d2 04       	psrld  $0x4,%xmm2
    5234:	66 41 0f 72 d4 16    	psrld  $0x16,%xmm12
    523a:	66 0f 6f ea          	movdqa %xmm2,%xmm5
    523e:	66 41 0f 72 d5 1a    	psrld  $0x1a,%xmm13
    5244:	66 0f 61 d6          	punpcklwd %xmm6,%xmm2
    5248:	66 0f 69 ee          	punpckhwd %xmm6,%xmm5
    524c:	66 0f 6f f2          	movdqa %xmm2,%xmm6
    5250:	66 0f 69 f5          	punpckhwd %xmm5,%xmm6
    5254:	66 0f 61 d5          	punpcklwd %xmm5,%xmm2
    5258:	66 0f 6f e8          	movdqa %xmm0,%xmm5
    525c:	66 0f 72 d5 06       	psrld  $0x6,%xmm5
    5261:	66 0f 61 d6          	punpcklwd %xmm6,%xmm2
    5265:	66 0f 6f f5          	movdqa %xmm5,%xmm6
    5269:	66 0f 61 ef          	punpcklwd %xmm7,%xmm5
    526d:	66 0f db d3          	pand   %xmm3,%xmm2
    5271:	66 0f 69 f7          	punpckhwd %xmm7,%xmm6
    5275:	66 0f 6f fd          	movdqa %xmm5,%xmm7
    5279:	66 0f 69 fe          	punpckhwd %xmm6,%xmm7
    527d:	66 0f 61 ee          	punpcklwd %xmm6,%xmm5
    5281:	66 0f 6f f0          	movdqa %xmm0,%xmm6
    5285:	66 0f 61 ef          	punpcklwd %xmm7,%xmm5
    5289:	66 0f 72 d6 08       	psrld  $0x8,%xmm6
    528e:	66 0f 6f f9          	movdqa %xmm1,%xmm7
    5292:	66 0f 72 d7 08       	psrld  $0x8,%xmm7
    5297:	66 0f db eb          	pand   %xmm3,%xmm5
    529b:	66 0f f9 d5          	psubw  %xmm5,%xmm2
    529f:	66 0f 6f ee          	movdqa %xmm6,%xmm5
    52a3:	66 0f 61 f7          	punpcklwd %xmm7,%xmm6
    52a7:	66 0f 69 ef          	punpckhwd %xmm7,%xmm5
    52ab:	66 0f 6f fe          	movdqa %xmm6,%xmm7
    52af:	66 0f 69 fd          	punpckhwd %xmm5,%xmm7
    52b3:	66 0f 61 f5          	punpcklwd %xmm5,%xmm6
    52b7:	66 0f 6f e8          	movdqa %xmm0,%xmm5
    52bb:	66 0f 72 d5 0a       	psrld  $0xa,%xmm5
    52c0:	66 0f 61 f7          	punpcklwd %xmm7,%xmm6
    52c4:	66 0f 6f fd          	movdqa %xmm5,%xmm7
    52c8:	66 41 0f 61 e8       	punpcklwd %xmm8,%xmm5
    52cd:	66 0f db f3          	pand   %xmm3,%xmm6
    52d1:	66 41 0f 69 f8       	punpckhwd %xmm8,%xmm7
    52d6:	66 44 0f 6f c5       	movdqa %xmm5,%xmm8
    52db:	66 44 0f 69 c7       	punpckhwd %xmm7,%xmm8
    52e0:	66 0f 61 ef          	punpcklwd %xmm7,%xmm5
    52e4:	66 41 0f 61 e8       	punpcklwd %xmm8,%xmm5
    52e9:	66 44 0f 6f c1       	movdqa %xmm1,%xmm8
    52ee:	66 0f db eb          	pand   %xmm3,%xmm5
    52f2:	66 41 0f 72 d0 0c    	psrld  $0xc,%xmm8
    52f8:	66 0f f9 f5          	psubw  %xmm5,%xmm6
    52fc:	66 0f 6f e8          	movdqa %xmm0,%xmm5
    5300:	66 0f 72 d5 0c       	psrld  $0xc,%xmm5
    5305:	66 0f 6f fd          	movdqa %xmm5,%xmm7
    5309:	66 41 0f 61 e8       	punpcklwd %xmm8,%xmm5
    530e:	66 41 0f 69 f8       	punpckhwd %xmm8,%xmm7
    5313:	66 44 0f 6f c5       	movdqa %xmm5,%xmm8
    5318:	66 44 0f 69 c7       	punpckhwd %xmm7,%xmm8
    531d:	66 0f 61 ef          	punpcklwd %xmm7,%xmm5
    5321:	66 0f 6f f8          	movdqa %xmm0,%xmm7
    5325:	66 0f 72 d7 0e       	psrld  $0xe,%xmm7
    532a:	66 41 0f 61 e8       	punpcklwd %xmm8,%xmm5
    532f:	66 44 0f 6f c7       	movdqa %xmm7,%xmm8
    5334:	66 41 0f 61 f9       	punpcklwd %xmm9,%xmm7
    5339:	66 0f db eb          	pand   %xmm3,%xmm5
    533d:	66 45 0f 69 c1       	punpckhwd %xmm9,%xmm8
    5342:	66 44 0f 6f cf       	movdqa %xmm7,%xmm9
    5347:	66 45 0f 69 c8       	punpckhwd %xmm8,%xmm9
    534c:	66 41 0f 61 f8       	punpcklwd %xmm8,%xmm7
    5351:	66 44 0f 6f c0       	movdqa %xmm0,%xmm8
    5356:	66 41 0f 61 f9       	punpcklwd %xmm9,%xmm7
    535b:	66 41 0f 72 d0 10    	psrld  $0x10,%xmm8
    5361:	66 44 0f 6f c9       	movdqa %xmm1,%xmm9
    5366:	66 41 0f 72 d1 10    	psrld  $0x10,%xmm9
    536c:	66 0f db fb          	pand   %xmm3,%xmm7
    5370:	66 0f f9 ef          	psubw  %xmm7,%xmm5
    5374:	66 41 0f 6f f8       	movdqa %xmm8,%xmm7
    5379:	66 45 0f 61 c1       	punpcklwd %xmm9,%xmm8
    537e:	66 41 0f 69 f9       	punpckhwd %xmm9,%xmm7
    5383:	66 45 0f 6f c8       	movdqa %xmm8,%xmm9
    5388:	66 44 0f 69 cf       	punpckhwd %xmm7,%xmm9
    538d:	66 44 0f 61 c7       	punpcklwd %xmm7,%xmm8
    5392:	66 0f 6f f8          	movdqa %xmm0,%xmm7
    5396:	66 0f 72 d7 12       	psrld  $0x12,%xmm7
    539b:	66 45 0f 61 c1       	punpcklwd %xmm9,%xmm8
    53a0:	66 44 0f 6f cf       	movdqa %xmm7,%xmm9
    53a5:	66 41 0f 61 fb       	punpcklwd %xmm11,%xmm7
    53aa:	66 44 0f db c3       	pand   %xmm3,%xmm8
    53af:	66 45 0f 69 cb       	punpckhwd %xmm11,%xmm9
    53b4:	66 44 0f 6f df       	movdqa %xmm7,%xmm11
    53b9:	66 45 0f 69 d9       	punpckhwd %xmm9,%xmm11
    53be:	66 41 0f 61 f9       	punpcklwd %xmm9,%xmm7
    53c3:	66 41 0f 61 fb       	punpcklwd %xmm11,%xmm7
    53c8:	66 44 0f 6f d9       	movdqa %xmm1,%xmm11
    53cd:	66 0f db fb          	pand   %xmm3,%xmm7
    53d1:	66 41 0f 72 d3 14    	psrld  $0x14,%xmm11
    53d7:	66 44 0f f9 c7       	psubw  %xmm7,%xmm8
    53dc:	66 0f 6f f8          	movdqa %xmm0,%xmm7
    53e0:	66 0f 72 d7 14       	psrld  $0x14,%xmm7
    53e5:	66 44 0f 6f cf       	movdqa %xmm7,%xmm9
    53ea:	66 41 0f 61 fb       	punpcklwd %xmm11,%xmm7
    53ef:	66 45 0f 69 cb       	punpckhwd %xmm11,%xmm9
    53f4:	66 44 0f 6f df       	movdqa %xmm7,%xmm11
    53f9:	66 45 0f 69 d9       	punpckhwd %xmm9,%xmm11
    53fe:	66 41 0f 61 f9       	punpcklwd %xmm9,%xmm7
    5403:	66 44 0f 6f c8       	movdqa %xmm0,%xmm9
    5408:	66 41 0f 72 d1 16    	psrld  $0x16,%xmm9
    540e:	66 41 0f 61 fb       	punpcklwd %xmm11,%xmm7
    5413:	66 45 0f 6f d9       	movdqa %xmm9,%xmm11
    5418:	66 45 0f 61 cc       	punpcklwd %xmm12,%xmm9
    541d:	66 0f db fb          	pand   %xmm3,%xmm7
    5421:	66 45 0f 69 dc       	punpckhwd %xmm12,%xmm11
    5426:	66 45 0f 6f e1       	movdqa %xmm9,%xmm12
    542b:	66 45 0f 69 e3       	punpckhwd %xmm11,%xmm12
    5430:	66 45 0f 61 cb       	punpcklwd %xmm11,%xmm9
    5435:	66 44 0f 6f d8       	movdqa %xmm0,%xmm11
    543a:	66 45 0f 61 cc       	punpcklwd %xmm12,%xmm9
    543f:	66 41 0f 72 d3 18    	psrld  $0x18,%xmm11
    5445:	66 44 0f 6f e1       	movdqa %xmm1,%xmm12
    544a:	66 41 0f 72 d4 18    	psrld  $0x18,%xmm12
    5450:	66 44 0f db cb       	pand   %xmm3,%xmm9
    5455:	66 41 0f f9 f9       	psubw  %xmm9,%xmm7
    545a:	66 45 0f 6f cb       	movdqa %xmm11,%xmm9
    545f:	66 45 0f 61 dc       	punpcklwd %xmm12,%xmm11
    5464:	66 45 0f 69 cc       	punpckhwd %xmm12,%xmm9
    5469:	66 45 0f 6f e3       	movdqa %xmm11,%xmm12
    546e:	66 45 0f 69 e1       	punpckhwd %xmm9,%xmm12
    5473:	66 45 0f 61 d9       	punpcklwd %xmm9,%xmm11
    5478:	66 44 0f 6f c8       	movdqa %xmm0,%xmm9
    547d:	66 41 0f 72 d1 1a    	psrld  $0x1a,%xmm9
    5483:	66 45 0f 61 dc       	punpcklwd %xmm12,%xmm11
    5488:	66 45 0f 6f e1       	movdqa %xmm9,%xmm12
    548d:	66 45 0f 61 cd       	punpcklwd %xmm13,%xmm9
    5492:	66 44 0f db db       	pand   %xmm3,%xmm11
    5497:	66 45 0f 69 e5       	punpckhwd %xmm13,%xmm12
    549c:	66 45 0f 6f e9       	movdqa %xmm9,%xmm13
    54a1:	66 45 0f 69 ec       	punpckhwd %xmm12,%xmm13
    54a6:	66 45 0f 61 cc       	punpcklwd %xmm12,%xmm9
    54ab:	66 45 0f 61 cd       	punpcklwd %xmm13,%xmm9
    54b0:	66 44 0f 6f e9       	movdqa %xmm1,%xmm13
    54b5:	66 41 0f 72 d5 1c    	psrld  $0x1c,%xmm13
    54bb:	66 0f 72 d1 1e       	psrld  $0x1e,%xmm1
    54c0:	66 44 0f db cb       	pand   %xmm3,%xmm9
    54c5:	66 45 0f f9 d9       	psubw  %xmm9,%xmm11
    54ca:	66 44 0f 6f c8       	movdqa %xmm0,%xmm9
    54cf:	66 41 0f 72 d1 1c    	psrld  $0x1c,%xmm9
    54d5:	66 0f 72 d0 1e       	psrld  $0x1e,%xmm0
    54da:	66 45 0f 6f e1       	movdqa %xmm9,%xmm12
    54df:	66 45 0f 61 cd       	punpcklwd %xmm13,%xmm9
    54e4:	66 45 0f 69 e5       	punpckhwd %xmm13,%xmm12
    54e9:	66 45 0f 6f e9       	movdqa %xmm9,%xmm13
    54ee:	66 45 0f 69 ec       	punpckhwd %xmm12,%xmm13
    54f3:	66 45 0f 61 cc       	punpcklwd %xmm12,%xmm9
    54f8:	66 44 0f 6f e0       	movdqa %xmm0,%xmm12
    54fd:	66 0f 61 c1          	punpcklwd %xmm1,%xmm0
    5501:	66 44 0f 69 e1       	punpckhwd %xmm1,%xmm12
    5506:	66 45 0f 61 cd       	punpcklwd %xmm13,%xmm9
    550b:	66 0f 6f c8          	movdqa %xmm0,%xmm1
    550f:	66 41 0f 61 c4       	punpcklwd %xmm12,%xmm0
    5514:	66 44 0f db cb       	pand   %xmm3,%xmm9
    5519:	66 41 0f 69 cc       	punpckhwd %xmm12,%xmm1
    551e:	66 0f 61 c1          	punpcklwd %xmm1,%xmm0
    5522:	66 0f 6f cc          	movdqa %xmm4,%xmm1
    5526:	66 41 0f 69 e0       	punpckhwd %xmm8,%xmm4
    552b:	66 44 0f f9 c8       	psubw  %xmm0,%xmm9
    5530:	66 41 0f 61 c8       	punpcklwd %xmm8,%xmm1
    5535:	66 0f 6f c6          	movdqa %xmm6,%xmm0
    5539:	66 44 0f 6f c2       	movdqa %xmm2,%xmm8
    553e:	66 41 0f 61 c3       	punpcklwd %xmm11,%xmm0
    5543:	66 0f 69 d7          	punpckhwd %xmm7,%xmm2
    5547:	66 44 0f 61 c7       	punpcklwd %xmm7,%xmm8
    554c:	66 0f 6f f9          	movdqa %xmm1,%xmm7
    5550:	66 41 0f 69 f3       	punpckhwd %xmm11,%xmm6
    5555:	66 0f 61 f8          	punpcklwd %xmm0,%xmm7
    5559:	66 0f 69 c8          	punpckhwd %xmm0,%xmm1
    555d:	66 44 0f 6f dd       	movdqa %xmm5,%xmm11
    5562:	66 0f 6f c4          	movdqa %xmm4,%xmm0
    5566:	66 41 0f 69 e9       	punpckhwd %xmm9,%xmm5
    556b:	66 45 0f 61 d9       	punpcklwd %xmm9,%xmm11
    5570:	66 0f 61 c6          	punpcklwd %xmm6,%xmm0
    5574:	66 0f 69 e6          	punpckhwd %xmm6,%xmm4
    5578:	66 45 0f 6f c8       	movdqa %xmm8,%xmm9
    557d:	66 0f 6f f2          	movdqa %xmm2,%xmm6
    5581:	66 45 0f 61 cb       	punpcklwd %xmm11,%xmm9
    5586:	66 0f 69 d5          	punpckhwd %xmm5,%xmm2
    558a:	66 0f 61 f5          	punpcklwd %xmm5,%xmm6
    558e:	66 0f 6f ef          	movdqa %xmm7,%xmm5
    5592:	66 45 0f 69 c3       	punpckhwd %xmm11,%xmm8
    5597:	66 41 0f 61 e9       	punpcklwd %xmm9,%xmm5
    559c:	66 41 0f 69 f9       	punpckhwd %xmm9,%xmm7
    55a1:	0f 11 6e 80          	movups %xmm5,-0x80(%rsi)
    55a5:	66 0f 6f e9          	movdqa %xmm1,%xmm5
    55a9:	66 41 0f 69 c8       	punpckhwd %xmm8,%xmm1
    55ae:	0f 11 4e b0          	movups %xmm1,-0x50(%rsi)
    55b2:	66 0f 6f c8          	movdqa %xmm0,%xmm1
    55b6:	66 0f 69 c6          	punpckhwd %xmm6,%xmm0
    55ba:	66 41 0f 61 e8       	punpcklwd %xmm8,%xmm5
    55bf:	0f 11 46 d0          	movups %xmm0,-0x30(%rsi)
    55c3:	66 0f 6f c4          	movdqa %xmm4,%xmm0
    55c7:	66 0f 61 ce          	punpcklwd %xmm6,%xmm1
    55cb:	66 0f 69 e2          	punpckhwd %xmm2,%xmm4
    55cf:	66 0f 61 c2          	punpcklwd %xmm2,%xmm0
    55d3:	0f 11 7e 90          	movups %xmm7,-0x70(%rsi)
    55d7:	0f 11 6e a0          	movups %xmm5,-0x60(%rsi)
    55db:	0f 11 4e c0          	movups %xmm1,-0x40(%rsi)
    55df:	0f 11 46 e0          	movups %xmm0,-0x20(%rsi)
    55e3:	0f 11 66 f0          	movups %xmm4,-0x10(%rsi)
    55e7:	4d 39 d1             	cmp    %r10,%r9
    55ea:	0f 85 63 fb ff ff    	jne    5153 <cbd2+0x33>
    55f0:	c3                   	ret    
    55f1:	55                   	push   %rbp
    55f2:	66 0f 6f 1d 36 5c 00 	movdqa 0x5c36(%rip),%xmm3        # b230 <pqcrystals_kyber1024_ref_zetas+0x110>
    55f9:	00 
    55fa:	48 89 fe             	mov    %rdi,%rsi
    55fd:	53                   	push   %rbx
    55fe:	66 90                	xchg   %ax,%ax
    5600:	41 8b 01             	mov    (%r9),%eax
    5603:	49 83 c1 04          	add    $0x4,%r9
    5607:	48 83 c6 10          	add    $0x10,%rsi
    560b:	89 c2                	mov    %eax,%edx
    560d:	d1 e8                	shr    %eax
    560f:	81 e2 55 55 55 55    	and    $0x55555555,%edx
    5615:	25 55 55 55 55       	and    $0x55555555,%eax
    561a:	01 d0                	add    %edx,%eax
    561c:	89 c7                	mov    %eax,%edi
    561e:	89 c1                	mov    %eax,%ecx
    5620:	89 c2                	mov    %eax,%edx
    5622:	89 c3                	mov    %eax,%ebx
    5624:	c1 ef 08             	shr    $0x8,%edi
    5627:	c1 e9 0c             	shr    $0xc,%ecx
    562a:	66 0f 6e c0          	movd   %eax,%xmm0
    562e:	41 89 c0             	mov    %eax,%r8d
    5631:	66 0f 6e e1          	movd   %ecx,%xmm4
    5635:	c1 ea 04             	shr    $0x4,%edx
    5638:	66 0f 6e cf          	movd   %edi,%xmm1
    563c:	89 c1                	mov    %eax,%ecx
    563e:	66 0f 62 cc          	punpckldq %xmm4,%xmm1
    5642:	89 c7                	mov    %eax,%edi
    5644:	66 0f 6e e2          	movd   %edx,%xmm4
    5648:	89 c2                	mov    %eax,%edx
    564a:	66 0f 62 c4          	punpckldq %xmm4,%xmm0
    564e:	c1 eb 10             	shr    $0x10,%ebx
    5651:	41 89 c3             	mov    %eax,%r11d
    5654:	89 c5                	mov    %eax,%ebp
    5656:	c1 ea 14             	shr    $0x14,%edx
    5659:	c1 ef 18             	shr    $0x18,%edi
    565c:	66 0f 6c c1          	punpcklqdq %xmm1,%xmm0
    5660:	66 0f 6e cb          	movd   %ebx,%xmm1
    5664:	c1 e9 1c             	shr    $0x1c,%ecx
    5667:	66 0f 6e e2          	movd   %edx,%xmm4
    566b:	66 0f 6e d7          	movd   %edi,%xmm2
    566f:	89 c2                	mov    %eax,%edx
    5671:	66 0f 6e f1          	movd   %ecx,%xmm6
    5675:	66 0f 62 cc          	punpckldq %xmm4,%xmm1
    5679:	89 c1                	mov    %eax,%ecx
    567b:	89 c7                	mov    %eax,%edi
    567d:	c1 ea 02             	shr    $0x2,%edx
    5680:	66 0f 62 d6          	punpckldq %xmm6,%xmm2
    5684:	89 c3                	mov    %eax,%ebx
    5686:	41 c1 e8 0a          	shr    $0xa,%r8d
    568a:	66 0f 6c ca          	punpcklqdq %xmm2,%xmm1
    568e:	66 0f 6f d0          	movdqa %xmm0,%xmm2
    5692:	c1 e9 12             	shr    $0x12,%ecx
    5695:	83 e2 03             	and    $0x3,%edx
    5698:	66 0f 61 c1          	punpcklwd %xmm1,%xmm0
    569c:	66 0f 69 d1          	punpckhwd %xmm1,%xmm2
    56a0:	c1 ef 1a             	shr    $0x1a,%edi
    56a3:	41 83 e0 03          	and    $0x3,%r8d
    56a7:	66 0f 6f c8          	movdqa %xmm0,%xmm1
    56ab:	c1 eb 06             	shr    $0x6,%ebx
    56ae:	66 0f 61 c2          	punpcklwd %xmm2,%xmm0
    56b2:	83 e1 03             	and    $0x3,%ecx
    56b5:	66 0f 69 ca          	punpckhwd %xmm2,%xmm1
    56b9:	41 c1 eb 16          	shr    $0x16,%r11d
    56bd:	83 e7 03             	and    $0x3,%edi
    56c0:	83 e3 03             	and    $0x3,%ebx
    56c3:	66 0f 61 c1          	punpcklwd %xmm1,%xmm0
    56c7:	66 c1 ed 0e          	shr    $0xe,%bp
    56cb:	41 83 e3 03          	and    $0x3,%r11d
    56cf:	66 0f 6e ca          	movd   %edx,%xmm1
    56d3:	66 41 0f 6e e8       	movd   %r8d,%xmm5
    56d8:	c1 e8 1e             	shr    $0x1e,%eax
    56db:	66 0f 6e d1          	movd   %ecx,%xmm2
    56df:	66 0f 6e e7          	movd   %edi,%xmm4
    56e3:	66 0f c4 cb 01       	pinsrw $0x1,%ebx,%xmm1
    56e8:	66 0f c4 ed 01       	pinsrw $0x1,%ebp,%xmm5
    56ed:	66 41 0f c4 d3 01    	pinsrw $0x1,%r11d,%xmm2
    56f3:	66 0f c4 e0 01       	pinsrw $0x1,%eax,%xmm4
    56f8:	66 0f 62 cd          	punpckldq %xmm5,%xmm1
    56fc:	66 0f db c3          	pand   %xmm3,%xmm0
    5700:	66 0f 62 d4          	punpckldq %xmm4,%xmm2
    5704:	66 0f 6c ca          	punpcklqdq %xmm2,%xmm1
    5708:	66 0f f9 c1          	psubw  %xmm1,%xmm0
    570c:	0f 11 46 f0          	movups %xmm0,-0x10(%rsi)
    5710:	4d 39 ca             	cmp    %r9,%r10
    5713:	0f 85 e7 fe ff ff    	jne    5600 <cbd2+0x4e0>
    5719:	5b                   	pop    %rbx
    571a:	5d                   	pop    %rbp
    571b:	c3                   	ret    
    571c:	0f 1f 40 00          	nopl   0x0(%rax)

0000000000005720 <pqcrystals_kyber1024_ref_poly_cbd_eta1>:
    5720:	f3 0f 1e fa          	endbr64 
    5724:	e9 f7 f9 ff ff       	jmp    5120 <cbd2>
    5729:	0f 1f 80 00 00 00 00 	nopl   0x0(%rax)

0000000000005730 <pqcrystals_kyber1024_ref_poly_cbd_eta2>:
    5730:	f3 0f 1e fa          	endbr64 
    5734:	e9 e7 f9 ff ff       	jmp    5120 <cbd2>
    5739:	0f 1f 80 00 00 00 00 	nopl   0x0(%rax)

0000000000005740 <pqcrystals_kyber1024_ref_montgomery_reduce>:
    5740:	f3 0f 1e fa          	endbr64 
    5744:	66 69 c7 01 f3       	imul   $0xf301,%di,%ax
    5749:	98                   	cwtl   
    574a:	69 c0 ff f2 ff ff    	imul   $0xfffff2ff,%eax,%eax
    5750:	01 f8                	add    %edi,%eax
    5752:	c1 e8 10             	shr    $0x10,%eax
    5755:	c3                   	ret    
    5756:	66 2e 0f 1f 84 00 00 	cs nopw 0x0(%rax,%rax,1)
    575d:	00 00 00 

0000000000005760 <pqcrystals_kyber1024_ref_barrett_reduce>:
    5760:	f3 0f 1e fa          	endbr64 
    5764:	0f bf d7             	movswl %di,%edx
    5767:	89 f8                	mov    %edi,%eax
    5769:	69 d2 bf 4e 00 00    	imul   $0x4ebf,%edx,%edx
    576f:	81 c2 00 00 00 02    	add    $0x2000000,%edx
    5775:	c1 fa 1a             	sar    $0x1a,%edx
    5778:	66 69 d2 01 0d       	imul   $0xd01,%dx,%dx
    577d:	29 d0                	sub    %edx,%eax
    577f:	c3                   	ret    

0000000000005780 <pqcrystals_kyber1024_ref_verify>:
    5780:	f3 0f 1e fa          	endbr64 
    5784:	48 85 d2             	test   %rdx,%rdx
    5787:	0f 84 d3 01 00 00    	je     5960 <pqcrystals_kyber1024_ref_verify+0x1e0>
    578d:	48 8d 42 ff          	lea    -0x1(%rdx),%rax
    5791:	49 89 f0             	mov    %rsi,%r8
    5794:	49 89 d1             	mov    %rdx,%r9
    5797:	48 83 f8 0e          	cmp    $0xe,%rax
    579b:	0f 86 c2 01 00 00    	jbe    5963 <pqcrystals_kyber1024_ref_verify+0x1e3>
    57a1:	48 83 e2 f0          	and    $0xfffffffffffffff0,%rdx
    57a5:	31 c0                	xor    %eax,%eax
    57a7:	66 0f ef c0          	pxor   %xmm0,%xmm0
    57ab:	0f 1f 44 00 00       	nopl   0x0(%rax,%rax,1)
    57b0:	f3 0f 6f 0c 07       	movdqu (%rdi,%rax,1),%xmm1
    57b5:	f3 41 0f 6f 14 00    	movdqu (%r8,%rax,1),%xmm2
    57bb:	48 83 c0 10          	add    $0x10,%rax
    57bf:	66 0f ef ca          	pxor   %xmm2,%xmm1
    57c3:	66 0f eb c1          	por    %xmm1,%xmm0
    57c7:	48 39 d0             	cmp    %rdx,%rax
    57ca:	75 e4                	jne    57b0 <pqcrystals_kyber1024_ref_verify+0x30>
    57cc:	66 0f 6f c8          	movdqa %xmm0,%xmm1
    57d0:	4c 89 ce             	mov    %r9,%rsi
    57d3:	66 0f 73 d9 08       	psrldq $0x8,%xmm1
    57d8:	48 83 e6 f0          	and    $0xfffffffffffffff0,%rsi
    57dc:	66 0f eb c1          	por    %xmm1,%xmm0
    57e0:	66 0f 6f c8          	movdqa %xmm0,%xmm1
    57e4:	66 0f 73 d9 04       	psrldq $0x4,%xmm1
    57e9:	66 0f eb c1          	por    %xmm1,%xmm0
    57ed:	66 0f 6f c8          	movdqa %xmm0,%xmm1
    57f1:	66 0f 73 d9 02       	psrldq $0x2,%xmm1
    57f6:	66 0f eb c1          	por    %xmm1,%xmm0
    57fa:	66 0f 6f c8          	movdqa %xmm0,%xmm1
    57fe:	66 0f 73 d9 01       	psrldq $0x1,%xmm1
    5803:	66 0f eb c1          	por    %xmm1,%xmm0
    5807:	66 0f 7e c0          	movd   %xmm0,%eax
    580b:	41 f6 c1 0f          	test   $0xf,%r9b
    580f:	0f 84 57 01 00 00    	je     596c <pqcrystals_kyber1024_ref_verify+0x1ec>
    5815:	4d 89 ca             	mov    %r9,%r10
    5818:	53                   	push   %rbx
    5819:	49 29 f2             	sub    %rsi,%r10
    581c:	49 8d 52 ff          	lea    -0x1(%r10),%rdx
    5820:	48 83 fa 06          	cmp    $0x6,%rdx
    5824:	0f 86 a2 00 00 00    	jbe    58cc <pqcrystals_kyber1024_ref_verify+0x14c>
    582a:	f3 41 0f 7e 04 30    	movq   (%r8,%rsi,1),%xmm0
    5830:	f3 0f 7e 0c 37       	movq   (%rdi,%rsi,1),%xmm1
    5835:	66 0f ef c8          	pxor   %xmm0,%xmm1
    5839:	66 48 0f 7e c9       	movq   %xmm1,%rcx
    583e:	66 0f d6 4c 24 f8    	movq   %xmm1,-0x8(%rsp)
    5844:	89 ca                	mov    %ecx,%edx
    5846:	0f b6 dd             	movzbl %ch,%ebx
    5849:	66 0f d6 4c 24 f0    	movq   %xmm1,-0x10(%rsp)
    584f:	09 da                	or     %ebx,%edx
    5851:	66 0f d6 4c 24 e8    	movq   %xmm1,-0x18(%rsp)
    5857:	09 c2                	or     %eax,%edx
    5859:	66 48 0f 7e c8       	movq   %xmm1,%rax
    585e:	66 0f d6 4c 24 e0    	movq   %xmm1,-0x20(%rsp)
    5864:	48 c1 e8 10          	shr    $0x10,%rax
    5868:	66 0f d6 4c 24 d8    	movq   %xmm1,-0x28(%rsp)
    586e:	09 c2                	or     %eax,%edx
    5870:	66 48 0f 7e c8       	movq   %xmm1,%rax
    5875:	66 0f d6 4c 24 d0    	movq   %xmm1,-0x30(%rsp)
    587b:	48 c1 e8 18          	shr    $0x18,%rax
    587f:	66 0f d6 4c 24 c8    	movq   %xmm1,-0x38(%rsp)
    5885:	09 c2                	or     %eax,%edx
    5887:	66 48 0f 7e c8       	movq   %xmm1,%rax
    588c:	66 0f d6 4c 24 c0    	movq   %xmm1,-0x40(%rsp)
    5892:	48 c1 e8 20          	shr    $0x20,%rax
    5896:	09 c2                	or     %eax,%edx
    5898:	66 48 0f 7e c8       	movq   %xmm1,%rax
    589d:	48 c1 e8 28          	shr    $0x28,%rax
    58a1:	09 c2                	or     %eax,%edx
    58a3:	66 48 0f 7e c8       	movq   %xmm1,%rax
    58a8:	48 c1 e8 30          	shr    $0x30,%rax
    58ac:	09 c2                	or     %eax,%edx
    58ae:	66 48 0f 7e c8       	movq   %xmm1,%rax
    58b3:	48 c1 e8 38          	shr    $0x38,%rax
    58b7:	09 d0                	or     %edx,%eax
    58b9:	4c 89 d2             	mov    %r10,%rdx
    58bc:	48 83 e2 f8          	and    $0xfffffffffffffff8,%rdx
    58c0:	48 01 d6             	add    %rdx,%rsi
    58c3:	49 39 d2             	cmp    %rdx,%r10
    58c6:	0f 84 88 00 00 00    	je     5954 <pqcrystals_kyber1024_ref_verify+0x1d4>
    58cc:	0f b6 14 37          	movzbl (%rdi,%rsi,1),%edx
    58d0:	41 32 14 30          	xor    (%r8,%rsi,1),%dl
    58d4:	09 d0                	or     %edx,%eax
    58d6:	48 8d 56 01          	lea    0x1(%rsi),%rdx
    58da:	49 39 d1             	cmp    %rdx,%r9
    58dd:	76 75                	jbe    5954 <pqcrystals_kyber1024_ref_verify+0x1d4>
    58df:	41 0f b6 54 30 01    	movzbl 0x1(%r8,%rsi,1),%edx
    58e5:	32 54 37 01          	xor    0x1(%rdi,%rsi,1),%dl
    58e9:	09 d0                	or     %edx,%eax
    58eb:	48 8d 56 02          	lea    0x2(%rsi),%rdx
    58ef:	49 39 d1             	cmp    %rdx,%r9
    58f2:	76 60                	jbe    5954 <pqcrystals_kyber1024_ref_verify+0x1d4>
    58f4:	0f b6 54 37 02       	movzbl 0x2(%rdi,%rsi,1),%edx
    58f9:	41 32 54 30 02       	xor    0x2(%r8,%rsi,1),%dl
    58fe:	09 d0                	or     %edx,%eax
    5900:	48 8d 56 03          	lea    0x3(%rsi),%rdx
    5904:	49 39 d1             	cmp    %rdx,%r9
    5907:	76 4b                	jbe    5954 <pqcrystals_kyber1024_ref_verify+0x1d4>
    5909:	0f b6 54 37 03       	movzbl 0x3(%rdi,%rsi,1),%edx
    590e:	41 32 54 30 03       	xor    0x3(%r8,%rsi,1),%dl
    5913:	09 d0                	or     %edx,%eax
    5915:	48 8d 56 04          	lea    0x4(%rsi),%rdx
    5919:	49 39 d1             	cmp    %rdx,%r9
    591c:	76 36                	jbe    5954 <pqcrystals_kyber1024_ref_verify+0x1d4>
    591e:	0f b6 54 37 04       	movzbl 0x4(%rdi,%rsi,1),%edx
    5923:	41 32 54 30 04       	xor    0x4(%r8,%rsi,1),%dl
    5928:	09 d0                	or     %edx,%eax
    592a:	48 8d 56 05          	lea    0x5(%rsi),%rdx
    592e:	49 39 d1             	cmp    %rdx,%r9
    5931:	76 21                	jbe    5954 <pqcrystals_kyber1024_ref_verify+0x1d4>
    5933:	0f b6 54 37 05       	movzbl 0x5(%rdi,%rsi,1),%edx
    5938:	41 32 54 30 05       	xor    0x5(%r8,%rsi,1),%dl
    593d:	09 d0                	or     %edx,%eax
    593f:	48 8d 56 06          	lea    0x6(%rsi),%rdx
    5943:	49 39 d1             	cmp    %rdx,%r9
    5946:	76 0c                	jbe    5954 <pqcrystals_kyber1024_ref_verify+0x1d4>
    5948:	0f b6 54 37 06       	movzbl 0x6(%rdi,%rsi,1),%edx
    594d:	41 32 54 30 06       	xor    0x6(%r8,%rsi,1),%dl
    5952:	09 d0                	or     %edx,%eax
    5954:	0f b6 c0             	movzbl %al,%eax
    5957:	5b                   	pop    %rbx
    5958:	48 f7 d8             	neg    %rax
    595b:	48 c1 e8 3f          	shr    $0x3f,%rax
    595f:	c3                   	ret    
    5960:	31 c0                	xor    %eax,%eax
    5962:	c3                   	ret    
    5963:	31 c0                	xor    %eax,%eax
    5965:	31 f6                	xor    %esi,%esi
    5967:	e9 a9 fe ff ff       	jmp    5815 <pqcrystals_kyber1024_ref_verify+0x95>
    596c:	0f b6 c0             	movzbl %al,%eax
    596f:	48 f7 d8             	neg    %rax
    5972:	48 c1 e8 3f          	shr    $0x3f,%rax
    5976:	c3                   	ret    
    5977:	66 0f 1f 84 00 00 00 	nopw   0x0(%rax,%rax,1)
    597e:	00 00 

0000000000005980 <pqcrystals_kyber1024_ref_cmov>:
    5980:	f3 0f 1e fa          	endbr64 
    5984:	f7 d9                	neg    %ecx
    5986:	48 85 d2             	test   %rdx,%rdx
    5989:	0f 84 f9 01 00 00    	je     5b88 <pqcrystals_kyber1024_ref_cmov+0x208>
    598f:	4c 8d 4e 01          	lea    0x1(%rsi),%r9
    5993:	49 89 f8             	mov    %rdi,%r8
    5996:	48 8d 42 ff          	lea    -0x1(%rdx),%rax
    599a:	4d 29 c8             	sub    %r9,%r8
    599d:	49 83 f8 0e          	cmp    $0xe,%r8
    59a1:	0f 86 b9 01 00 00    	jbe    5b60 <pqcrystals_kyber1024_ref_cmov+0x1e0>
    59a7:	48 83 f8 06          	cmp    $0x6,%rax
    59ab:	0f 86 af 01 00 00    	jbe    5b60 <pqcrystals_kyber1024_ref_cmov+0x1e0>
    59b1:	48 83 f8 0e          	cmp    $0xe,%rax
    59b5:	0f 86 ce 01 00 00    	jbe    5b89 <pqcrystals_kyber1024_ref_cmov+0x209>
    59bb:	66 0f 6e c9          	movd   %ecx,%xmm1
    59bf:	49 89 d0             	mov    %rdx,%r8
    59c2:	31 c0                	xor    %eax,%eax
    59c4:	66 0f 60 c9          	punpcklbw %xmm1,%xmm1
    59c8:	49 83 e0 f0          	and    $0xfffffffffffffff0,%r8
    59cc:	66 0f 61 c9          	punpcklwd %xmm1,%xmm1
    59d0:	66 0f 70 c9 00       	pshufd $0x0,%xmm1,%xmm1
    59d5:	0f 1f 00             	nopl   (%rax)
    59d8:	f3 0f 6f 1c 07       	movdqu (%rdi,%rax,1),%xmm3
    59dd:	f3 0f 6f 04 06       	movdqu (%rsi,%rax,1),%xmm0
    59e2:	66 0f ef c3          	pxor   %xmm3,%xmm0
    59e6:	66 0f db c1          	pand   %xmm1,%xmm0
    59ea:	66 0f ef c3          	pxor   %xmm3,%xmm0
    59ee:	0f 11 04 07          	movups %xmm0,(%rdi,%rax,1)
    59f2:	48 83 c0 10          	add    $0x10,%rax
    59f6:	49 39 c0             	cmp    %rax,%r8
    59f9:	75 dd                	jne    59d8 <pqcrystals_kyber1024_ref_cmov+0x58>
    59fb:	48 89 d0             	mov    %rdx,%rax
    59fe:	48 83 e0 f0          	and    $0xfffffffffffffff0,%rax
    5a02:	f6 c2 0f             	test   $0xf,%dl
    5a05:	0f 84 7d 01 00 00    	je     5b88 <pqcrystals_kyber1024_ref_cmov+0x208>
    5a0b:	49 89 d2             	mov    %rdx,%r10
    5a0e:	49 29 c2             	sub    %rax,%r10
    5a11:	4d 8d 42 ff          	lea    -0x1(%r10),%r8
    5a15:	49 83 f8 06          	cmp    $0x6,%r8
    5a19:	76 4a                	jbe    5a65 <pqcrystals_kyber1024_ref_cmov+0xe5>
    5a1b:	41 89 c8             	mov    %ecx,%r8d
    5a1e:	4c 8d 1c 07          	lea    (%rdi,%rax,1),%r11
    5a22:	44 0f b6 c9          	movzbl %cl,%r9d
    5a26:	f3 0f 7e 04 06       	movq   (%rsi,%rax,1),%xmm0
    5a2b:	41 c1 e0 08          	shl    $0x8,%r8d
    5a2f:	f3 41 0f 7e 0b       	movq   (%r11),%xmm1
    5a34:	45 09 c8             	or     %r9d,%r8d
    5a37:	66 41 0f 6e e8       	movd   %r8d,%xmm5
    5a3c:	66 0f ef c1          	pxor   %xmm1,%xmm0
    5a40:	4d 89 d0             	mov    %r10,%r8
    5a43:	f2 0f 70 d5 00       	pshuflw $0x0,%xmm5,%xmm2
    5a48:	49 83 e0 f8          	and    $0xfffffffffffffff8,%r8
    5a4c:	66 0f db c2          	pand   %xmm2,%xmm0
    5a50:	4c 01 c0             	add    %r8,%rax
    5a53:	66 0f ef c1          	pxor   %xmm1,%xmm0
    5a57:	66 41 0f d6 03       	movq   %xmm0,(%r11)
    5a5c:	4d 39 c2             	cmp    %r8,%r10
    5a5f:	0f 84 23 01 00 00    	je     5b88 <pqcrystals_kyber1024_ref_cmov+0x208>
    5a65:	4c 8d 0c 07          	lea    (%rdi,%rax,1),%r9
    5a69:	44 0f b6 04 06       	movzbl (%rsi,%rax,1),%r8d
    5a6e:	45 0f b6 11          	movzbl (%r9),%r10d
    5a72:	45 31 d0             	xor    %r10d,%r8d
    5a75:	41 21 c8             	and    %ecx,%r8d
    5a78:	45 31 d0             	xor    %r10d,%r8d
    5a7b:	45 88 01             	mov    %r8b,(%r9)
    5a7e:	4c 8d 40 01          	lea    0x1(%rax),%r8
    5a82:	4c 39 c2             	cmp    %r8,%rdx
    5a85:	0f 86 fd 00 00 00    	jbe    5b88 <pqcrystals_kyber1024_ref_cmov+0x208>
    5a8b:	49 01 f8             	add    %rdi,%r8
    5a8e:	44 0f b6 4c 06 01    	movzbl 0x1(%rsi,%rax,1),%r9d
    5a94:	45 0f b6 10          	movzbl (%r8),%r10d
    5a98:	45 31 d1             	xor    %r10d,%r9d
    5a9b:	41 21 c9             	and    %ecx,%r9d
    5a9e:	45 31 d1             	xor    %r10d,%r9d
    5aa1:	45 88 08             	mov    %r9b,(%r8)
    5aa4:	4c 8d 40 02          	lea    0x2(%rax),%r8
    5aa8:	4c 39 c2             	cmp    %r8,%rdx
    5aab:	0f 86 d7 00 00 00    	jbe    5b88 <pqcrystals_kyber1024_ref_cmov+0x208>
    5ab1:	49 01 f8             	add    %rdi,%r8
    5ab4:	44 0f b6 4c 06 02    	movzbl 0x2(%rsi,%rax,1),%r9d
    5aba:	45 0f b6 10          	movzbl (%r8),%r10d
    5abe:	45 31 d1             	xor    %r10d,%r9d
    5ac1:	41 21 c9             	and    %ecx,%r9d
    5ac4:	45 31 d1             	xor    %r10d,%r9d
    5ac7:	45 88 08             	mov    %r9b,(%r8)
    5aca:	4c 8d 40 03          	lea    0x3(%rax),%r8
    5ace:	4c 39 c2             	cmp    %r8,%rdx
    5ad1:	0f 86 b1 00 00 00    	jbe    5b88 <pqcrystals_kyber1024_ref_cmov+0x208>
    5ad7:	49 01 f8             	add    %rdi,%r8
    5ada:	44 0f b6 4c 06 03    	movzbl 0x3(%rsi,%rax,1),%r9d
    5ae0:	45 0f b6 10          	movzbl (%r8),%r10d
    5ae4:	45 31 d1             	xor    %r10d,%r9d
    5ae7:	41 21 c9             	and    %ecx,%r9d
    5aea:	45 31 d1             	xor    %r10d,%r9d
    5aed:	45 88 08             	mov    %r9b,(%r8)
    5af0:	4c 8d 40 04          	lea    0x4(%rax),%r8
    5af4:	4c 39 c2             	cmp    %r8,%rdx
    5af7:	0f 86 8b 00 00 00    	jbe    5b88 <pqcrystals_kyber1024_ref_cmov+0x208>
    5afd:	49 01 f8             	add    %rdi,%r8
    5b00:	44 0f b6 4c 06 04    	movzbl 0x4(%rsi,%rax,1),%r9d
    5b06:	45 0f b6 10          	movzbl (%r8),%r10d
    5b0a:	45 31 d1             	xor    %r10d,%r9d
    5b0d:	41 21 c9             	and    %ecx,%r9d
    5b10:	45 31 d1             	xor    %r10d,%r9d
    5b13:	45 88 08             	mov    %r9b,(%r8)
    5b16:	4c 8d 40 05          	lea    0x5(%rax),%r8
    5b1a:	4c 39 c2             	cmp    %r8,%rdx
    5b1d:	76 69                	jbe    5b88 <pqcrystals_kyber1024_ref_cmov+0x208>
    5b1f:	49 01 f8             	add    %rdi,%r8
    5b22:	44 0f b6 4c 06 05    	movzbl 0x5(%rsi,%rax,1),%r9d
    5b28:	45 0f b6 10          	movzbl (%r8),%r10d
    5b2c:	45 31 d1             	xor    %r10d,%r9d
    5b2f:	41 21 c9             	and    %ecx,%r9d
    5b32:	45 31 d1             	xor    %r10d,%r9d
    5b35:	45 88 08             	mov    %r9b,(%r8)
    5b38:	4c 8d 40 06          	lea    0x6(%rax),%r8
    5b3c:	4c 39 c2             	cmp    %r8,%rdx
    5b3f:	76 47                	jbe    5b88 <pqcrystals_kyber1024_ref_cmov+0x208>
    5b41:	49 01 f8             	add    %rdi,%r8
    5b44:	0f b6 7c 06 06       	movzbl 0x6(%rsi,%rax,1),%edi
    5b49:	41 0f b6 10          	movzbl (%r8),%edx
    5b4d:	31 d7                	xor    %edx,%edi
    5b4f:	89 f8                	mov    %edi,%eax
    5b51:	21 c8                	and    %ecx,%eax
    5b53:	31 d0                	xor    %edx,%eax
    5b55:	41 88 00             	mov    %al,(%r8)
    5b58:	c3                   	ret    
    5b59:	0f 1f 80 00 00 00 00 	nopl   0x0(%rax)
    5b60:	31 c0                	xor    %eax,%eax
    5b62:	66 0f 1f 44 00 00    	nopw   0x0(%rax,%rax,1)
    5b68:	44 0f b6 0c 07       	movzbl (%rdi,%rax,1),%r9d
    5b6d:	44 0f b6 04 06       	movzbl (%rsi,%rax,1),%r8d
    5b72:	45 31 c8             	xor    %r9d,%r8d
    5b75:	41 21 c8             	and    %ecx,%r8d
    5b78:	45 31 c8             	xor    %r9d,%r8d
    5b7b:	44 88 04 07          	mov    %r8b,(%rdi,%rax,1)
    5b7f:	48 83 c0 01          	add    $0x1,%rax
    5b83:	48 39 c2             	cmp    %rax,%rdx
    5b86:	75 e0                	jne    5b68 <pqcrystals_kyber1024_ref_cmov+0x1e8>
    5b88:	c3                   	ret    
    5b89:	49 89 d2             	mov    %rdx,%r10
    5b8c:	31 c0                	xor    %eax,%eax
    5b8e:	e9 88 fe ff ff       	jmp    5a1b <pqcrystals_kyber1024_ref_cmov+0x9b>
    5b93:	66 2e 0f 1f 84 00 00 	cs nopw 0x0(%rax,%rax,1)
    5b9a:	00 00 00 
    5b9d:	0f 1f 00             	nopl   (%rax)

0000000000005ba0 <KeccakF1600_StatePermute>:
    5ba0:	41 57                	push   %r15
    5ba2:	48 8d 05 97 56 00 00 	lea    0x5697(%rip),%rax        # b240 <KeccakF_RoundConstants>
    5ba9:	41 56                	push   %r14
    5bab:	41 55                	push   %r13
    5bad:	41 54                	push   %r12
    5baf:	55                   	push   %rbp
    5bb0:	53                   	push   %rbx
    5bb1:	48 83 ec 68          	sub    $0x68,%rsp
    5bb5:	48 8b 37             	mov    (%rdi),%rsi
    5bb8:	4c 8b 6f 38          	mov    0x38(%rdi),%r13
    5bbc:	4c 8b 7f 30          	mov    0x30(%rdi),%r15
    5bc0:	4c 8b 67 60          	mov    0x60(%rdi),%r12
    5bc4:	48 89 7c 24 60       	mov    %rdi,0x60(%rsp)
    5bc9:	48 89 74 24 58       	mov    %rsi,0x58(%rsp)
    5bce:	48 8b 77 08          	mov    0x8(%rdi),%rsi
    5bd2:	48 89 74 24 90       	mov    %rsi,-0x70(%rsp)
    5bd7:	48 8b 77 10          	mov    0x10(%rdi),%rsi
    5bdb:	48 89 74 24 98       	mov    %rsi,-0x68(%rsp)
    5be0:	48 8b 77 18          	mov    0x18(%rdi),%rsi
    5be4:	48 89 74 24 a0       	mov    %rsi,-0x60(%rsp)
    5be9:	48 8b 77 20          	mov    0x20(%rdi),%rsi
    5bed:	48 89 74 24 a8       	mov    %rsi,-0x58(%rsp)
    5bf2:	48 8b 77 28          	mov    0x28(%rdi),%rsi
    5bf6:	48 89 74 24 b0       	mov    %rsi,-0x50(%rsp)
    5bfb:	48 8b 77 40          	mov    0x40(%rdi),%rsi
    5bff:	48 89 74 24 b8       	mov    %rsi,-0x48(%rsp)
    5c04:	48 8b 77 48          	mov    0x48(%rdi),%rsi
    5c08:	48 89 74 24 c0       	mov    %rsi,-0x40(%rsp)
    5c0d:	48 8b 77 50          	mov    0x50(%rdi),%rsi
    5c11:	48 89 74 24 c8       	mov    %rsi,-0x38(%rsp)
    5c16:	48 8b 77 58          	mov    0x58(%rdi),%rsi
    5c1a:	48 89 74 24 d0       	mov    %rsi,-0x30(%rsp)
    5c1f:	48 8b 77 68          	mov    0x68(%rdi),%rsi
    5c23:	48 89 74 24 d8       	mov    %rsi,-0x28(%rsp)
    5c28:	48 8b 77 70          	mov    0x70(%rdi),%rsi
    5c2c:	4c 8b b7 a0 00 00 00 	mov    0xa0(%rdi),%r14
    5c33:	48 89 44 24 88       	mov    %rax,-0x78(%rsp)
    5c38:	48 89 74 24 e0       	mov    %rsi,-0x20(%rsp)
    5c3d:	48 8b 77 78          	mov    0x78(%rdi),%rsi
    5c41:	4c 89 6c 24 10       	mov    %r13,0x10(%rsp)
    5c46:	4c 8b 87 80 00 00 00 	mov    0x80(%rdi),%r8
    5c4d:	48 89 74 24 e8       	mov    %rsi,-0x18(%rsp)
    5c52:	48 8b b7 88 00 00 00 	mov    0x88(%rdi),%rsi
    5c59:	4c 89 74 24 18       	mov    %r14,0x18(%rsp)
    5c5e:	48 8b 8f 90 00 00 00 	mov    0x90(%rdi),%rcx
    5c65:	48 89 74 24 f0       	mov    %rsi,-0x10(%rsp)
    5c6a:	48 8b b7 98 00 00 00 	mov    0x98(%rdi),%rsi
    5c71:	48 8b 97 b0 00 00 00 	mov    0xb0(%rdi),%rdx
    5c78:	48 8b 9f c0 00 00 00 	mov    0xc0(%rdi),%rbx
    5c7f:	48 89 74 24 f8       	mov    %rsi,-0x8(%rsp)
    5c84:	48 8b b7 a8 00 00 00 	mov    0xa8(%rdi),%rsi
    5c8b:	48 89 34 24          	mov    %rsi,(%rsp)
    5c8f:	48 8b b7 b8 00 00 00 	mov    0xb8(%rdi),%rsi
    5c96:	48 89 74 24 08       	mov    %rsi,0x8(%rsp)
    5c9b:	0f 1f 44 00 00       	nopl   0x0(%rax,%rax,1)
    5ca0:	4c 8b 6c 24 90       	mov    -0x70(%rsp),%r13
    5ca5:	4c 8b 54 24 98       	mov    -0x68(%rsp),%r10
    5caa:	4c 8b 4c 24 d8       	mov    -0x28(%rsp),%r9
    5caf:	4c 33 54 24 10       	xor    0x10(%rsp),%r10
    5cb4:	4d 31 e2             	xor    %r12,%r10
    5cb7:	48 8b 44 24 a0       	mov    -0x60(%rsp),%rax
    5cbc:	4c 33 54 24 f0       	xor    -0x10(%rsp),%r10
    5cc1:	4d 31 fd             	xor    %r15,%r13
    5cc4:	48 33 44 24 b8       	xor    -0x48(%rsp),%rax
    5cc9:	49 31 d2             	xor    %rdx,%r10
    5ccc:	4c 8b 74 24 58       	mov    0x58(%rsp),%r14
    5cd1:	4c 33 6c 24 d0       	xor    -0x30(%rsp),%r13
    5cd6:	49 31 c1             	xor    %rax,%r9
    5cd9:	48 8b 7c 24 b0       	mov    -0x50(%rsp),%rdi
    5cde:	4d 89 d3             	mov    %r10,%r11
    5ce1:	4d 31 c5             	xor    %r8,%r13
    5ce4:	49 31 c9             	xor    %rcx,%r9
    5ce7:	4c 33 2c 24          	xor    (%rsp),%r13
    5ceb:	4c 33 4c 24 08       	xor    0x8(%rsp),%r9
    5cf0:	4c 31 f7             	xor    %r14,%rdi
    5cf3:	48 8b 74 24 a8       	mov    -0x58(%rsp),%rsi
    5cf8:	48 33 7c 24 c8       	xor    -0x38(%rsp),%rdi
    5cfd:	4c 89 ed             	mov    %r13,%rbp
    5d00:	48 33 7c 24 e8       	xor    -0x18(%rsp),%rdi
    5d05:	48 33 74 24 c0       	xor    -0x40(%rsp),%rsi
    5d0a:	49 d1 c3             	rol    %r11
    5d0d:	4c 89 c8             	mov    %r9,%rax
    5d10:	48 d1 c5             	rol    %rbp
    5d13:	48 33 7c 24 18       	xor    0x18(%rsp),%rdi
    5d18:	48 33 74 24 e0       	xor    -0x20(%rsp),%rsi
    5d1d:	48 d1 c0             	rol    %rax
    5d20:	48 33 74 24 f8       	xor    -0x8(%rsp),%rsi
    5d25:	49 31 fb             	xor    %rdi,%r11
    5d28:	48 d1 c7             	rol    %rdi
    5d2b:	4c 31 e8             	xor    %r13,%rax
    5d2e:	48 31 de             	xor    %rbx,%rsi
    5d31:	4c 31 cf             	xor    %r9,%rdi
    5d34:	4c 8b 6c 24 88       	mov    -0x78(%rsp),%r13
    5d39:	4d 89 f1             	mov    %r14,%r9
    5d3c:	48 31 f5             	xor    %rsi,%rbp
    5d3f:	4d 31 df             	xor    %r11,%r15
    5d42:	48 d1 c6             	rol    %rsi
    5d45:	4c 31 d6             	xor    %r10,%rsi
    5d48:	49 31 e9             	xor    %rbp,%r9
    5d4b:	49 c1 cf 14          	ror    $0x14,%r15
    5d4f:	4d 8b 75 00          	mov    0x0(%r13),%r14
    5d53:	49 31 c4             	xor    %rax,%r12
    5d56:	4d 89 fa             	mov    %r15,%r10
    5d59:	48 31 f1             	xor    %rsi,%rcx
    5d5c:	48 31 fb             	xor    %rdi,%rbx
    5d5f:	49 c1 cc 15          	ror    $0x15,%r12
    5d63:	49 f7 d2             	not    %r10
    5d66:	4d 31 ce             	xor    %r9,%r14
    5d69:	48 c1 c1 15          	rol    $0x15,%rcx
    5d6d:	4d 21 e2             	and    %r12,%r10
    5d70:	48 c1 c3 0e          	rol    $0xe,%rbx
    5d74:	4d 31 d8             	xor    %r11,%r8
    5d77:	48 31 c2             	xor    %rax,%rdx
    5d7a:	49 c1 c8 13          	ror    $0x13,%r8
    5d7e:	4d 31 f2             	xor    %r14,%r10
    5d81:	4d 89 e6             	mov    %r12,%r14
    5d84:	48 c1 ca 03          	ror    $0x3,%rdx
    5d88:	49 f7 d6             	not    %r14
    5d8b:	4c 89 54 24 50       	mov    %r10,0x50(%rsp)
    5d90:	4d 89 f2             	mov    %r14,%r10
    5d93:	49 89 ce             	mov    %rcx,%r14
    5d96:	49 21 ca             	and    %rcx,%r10
    5d99:	49 f7 d6             	not    %r14
    5d9c:	4d 31 fa             	xor    %r15,%r10
    5d9f:	4c 89 54 24 20       	mov    %r10,0x20(%rsp)
    5da4:	4d 89 f2             	mov    %r14,%r10
    5da7:	49 89 de             	mov    %rbx,%r14
    5daa:	49 21 da             	and    %rbx,%r10
    5dad:	49 f7 d6             	not    %r14
    5db0:	4d 31 e2             	xor    %r12,%r10
    5db3:	4c 89 54 24 28       	mov    %r10,0x28(%rsp)
    5db8:	4d 89 f2             	mov    %r14,%r10
    5dbb:	4d 21 ca             	and    %r9,%r10
    5dbe:	49 f7 d1             	not    %r9
    5dc1:	4d 21 f9             	and    %r15,%r9
    5dc4:	4d 89 d4             	mov    %r10,%r12
    5dc7:	49 31 d9             	xor    %rbx,%r9
    5dca:	48 8b 5c 24 c0       	mov    -0x40(%rsp),%rbx
    5dcf:	49 31 cc             	xor    %rcx,%r12
    5dd2:	48 8b 4c 24 a0       	mov    -0x60(%rsp),%rcx
    5dd7:	4c 89 4c 24 38       	mov    %r9,0x38(%rsp)
    5ddc:	48 31 fb             	xor    %rdi,%rbx
    5ddf:	48 31 f1             	xor    %rsi,%rcx
    5de2:	4c 89 64 24 30       	mov    %r12,0x30(%rsp)
    5de7:	49 89 d9             	mov    %rbx,%r9
    5dea:	48 8b 5c 24 c8       	mov    -0x38(%rsp),%rbx
    5def:	48 c1 c1 1c          	rol    $0x1c,%rcx
    5df3:	49 c1 c1 14          	rol    $0x14,%r9
    5df7:	48 31 eb             	xor    %rbp,%rbx
    5dfa:	49 89 da             	mov    %rbx,%r10
    5dfd:	4c 89 cb             	mov    %r9,%rbx
    5e00:	49 c1 c2 03          	rol    $0x3,%r10
    5e04:	48 f7 d3             	not    %rbx
    5e07:	4c 21 d3             	and    %r10,%rbx
    5e0a:	4d 89 d6             	mov    %r10,%r14
    5e0d:	48 31 cb             	xor    %rcx,%rbx
    5e10:	49 f7 d6             	not    %r14
    5e13:	48 89 5c 24 40       	mov    %rbx,0x40(%rsp)
    5e18:	4c 89 f3             	mov    %r14,%rbx
    5e1b:	4d 89 c6             	mov    %r8,%r14
    5e1e:	4c 21 c3             	and    %r8,%rbx
    5e21:	49 f7 d6             	not    %r14
    5e24:	49 89 df             	mov    %rbx,%r15
    5e27:	4c 89 f3             	mov    %r14,%rbx
    5e2a:	49 89 d6             	mov    %rdx,%r14
    5e2d:	4d 31 cf             	xor    %r9,%r15
    5e30:	49 f7 d6             	not    %r14
    5e33:	48 21 d3             	and    %rdx,%rbx
    5e36:	4c 31 d3             	xor    %r10,%rbx
    5e39:	4d 89 f2             	mov    %r14,%r10
    5e3c:	49 21 ca             	and    %rcx,%r10
    5e3f:	48 f7 d1             	not    %rcx
    5e42:	48 89 5c 24 c8       	mov    %rbx,-0x38(%rsp)
    5e47:	4c 21 c9             	and    %r9,%rcx
    5e4a:	4d 89 d4             	mov    %r10,%r12
    5e4d:	4d 31 c4             	xor    %r8,%r12
    5e50:	48 31 d1             	xor    %rdx,%rcx
    5e53:	4c 89 64 24 48       	mov    %r12,0x48(%rsp)
    5e58:	48 89 4c 24 c0       	mov    %rcx,-0x40(%rsp)
    5e5d:	48 8b 4c 24 10       	mov    0x10(%rsp),%rcx
    5e62:	4c 8b 44 24 d8       	mov    -0x28(%rsp),%r8
    5e67:	4c 8b 74 24 18       	mov    0x18(%rsp),%r14
    5e6c:	48 31 c1             	xor    %rax,%rcx
    5e6f:	48 8b 54 24 90       	mov    -0x70(%rsp),%rdx
    5e74:	48 c1 c1 06          	rol    $0x6,%rcx
    5e78:	49 31 f0             	xor    %rsi,%r8
    5e7b:	49 31 ee             	xor    %rbp,%r14
    5e7e:	4d 89 c1             	mov    %r8,%r9
    5e81:	49 89 cd             	mov    %rcx,%r13
    5e84:	4c 8b 44 24 f8       	mov    -0x8(%rsp),%r8
    5e89:	49 c1 c6 12          	rol    $0x12,%r14
    5e8d:	49 c1 c1 19          	rol    $0x19,%r9
    5e91:	49 f7 d5             	not    %r13
    5e94:	4c 31 da             	xor    %r11,%rdx
    5e97:	49 31 f8             	xor    %rdi,%r8
    5e9a:	4d 89 ea             	mov    %r13,%r10
    5e9d:	4c 89 cb             	mov    %r9,%rbx
    5ea0:	48 d1 c2             	rol    %rdx
    5ea3:	49 c1 c0 08          	rol    $0x8,%r8
    5ea7:	4d 21 ca             	and    %r9,%r10
    5eaa:	48 f7 d3             	not    %rbx
    5ead:	4d 89 d5             	mov    %r10,%r13
    5eb0:	49 89 da             	mov    %rbx,%r10
    5eb3:	4c 89 c3             	mov    %r8,%rbx
    5eb6:	4d 21 c2             	and    %r8,%r10
    5eb9:	48 f7 d3             	not    %rbx
    5ebc:	49 31 d5             	xor    %rdx,%r13
    5ebf:	4d 89 d4             	mov    %r10,%r12
    5ec2:	49 89 da             	mov    %rbx,%r10
    5ec5:	4c 89 6c 24 d8       	mov    %r13,-0x28(%rsp)
    5eca:	4d 21 f2             	and    %r14,%r10
    5ecd:	49 31 cc             	xor    %rcx,%r12
    5ed0:	4d 31 ca             	xor    %r9,%r10
    5ed3:	4d 89 f1             	mov    %r14,%r9
    5ed6:	4c 89 64 24 f8       	mov    %r12,-0x8(%rsp)
    5edb:	49 f7 d1             	not    %r9
    5ede:	49 21 d1             	and    %rdx,%r9
    5ee1:	48 f7 d2             	not    %rdx
    5ee4:	4d 31 c1             	xor    %r8,%r9
    5ee7:	4c 8b 44 24 b0       	mov    -0x50(%rsp),%r8
    5eec:	48 21 ca             	and    %rcx,%rdx
    5eef:	48 8b 4c 24 08       	mov    0x8(%rsp),%rcx
    5ef4:	4c 31 f2             	xor    %r14,%rdx
    5ef7:	4c 89 4c 24 18       	mov    %r9,0x18(%rsp)
    5efc:	49 31 e8             	xor    %rbp,%r8
    5eff:	49 89 d6             	mov    %rdx,%r14
    5f02:	48 8b 54 24 a8       	mov    -0x58(%rsp),%rdx
    5f07:	4c 89 c3             	mov    %r8,%rbx
    5f0a:	4c 8b 44 24 d0       	mov    -0x30(%rsp),%r8
    5f0f:	48 31 fa             	xor    %rdi,%rdx
    5f12:	48 c1 cb 1c          	ror    $0x1c,%rbx
    5f16:	4d 31 d8             	xor    %r11,%r8
    5f19:	48 c1 c2 1b          	rol    $0x1b,%rdx
    5f1d:	4d 89 c1             	mov    %r8,%r9
    5f20:	4c 8b 44 24 f0       	mov    -0x10(%rsp),%r8
    5f25:	49 c1 c1 0a          	rol    $0xa,%r9
    5f29:	49 31 c0             	xor    %rax,%r8
    5f2c:	48 31 f1             	xor    %rsi,%rcx
    5f2f:	48 33 74 24 b8       	xor    -0x48(%rsp),%rsi
    5f34:	48 33 7c 24 e0       	xor    -0x20(%rsp),%rdi
    5f39:	4d 89 c4             	mov    %r8,%r12
    5f3c:	49 89 d8             	mov    %rbx,%r8
    5f3f:	48 c1 c9 08          	ror    $0x8,%rcx
    5f43:	48 33 6c 24 e8       	xor    -0x18(%rsp),%rbp
    5f48:	49 c1 c4 0f          	rol    $0xf,%r12
    5f4c:	49 f7 d0             	not    %r8
    5f4f:	48 c1 ce 09          	ror    $0x9,%rsi
    5f53:	4c 33 1c 24          	xor    (%rsp),%r11
    5f57:	4d 89 e5             	mov    %r12,%r13
    5f5a:	4d 21 c8             	and    %r9,%r8
    5f5d:	48 c1 cf 19          	ror    $0x19,%rdi
    5f61:	48 33 44 24 98       	xor    -0x68(%rsp),%rax
    5f66:	48 c1 cd 17          	ror    $0x17,%rbp
    5f6a:	49 f7 d5             	not    %r13
    5f6d:	49 31 d0             	xor    %rdx,%r8
    5f70:	49 c1 c3 02          	rol    $0x2,%r11
    5f74:	49 21 cd             	and    %rcx,%r13
    5f77:	4c 89 44 24 08       	mov    %r8,0x8(%rsp)
    5f7c:	4d 89 c8             	mov    %r9,%r8
    5f7f:	48 c1 c8 02          	ror    $0x2,%rax
    5f83:	4d 31 cd             	xor    %r9,%r13
    5f86:	49 89 c9             	mov    %rcx,%r9
    5f89:	49 f7 d0             	not    %r8
    5f8c:	49 f7 d1             	not    %r9
    5f8f:	4d 21 e0             	and    %r12,%r8
    5f92:	4c 89 6c 24 e8       	mov    %r13,-0x18(%rsp)
    5f97:	49 21 d1             	and    %rdx,%r9
    5f9a:	48 f7 d2             	not    %rdx
    5f9d:	49 31 d8             	xor    %rbx,%r8
    5fa0:	48 21 da             	and    %rbx,%rdx
    5fa3:	4d 31 e1             	xor    %r12,%r9
    5fa6:	48 31 ca             	xor    %rcx,%rdx
    5fa9:	48 89 f1             	mov    %rsi,%rcx
    5fac:	48 f7 d1             	not    %rcx
    5faf:	48 89 54 24 d0       	mov    %rdx,-0x30(%rsp)
    5fb4:	48 89 fa             	mov    %rdi,%rdx
    5fb7:	48 21 f9             	and    %rdi,%rcx
    5fba:	48 f7 d7             	not    %rdi
    5fbd:	48 21 ef             	and    %rbp,%rdi
    5fc0:	48 31 c1             	xor    %rax,%rcx
    5fc3:	48 31 f7             	xor    %rsi,%rdi
    5fc6:	49 89 cc             	mov    %rcx,%r12
    5fc9:	48 8b 4c 24 50       	mov    0x50(%rsp),%rcx
    5fce:	48 89 fb             	mov    %rdi,%rbx
    5fd1:	48 89 ef             	mov    %rbp,%rdi
    5fd4:	4c 89 64 24 e0       	mov    %r12,-0x20(%rsp)
    5fd9:	48 f7 d7             	not    %rdi
    5fdc:	48 89 5c 24 50       	mov    %rbx,0x50(%rsp)
    5fe1:	4c 21 df             	and    %r11,%rdi
    5fe4:	48 31 d7             	xor    %rdx,%rdi
    5fe7:	4c 89 da             	mov    %r11,%rdx
    5fea:	48 f7 d2             	not    %rdx
    5fed:	48 21 c2             	and    %rax,%rdx
    5ff0:	48 f7 d0             	not    %rax
    5ff3:	48 31 ea             	xor    %rbp,%rdx
    5ff6:	48 21 f0             	and    %rsi,%rax
    5ff9:	48 8b 6c 24 28       	mov    0x28(%rsp),%rbp
    5ffe:	48 33 6c 24 c8       	xor    -0x38(%rsp),%rbp
    6003:	48 89 54 24 f0       	mov    %rdx,-0x10(%rsp)
    6008:	48 8b 54 24 40       	mov    0x40(%rsp),%rdx
    600d:	4c 31 d5             	xor    %r10,%rbp
    6010:	4c 31 d8             	xor    %r11,%rax
    6013:	4c 31 ed             	xor    %r13,%rbp
    6016:	48 31 ca             	xor    %rcx,%rdx
    6019:	48 33 54 24 d8       	xor    -0x28(%rsp),%rdx
    601e:	48 33 54 24 08       	xor    0x8(%rsp),%rdx
    6023:	48 31 fd             	xor    %rdi,%rbp
    6026:	4c 31 e2             	xor    %r12,%rdx
    6029:	4c 8b 64 24 20       	mov    0x20(%rsp),%r12
    602e:	49 89 ed             	mov    %rbp,%r13
    6031:	49 d1 c5             	rol    %r13
    6034:	4d 31 fc             	xor    %r15,%r12
    6037:	4c 33 64 24 f8       	xor    -0x8(%rsp),%r12
    603c:	49 31 d5             	xor    %rdx,%r13
    603f:	48 d1 c2             	rol    %rdx
    6042:	4d 31 c4             	xor    %r8,%r12
    6045:	49 31 dc             	xor    %rbx,%r12
    6048:	48 8b 5c 24 30       	mov    0x30(%rsp),%rbx
    604d:	4c 8b 5c 24 18       	mov    0x18(%rsp),%r11
    6052:	4c 89 34 24          	mov    %r14,(%rsp)
    6056:	48 33 5c 24 48       	xor    0x48(%rsp),%rbx
    605b:	48 8b 74 24 c0       	mov    -0x40(%rsp),%rsi
    6060:	49 31 db             	xor    %rbx,%r11
    6063:	4d 31 cb             	xor    %r9,%r11
    6066:	4c 31 f6             	xor    %r14,%rsi
    6069:	4c 33 5c 24 f0       	xor    -0x10(%rsp),%r11
    606e:	48 33 74 24 38       	xor    0x38(%rsp),%rsi
    6073:	4d 89 e6             	mov    %r12,%r14
    6076:	48 33 74 24 d0       	xor    -0x30(%rsp),%rsi
    607b:	4c 89 db             	mov    %r11,%rbx
    607e:	4c 31 da             	xor    %r11,%rdx
    6081:	49 d1 c6             	rol    %r14
    6084:	48 31 c6             	xor    %rax,%rsi
    6087:	48 d1 c3             	rol    %rbx
    608a:	49 89 cb             	mov    %rcx,%r11
    608d:	49 31 f6             	xor    %rsi,%r14
    6090:	48 d1 c6             	rol    %rsi
    6093:	4c 31 e3             	xor    %r12,%rbx
    6096:	48 31 ee             	xor    %rbp,%rsi
    6099:	4d 31 f3             	xor    %r14,%r11
    609c:	4d 31 ef             	xor    %r13,%r15
    609f:	49 31 da             	xor    %rbx,%r10
    60a2:	4c 89 fd             	mov    %r15,%rbp
    60a5:	49 c1 ca 15          	ror    $0x15,%r10
    60a9:	49 31 f1             	xor    %rsi,%r9
    60ac:	48 31 d0             	xor    %rdx,%rax
    60af:	48 c1 cd 14          	ror    $0x14,%rbp
    60b3:	49 c1 c1 15          	rol    $0x15,%r9
    60b7:	4d 31 e8             	xor    %r13,%r8
    60ba:	48 31 df             	xor    %rbx,%rdi
    60bd:	48 c1 c0 0e          	rol    $0xe,%rax
    60c1:	49 89 ef             	mov    %rbp,%r15
    60c4:	49 c1 c8 13          	ror    $0x13,%r8
    60c8:	49 f7 d7             	not    %r15
    60cb:	48 c1 cf 03          	ror    $0x3,%rdi
    60cf:	4d 89 fc             	mov    %r15,%r12
    60d2:	4c 8b 7c 24 88       	mov    -0x78(%rsp),%r15
    60d7:	4d 21 d4             	and    %r10,%r12
    60da:	49 8b 4f 08          	mov    0x8(%r15),%rcx
    60de:	4c 31 d9             	xor    %r11,%rcx
    60e1:	49 31 cc             	xor    %rcx,%r12
    60e4:	48 89 c1             	mov    %rax,%rcx
    60e7:	4c 89 64 24 58       	mov    %r12,0x58(%rsp)
    60ec:	4d 89 d4             	mov    %r10,%r12
    60ef:	48 f7 d1             	not    %rcx
    60f2:	49 f7 d4             	not    %r12
    60f5:	4d 21 cc             	and    %r9,%r12
    60f8:	49 31 ec             	xor    %rbp,%r12
    60fb:	4c 89 64 24 90       	mov    %r12,-0x70(%rsp)
    6100:	4d 89 cc             	mov    %r9,%r12
    6103:	49 f7 d4             	not    %r12
    6106:	49 21 c4             	and    %rax,%r12
    6109:	4d 31 d4             	xor    %r10,%r12
    610c:	49 89 ca             	mov    %rcx,%r10
    610f:	4d 21 da             	and    %r11,%r10
    6112:	49 f7 d3             	not    %r11
    6115:	4c 89 64 24 98       	mov    %r12,-0x68(%rsp)
    611a:	4c 89 d1             	mov    %r10,%rcx
    611d:	49 21 eb             	and    %rbp,%r11
    6120:	4c 8b 54 24 d8       	mov    -0x28(%rsp),%r10
    6125:	4c 31 c9             	xor    %r9,%rcx
    6128:	49 31 c3             	xor    %rax,%r11
    612b:	4c 8b 4c 24 c0       	mov    -0x40(%rsp),%r9
    6130:	4c 89 5c 24 a8       	mov    %r11,-0x58(%rsp)
    6135:	4c 8b 5c 24 30       	mov    0x30(%rsp),%r11
    613a:	4d 31 f2             	xor    %r14,%r10
    613d:	49 31 d1             	xor    %rdx,%r9
    6140:	49 c1 c2 03          	rol    $0x3,%r10
    6144:	48 89 4c 24 a0       	mov    %rcx,-0x60(%rsp)
    6149:	48 8b 4c 24 e0       	mov    -0x20(%rsp),%rcx
    614e:	49 c1 c1 14          	rol    $0x14,%r9
    6152:	49 31 f3             	xor    %rsi,%r11
    6155:	4d 89 d7             	mov    %r10,%r15
    6158:	4c 89 d8             	mov    %r11,%rax
    615b:	4d 89 cb             	mov    %r9,%r11
    615e:	49 f7 d7             	not    %r15
    6161:	49 f7 d3             	not    %r11
    6164:	48 c1 c0 1c          	rol    $0x1c,%rax
    6168:	4d 21 d3             	and    %r10,%r11
    616b:	49 31 c3             	xor    %rax,%r11
    616e:	4d 21 c7             	and    %r8,%r15
    6171:	4c 31 f1             	xor    %r14,%rcx
    6174:	4c 89 5c 24 b0       	mov    %r11,-0x50(%rsp)
    6179:	4d 89 c3             	mov    %r8,%r11
    617c:	4d 31 cf             	xor    %r9,%r15
    617f:	48 c1 c1 12          	rol    $0x12,%rcx
    6183:	49 f7 d3             	not    %r11
    6186:	49 21 fb             	and    %rdi,%r11
    6189:	4d 31 d3             	xor    %r10,%r11
    618c:	4c 89 5c 24 10       	mov    %r11,0x10(%rsp)
    6191:	49 89 fb             	mov    %rdi,%r11
    6194:	49 f7 d3             	not    %r11
    6197:	4d 89 da             	mov    %r11,%r10
    619a:	49 21 c2             	and    %rax,%r10
    619d:	48 f7 d0             	not    %rax
    61a0:	4d 89 d3             	mov    %r10,%r11
    61a3:	4c 21 c8             	and    %r9,%rax
    61a6:	4d 31 c3             	xor    %r8,%r11
    61a9:	4c 8b 44 24 18       	mov    0x18(%rsp),%r8
    61ae:	4c 89 5c 24 b8       	mov    %r11,-0x48(%rsp)
    61b3:	49 89 c3             	mov    %rax,%r11
    61b6:	48 8b 44 24 20       	mov    0x20(%rsp),%rax
    61bb:	49 31 fb             	xor    %rdi,%r11
    61be:	48 8b 7c 24 c8       	mov    -0x38(%rsp),%rdi
    61c3:	49 31 f0             	xor    %rsi,%r8
    61c6:	4c 89 5c 24 c0       	mov    %r11,-0x40(%rsp)
    61cb:	4d 89 c1             	mov    %r8,%r9
    61ce:	4c 31 e8             	xor    %r13,%rax
    61d1:	4c 8b 44 24 d0       	mov    -0x30(%rsp),%r8
    61d6:	49 c1 c1 19          	rol    $0x19,%r9
    61da:	48 31 df             	xor    %rbx,%rdi
    61dd:	48 d1 c0             	rol    %rax
    61e0:	48 c1 c7 06          	rol    $0x6,%rdi
    61e4:	49 31 d0             	xor    %rdx,%r8
    61e7:	49 89 fb             	mov    %rdi,%r11
    61ea:	49 c1 c0 08          	rol    $0x8,%r8
    61ee:	49 f7 d3             	not    %r11
    61f1:	4d 89 c4             	mov    %r8,%r12
    61f4:	4d 89 da             	mov    %r11,%r10
    61f7:	49 f7 d4             	not    %r12
    61fa:	4d 21 ca             	and    %r9,%r10
    61fd:	49 21 cc             	and    %rcx,%r12
    6200:	4d 89 d3             	mov    %r10,%r11
    6203:	4d 31 cc             	xor    %r9,%r12
    6206:	49 31 c3             	xor    %rax,%r11
    6209:	4c 89 5c 24 c8       	mov    %r11,-0x38(%rsp)
    620e:	4d 89 cb             	mov    %r9,%r11
    6211:	49 f7 d3             	not    %r11
    6214:	4d 89 da             	mov    %r11,%r10
    6217:	4d 21 c2             	and    %r8,%r10
    621a:	4d 89 d3             	mov    %r10,%r11
    621d:	49 31 fb             	xor    %rdi,%r11
    6220:	4c 89 5c 24 d0       	mov    %r11,-0x30(%rsp)
    6225:	49 89 cb             	mov    %rcx,%r11
    6228:	49 f7 d3             	not    %r11
    622b:	4d 89 d9             	mov    %r11,%r9
    622e:	49 21 c1             	and    %rax,%r9
    6231:	48 f7 d0             	not    %rax
    6234:	4d 89 cb             	mov    %r9,%r11
    6237:	4c 8b 4c 24 38       	mov    0x38(%rsp),%r9
    623c:	48 21 f8             	and    %rdi,%rax
    623f:	4d 31 c3             	xor    %r8,%r11
    6242:	48 31 c8             	xor    %rcx,%rax
    6245:	49 31 d1             	xor    %rdx,%r9
    6248:	4c 89 5c 24 d8       	mov    %r11,-0x28(%rsp)
    624d:	48 89 44 24 e0       	mov    %rax,-0x20(%rsp)
    6252:	4c 89 c8             	mov    %r9,%rax
    6255:	4c 8b 4c 24 40       	mov    0x40(%rsp),%r9
    625a:	48 8b 4c 24 f8       	mov    -0x8(%rsp),%rcx
    625f:	4c 8b 54 24 e8       	mov    -0x18(%rsp),%r10
    6264:	48 c1 c0 1b          	rol    $0x1b,%rax
    6268:	4d 31 f1             	xor    %r14,%r9
    626b:	48 8b 7c 24 f0       	mov    -0x10(%rsp),%rdi
    6270:	49 c1 c9 1c          	ror    $0x1c,%r9
    6274:	4c 31 e9             	xor    %r13,%rcx
    6277:	49 31 da             	xor    %rbx,%r10
    627a:	49 c1 c2 0f          	rol    $0xf,%r10
    627e:	4d 89 c8             	mov    %r9,%r8
    6281:	48 c1 c1 0a          	rol    $0xa,%rcx
    6285:	48 31 f7             	xor    %rsi,%rdi
    6288:	49 f7 d0             	not    %r8
    628b:	4d 89 d3             	mov    %r10,%r11
    628e:	48 c1 cf 08          	ror    $0x8,%rdi
    6292:	48 33 74 24 48       	xor    0x48(%rsp),%rsi
    6297:	49 21 c8             	and    %rcx,%r8
    629a:	49 f7 d3             	not    %r11
    629d:	48 c1 ce 09          	ror    $0x9,%rsi
    62a1:	49 31 c0             	xor    %rax,%r8
    62a4:	49 21 fb             	and    %rdi,%r11
    62a7:	49 31 cb             	xor    %rcx,%r11
    62aa:	4c 89 44 24 e8       	mov    %r8,-0x18(%rsp)
    62af:	49 89 c8             	mov    %rcx,%r8
    62b2:	48 89 f9             	mov    %rdi,%rcx
    62b5:	49 f7 d0             	not    %r8
    62b8:	48 f7 d1             	not    %rcx
    62bb:	4c 89 5c 24 f0       	mov    %r11,-0x10(%rsp)
    62c0:	48 21 c1             	and    %rax,%rcx
    62c3:	4d 21 d0             	and    %r10,%r8
    62c6:	48 f7 d0             	not    %rax
    62c9:	4c 21 c8             	and    %r9,%rax
    62cc:	4d 31 c8             	xor    %r9,%r8
    62cf:	4c 8b 0c 24          	mov    (%rsp),%r9
    62d3:	4c 31 d1             	xor    %r10,%rcx
    62d6:	48 31 f8             	xor    %rdi,%rax
    62d9:	48 8b 7c 24 08       	mov    0x8(%rsp),%rdi
    62de:	49 31 d1             	xor    %rdx,%r9
    62e1:	48 89 44 24 f8       	mov    %rax,-0x8(%rsp)
    62e6:	48 8b 44 24 28       	mov    0x28(%rsp),%rax
    62eb:	49 c1 c9 19          	ror    $0x19,%r9
    62ef:	4c 31 f7             	xor    %r14,%rdi
    62f2:	49 89 f6             	mov    %rsi,%r14
    62f5:	4c 89 ca             	mov    %r9,%rdx
    62f8:	48 c1 cf 17          	ror    $0x17,%rdi
    62fc:	48 31 d8             	xor    %rbx,%rax
    62ff:	48 8b 5c 24 50       	mov    0x50(%rsp),%rbx
    6304:	48 f7 d2             	not    %rdx
    6307:	49 f7 d6             	not    %r14
    630a:	48 c1 c8 02          	ror    $0x2,%rax
    630e:	48 21 fa             	and    %rdi,%rdx
    6311:	4c 31 eb             	xor    %r13,%rbx
    6314:	4d 21 ce             	and    %r9,%r14
    6317:	48 31 f2             	xor    %rsi,%rdx
    631a:	48 c1 c3 02          	rol    $0x2,%rbx
    631e:	49 31 c6             	xor    %rax,%r14
    6321:	48 89 14 24          	mov    %rdx,(%rsp)
    6325:	48 89 fa             	mov    %rdi,%rdx
    6328:	48 f7 d2             	not    %rdx
    632b:	4c 89 74 24 18       	mov    %r14,0x18(%rsp)
    6330:	48 21 da             	and    %rbx,%rdx
    6333:	4c 31 ca             	xor    %r9,%rdx
    6336:	49 89 d9             	mov    %rbx,%r9
    6339:	49 f7 d1             	not    %r9
    633c:	49 21 c1             	and    %rax,%r9
    633f:	48 f7 d0             	not    %rax
    6342:	48 83 44 24 88 10    	addq   $0x10,-0x78(%rsp)
    6348:	4c 8b 6c 24 88       	mov    -0x78(%rsp),%r13
    634d:	48 21 f0             	and    %rsi,%rax
    6350:	49 31 f9             	xor    %rdi,%r9
    6353:	48 31 c3             	xor    %rax,%rbx
    6356:	48 8d 05 a3 4f 00 00 	lea    0x4fa3(%rip),%rax        # b300 <KeccakF_RoundConstants+0xc0>
    635d:	4c 89 4c 24 08       	mov    %r9,0x8(%rsp)
    6362:	4c 39 e8             	cmp    %r13,%rax
    6365:	0f 85 35 f9 ff ff    	jne    5ca0 <KeccakF1600_StatePermute+0x100>
    636b:	48 8b 44 24 60       	mov    0x60(%rsp),%rax
    6370:	48 8b 74 24 58       	mov    0x58(%rsp),%rsi
    6375:	4c 8b 6c 24 10       	mov    0x10(%rsp),%r13
    637a:	48 89 30             	mov    %rsi,(%rax)
    637d:	48 8b 74 24 90       	mov    -0x70(%rsp),%rsi
    6382:	4c 89 78 30          	mov    %r15,0x30(%rax)
    6386:	48 89 70 08          	mov    %rsi,0x8(%rax)
    638a:	48 8b 74 24 98       	mov    -0x68(%rsp),%rsi
    638f:	4c 89 68 38          	mov    %r13,0x38(%rax)
    6393:	48 89 70 10          	mov    %rsi,0x10(%rax)
    6397:	48 8b 74 24 a0       	mov    -0x60(%rsp),%rsi
    639c:	4c 89 60 60          	mov    %r12,0x60(%rax)
    63a0:	48 89 70 18          	mov    %rsi,0x18(%rax)
    63a4:	48 8b 74 24 a8       	mov    -0x58(%rsp),%rsi
    63a9:	4c 89 80 80 00 00 00 	mov    %r8,0x80(%rax)
    63b0:	48 89 70 20          	mov    %rsi,0x20(%rax)
    63b4:	48 8b 74 24 b0       	mov    -0x50(%rsp),%rsi
    63b9:	48 89 70 28          	mov    %rsi,0x28(%rax)
    63bd:	48 8b 74 24 b8       	mov    -0x48(%rsp),%rsi
    63c2:	48 89 70 40          	mov    %rsi,0x40(%rax)
    63c6:	48 8b 74 24 c0       	mov    -0x40(%rsp),%rsi
    63cb:	48 89 70 48          	mov    %rsi,0x48(%rax)
    63cf:	48 8b 74 24 c8       	mov    -0x38(%rsp),%rsi
    63d4:	48 89 70 50          	mov    %rsi,0x50(%rax)
    63d8:	48 8b 74 24 d0       	mov    -0x30(%rsp),%rsi
    63dd:	48 89 70 58          	mov    %rsi,0x58(%rax)
    63e1:	48 8b 74 24 d8       	mov    -0x28(%rsp),%rsi
    63e6:	48 89 70 68          	mov    %rsi,0x68(%rax)
    63ea:	48 8b 74 24 e0       	mov    -0x20(%rsp),%rsi
    63ef:	48 89 70 70          	mov    %rsi,0x70(%rax)
    63f3:	48 8b 74 24 e8       	mov    -0x18(%rsp),%rsi
    63f8:	48 89 70 78          	mov    %rsi,0x78(%rax)
    63fc:	4c 89 98 88 00 00 00 	mov    %r11,0x88(%rax)
    6403:	48 8b 74 24 f8       	mov    -0x8(%rsp),%rsi
    6408:	48 89 88 90 00 00 00 	mov    %rcx,0x90(%rax)
    640f:	48 89 b0 98 00 00 00 	mov    %rsi,0x98(%rax)
    6416:	48 8b 34 24          	mov    (%rsp),%rsi
    641a:	4c 89 b0 a0 00 00 00 	mov    %r14,0xa0(%rax)
    6421:	48 89 b0 a8 00 00 00 	mov    %rsi,0xa8(%rax)
    6428:	48 89 90 b0 00 00 00 	mov    %rdx,0xb0(%rax)
    642f:	4c 89 88 b8 00 00 00 	mov    %r9,0xb8(%rax)
    6436:	48 89 98 c0 00 00 00 	mov    %rbx,0xc0(%rax)
    643d:	48 83 c4 68          	add    $0x68,%rsp
    6441:	5b                   	pop    %rbx
    6442:	5d                   	pop    %rbp
    6443:	41 5c                	pop    %r12
    6445:	41 5d                	pop    %r13
    6447:	41 5e                	pop    %r14
    6449:	41 5f                	pop    %r15
    644b:	c3                   	ret    
    644c:	0f 1f 40 00          	nopl   0x0(%rax)

0000000000006450 <keccak_absorb_once.constprop.1>:
    6450:	41 55                	push   %r13
    6452:	49 89 cd             	mov    %rcx,%r13
    6455:	31 c0                	xor    %eax,%eax
    6457:	41 54                	push   %r12
    6459:	45 89 c4             	mov    %r8d,%r12d
    645c:	55                   	push   %rbp
    645d:	48 89 fd             	mov    %rdi,%rbp
    6460:	48 83 c7 08          	add    $0x8,%rdi
    6464:	53                   	push   %rbx
    6465:	48 89 e9             	mov    %rbp,%rcx
    6468:	48 89 d3             	mov    %rdx,%rbx
    646b:	48 81 ec a8 00 00 00 	sub    $0xa8,%rsp
    6472:	48 c7 47 f8 00 00 00 	movq   $0x0,-0x8(%rdi)
    6479:	00 
    647a:	48 c7 87 b8 00 00 00 	movq   $0x0,0xb8(%rdi)
    6481:	00 00 00 00 
    6485:	48 83 e7 f8          	and    $0xfffffffffffffff8,%rdi
    6489:	48 29 f9             	sub    %rdi,%rcx
    648c:	81 c1 c8 00 00 00    	add    $0xc8,%ecx
    6492:	c1 e9 03             	shr    $0x3,%ecx
    6495:	f3 48 ab             	rep stos %rax,%es:(%rdi)
    6498:	49 81 fd 87 00 00 00 	cmp    $0x87,%r13
    649f:	0f 86 81 08 00 00    	jbe    6d26 <keccak_absorb_once.constprop.1+0x8d6>
    64a5:	66 44 0f 6f 35 f2 4b 	movdqa 0x4bf2(%rip),%xmm14        # b0a0 <_IO_stdin_used+0xa0>
    64ac:	00 00 
    64ae:	e9 e5 07 00 00       	jmp    6c98 <keccak_absorb_once.constprop.1+0x848>
    64b3:	0f 1f 44 00 00       	nopl   0x0(%rax,%rax,1)
    64b8:	f3 44 0f 6f 03       	movdqu (%rbx),%xmm8
    64bd:	f3 0f 6f 43 10       	movdqu 0x10(%rbx),%xmm0
    64c2:	66 45 0f 6f ce       	movdqa %xmm14,%xmm9
    64c7:	48 81 c3 88 00 00 00 	add    $0x88,%rbx
    64ce:	f3 0f 6f ab 78 ff ff 	movdqu -0x88(%rbx),%xmm5
    64d5:	ff 
    64d6:	f3 0f 6f 7b 98       	movdqu -0x68(%rbx),%xmm7
    64db:	66 41 0f db c6       	pand   %xmm14,%xmm0
    64e0:	66 45 0f db c6       	pand   %xmm14,%xmm8
    64e5:	f3 0f 6f 63 98       	movdqu -0x68(%rbx),%xmm4
    64ea:	f3 0f 6f 73 b8       	movdqu -0x48(%rbx),%xmm6
    64ef:	66 44 0f 67 c0       	packuswb %xmm0,%xmm8
    64f4:	f3 0f 6f 43 88       	movdqu -0x78(%rbx),%xmm0
    64f9:	66 0f 71 d5 08       	psrlw  $0x8,%xmm5
    64fe:	66 41 0f db fe       	pand   %xmm14,%xmm7
    6503:	66 0f 71 d4 08       	psrlw  $0x8,%xmm4
    6508:	66 41 0f db f6       	pand   %xmm14,%xmm6
    650d:	f3 0f 6f 4b c8       	movdqu -0x38(%rbx),%xmm1
    6512:	f3 0f 6f 53 e8       	movdqu -0x18(%rbx),%xmm2
    6517:	66 0f 71 d0 08       	psrlw  $0x8,%xmm0
    651c:	f3 0f 6f 5b d8       	movdqu -0x28(%rbx),%xmm3
    6521:	66 0f 67 e8          	packuswb %xmm0,%xmm5
    6525:	f3 0f 6f 43 a8       	movdqu -0x58(%rbx),%xmm0
    652a:	66 0f 71 d1 08       	psrlw  $0x8,%xmm1
    652f:	66 41 0f db d6       	pand   %xmm14,%xmm2
    6534:	66 0f 71 d3 08       	psrlw  $0x8,%xmm3
    6539:	66 41 0f db c6       	pand   %xmm14,%xmm0
    653e:	66 0f 67 f8          	packuswb %xmm0,%xmm7
    6542:	f3 0f 6f 43 a8       	movdqu -0x58(%rbx),%xmm0
    6547:	66 44 0f db cf       	pand   %xmm7,%xmm9
    654c:	66 0f 71 d7 08       	psrlw  $0x8,%xmm7
    6551:	66 0f 71 d0 08       	psrlw  $0x8,%xmm0
    6556:	66 0f 67 e0          	packuswb %xmm0,%xmm4
    655a:	f3 0f 6f 43 c8       	movdqu -0x38(%rbx),%xmm0
    655f:	66 41 0f db c6       	pand   %xmm14,%xmm0
    6564:	66 0f 67 f0          	packuswb %xmm0,%xmm6
    6568:	f3 0f 6f 43 b8       	movdqu -0x48(%rbx),%xmm0
    656d:	66 0f 71 d0 08       	psrlw  $0x8,%xmm0
    6572:	66 0f 67 c1          	packuswb %xmm1,%xmm0
    6576:	f3 0f 6f 4b d8       	movdqu -0x28(%rbx),%xmm1
    657b:	66 41 0f db ce       	pand   %xmm14,%xmm1
    6580:	66 0f 67 ca          	packuswb %xmm2,%xmm1
    6584:	f3 0f 6f 53 e8       	movdqu -0x18(%rbx),%xmm2
    6589:	66 0f 71 d2 08       	psrlw  $0x8,%xmm2
    658e:	66 0f 67 da          	packuswb %xmm2,%xmm3
    6592:	66 41 0f 6f d6       	movdqa %xmm14,%xmm2
    6597:	66 41 0f db d0       	pand   %xmm8,%xmm2
    659c:	66 41 0f 71 d0 08    	psrlw  $0x8,%xmm8
    65a2:	66 45 0f 6f d0       	movdqa %xmm8,%xmm10
    65a7:	66 45 0f 6f c6       	movdqa %xmm14,%xmm8
    65ac:	66 41 0f 67 d1       	packuswb %xmm9,%xmm2
    65b1:	66 44 0f 67 d7       	packuswb %xmm7,%xmm10
    65b6:	66 41 0f 6f fe       	movdqa %xmm14,%xmm7
    65bb:	66 44 0f db c1       	pand   %xmm1,%xmm8
    65c0:	66 0f db fe          	pand   %xmm6,%xmm7
    65c4:	66 0f 71 d6 08       	psrlw  $0x8,%xmm6
    65c9:	66 0f 71 d1 08       	psrlw  $0x8,%xmm1
    65ce:	66 44 0f 6f de       	movdqa %xmm6,%xmm11
    65d3:	66 41 0f 6f f6       	movdqa %xmm14,%xmm6
    65d8:	66 44 0f 67 d9       	packuswb %xmm1,%xmm11
    65dd:	66 41 0f 6f ce       	movdqa %xmm14,%xmm1
    65e2:	66 0f db f4          	pand   %xmm4,%xmm6
    65e6:	66 0f db cd          	pand   %xmm5,%xmm1
    65ea:	66 0f 71 d5 08       	psrlw  $0x8,%xmm5
    65ef:	66 41 0f 67 f8       	packuswb %xmm8,%xmm7
    65f4:	66 0f 71 d4 08       	psrlw  $0x8,%xmm4
    65f9:	66 44 0f 6f cd       	movdqa %xmm5,%xmm9
    65fe:	66 41 0f 6f ee       	movdqa %xmm14,%xmm5
    6603:	66 44 0f 67 cc       	packuswb %xmm4,%xmm9
    6608:	66 41 0f 6f e6       	movdqa %xmm14,%xmm4
    660d:	66 0f db eb          	pand   %xmm3,%xmm5
    6611:	66 0f db e0          	pand   %xmm0,%xmm4
    6615:	66 0f 71 d3 08       	psrlw  $0x8,%xmm3
    661a:	66 45 0f 6f c6       	movdqa %xmm14,%xmm8
    661f:	66 0f 71 d0 08       	psrlw  $0x8,%xmm0
    6624:	66 44 0f db c2       	pand   %xmm2,%xmm8
    6629:	66 0f 67 ce          	packuswb %xmm6,%xmm1
    662d:	66 0f 67 c3          	packuswb %xmm3,%xmm0
    6631:	66 41 0f 6f de       	movdqa %xmm14,%xmm3
    6636:	66 0f 67 e5          	packuswb %xmm5,%xmm4
    663a:	66 0f db df          	pand   %xmm7,%xmm3
    663e:	66 0f 71 d2 08       	psrlw  $0x8,%xmm2
    6643:	66 41 0f 6f f6       	movdqa %xmm14,%xmm6
    6648:	66 0f 71 d7 08       	psrlw  $0x8,%xmm7
    664d:	66 44 0f 67 c3       	packuswb %xmm3,%xmm8
    6652:	66 41 0f 6f de       	movdqa %xmm14,%xmm3
    6657:	66 0f 67 d7          	packuswb %xmm7,%xmm2
    665b:	66 41 0f 6f fe       	movdqa %xmm14,%xmm7
    6660:	66 0f db dc          	pand   %xmm4,%xmm3
    6664:	66 0f db f9          	pand   %xmm1,%xmm7
    6668:	66 41 0f db f2       	pand   %xmm10,%xmm6
    666d:	66 41 0f 6f ee       	movdqa %xmm14,%xmm5
    6672:	66 0f 67 fb          	packuswb %xmm3,%xmm7
    6676:	66 41 0f 6f de       	movdqa %xmm14,%xmm3
    667b:	66 41 0f db e9       	pand   %xmm9,%xmm5
    6680:	66 41 0f db db       	pand   %xmm11,%xmm3
    6685:	66 0f 71 d4 08       	psrlw  $0x8,%xmm4
    668a:	66 45 0f 6f e8       	movdqa %xmm8,%xmm13
    668f:	66 0f 71 d1 08       	psrlw  $0x8,%xmm1
    6694:	66 41 0f 71 d2 08    	psrlw  $0x8,%xmm10
    669a:	66 0f 67 f3          	packuswb %xmm3,%xmm6
    669e:	66 41 0f 6f de       	movdqa %xmm14,%xmm3
    66a3:	66 0f 67 cc          	packuswb %xmm4,%xmm1
    66a7:	66 0f 6f e6          	movdqa %xmm6,%xmm4
    66ab:	66 0f db d8          	pand   %xmm0,%xmm3
    66af:	66 41 0f 71 d1 08    	psrlw  $0x8,%xmm9
    66b5:	66 45 0f 6f e2       	movdqa %xmm10,%xmm12
    66ba:	66 0f 67 eb          	packuswb %xmm3,%xmm5
    66be:	66 0f ef db          	pxor   %xmm3,%xmm3
    66c2:	66 45 0f 6f f9       	movdqa %xmm9,%xmm15
    66c7:	66 0f 60 e3          	punpcklbw %xmm3,%xmm4
    66cb:	66 41 0f 71 d3 08    	psrlw  $0x8,%xmm11
    66d1:	66 44 0f 6f d7       	movdqa %xmm7,%xmm10
    66d6:	66 0f 71 d0 08       	psrlw  $0x8,%xmm0
    66db:	66 45 0f 67 e3       	packuswb %xmm11,%xmm12
    66e0:	66 44 0f 60 d3       	punpcklbw %xmm3,%xmm10
    66e5:	66 44 0f 67 f8       	packuswb %xmm0,%xmm15
    66ea:	66 44 0f 6f dc       	movdqa %xmm4,%xmm11
    66ef:	66 0f ef c0          	pxor   %xmm0,%xmm0
    66f3:	44 0f 29 64 24 30    	movaps %xmm12,0x30(%rsp)
    66f9:	66 44 0f 61 d8       	punpcklwd %xmm0,%xmm11
    66fe:	66 41 0f 71 f2 08    	psllw  $0x8,%xmm10
    6704:	66 44 0f 6f cd       	movdqa %xmm5,%xmm9
    6709:	66 45 0f 6f e3       	movdqa %xmm11,%xmm12
    670e:	66 45 0f 6f da       	movdqa %xmm10,%xmm11
    6713:	66 44 0f 60 cb       	punpcklbw %xmm3,%xmm9
    6718:	66 44 0f 61 d8       	punpcklwd %xmm0,%xmm11
    671d:	66 41 0f 72 f4 10    	pslld  $0x10,%xmm12
    6723:	66 44 0f 60 eb       	punpcklbw %xmm3,%xmm13
    6728:	66 45 0f eb e3       	por    %xmm11,%xmm12
    672d:	66 45 0f 6f d9       	movdqa %xmm9,%xmm11
    6732:	66 44 0f 69 c8       	punpckhwd %xmm0,%xmm9
    6737:	66 44 0f 61 d8       	punpcklwd %xmm0,%xmm11
    673c:	66 0f 68 f3          	punpckhbw %xmm3,%xmm6
    6740:	66 0f 68 fb          	punpckhbw %xmm3,%xmm7
    6744:	66 41 0f 72 f3 18    	pslld  $0x18,%xmm11
    674a:	66 0f 69 e0          	punpckhwd %xmm0,%xmm4
    674e:	66 44 0f 69 d0       	punpckhwd %xmm0,%xmm10
    6753:	44 0f 29 1c 24       	movaps %xmm11,(%rsp)
    6758:	66 41 0f 72 f1 18    	pslld  $0x18,%xmm9
    675e:	66 45 0f 6f dd       	movdqa %xmm13,%xmm11
    6763:	66 44 0f 69 e8       	punpckhwd %xmm0,%xmm13
    6768:	66 45 0f eb e9       	por    %xmm9,%xmm13
    676d:	66 0f 71 f7 08       	psllw  $0x8,%xmm7
    6772:	66 44 0f 6f ce       	movdqa %xmm6,%xmm9
    6777:	66 0f 72 f4 10       	pslld  $0x10,%xmm4
    677c:	66 44 0f 61 c8       	punpcklwd %xmm0,%xmm9
    6781:	66 0f 68 eb          	punpckhbw %xmm3,%xmm5
    6785:	66 41 0f eb e2       	por    %xmm10,%xmm4
    678a:	66 44 0f 6f d7       	movdqa %xmm7,%xmm10
    678f:	66 44 0f 61 d8       	punpcklwd %xmm0,%xmm11
    6794:	66 44 0f 61 d0       	punpcklwd %xmm0,%xmm10
    6799:	66 44 0f eb 1c 24    	por    (%rsp),%xmm11
    679f:	66 44 0f 68 c3       	punpckhbw %xmm3,%xmm8
    67a4:	66 41 0f 72 f1 10    	pslld  $0x10,%xmm9
    67aa:	66 0f 69 f0          	punpckhwd %xmm0,%xmm6
    67ae:	66 0f 69 f8          	punpckhwd %xmm0,%xmm7
    67b2:	66 45 0f eb ca       	por    %xmm10,%xmm9
    67b7:	66 44 0f 6f d5       	movdqa %xmm5,%xmm10
    67bc:	66 0f 69 e8          	punpckhwd %xmm0,%xmm5
    67c0:	66 45 0f eb e3       	por    %xmm11,%xmm12
    67c5:	66 0f 72 f5 18       	pslld  $0x18,%xmm5
    67ca:	66 45 0f 6f d8       	movdqa %xmm8,%xmm11
    67cf:	66 0f 72 f6 10       	pslld  $0x10,%xmm6
    67d4:	66 44 0f 69 c0       	punpckhwd %xmm0,%xmm8
    67d9:	44 0f 29 24 24       	movaps %xmm12,(%rsp)
    67de:	66 44 0f 6f 64 24 30 	movdqa 0x30(%rsp),%xmm12
    67e5:	66 44 0f eb c5       	por    %xmm5,%xmm8
    67ea:	66 0f eb f7          	por    %xmm7,%xmm6
    67ee:	66 44 0f 61 d0       	punpcklwd %xmm0,%xmm10
    67f3:	66 41 0f eb f0       	por    %xmm8,%xmm6
    67f8:	66 44 0f 6f c2       	movdqa %xmm2,%xmm8
    67fd:	66 44 0f 61 d8       	punpcklwd %xmm0,%xmm11
    6802:	66 44 0f 60 c3       	punpcklbw %xmm3,%xmm8
    6807:	66 41 0f 72 f2 18    	pslld  $0x18,%xmm10
    680d:	66 41 0f eb e5       	por    %xmm13,%xmm4
    6812:	0f 29 74 24 40       	movaps %xmm6,0x40(%rsp)
    6817:	66 41 0f 6f e8       	movdqa %xmm8,%xmm5
    681c:	66 45 0f eb d3       	por    %xmm11,%xmm10
    6821:	66 0f 6f f9          	movdqa %xmm1,%xmm7
    6825:	66 0f 61 e8          	punpcklwd %xmm0,%xmm5
    6829:	66 0f 68 d3          	punpckhbw %xmm3,%xmm2
    682d:	66 0f 60 fb          	punpcklbw %xmm3,%xmm7
    6831:	0f 29 6c 24 10       	movaps %xmm5,0x10(%rsp)
    6836:	66 41 0f 6f ec       	movdqa %xmm12,%xmm5
    683b:	66 0f 68 cb          	punpckhbw %xmm3,%xmm1
    683f:	66 0f 6f f2          	movdqa %xmm2,%xmm6
    6843:	66 44 0f 68 e3       	punpckhbw %xmm3,%xmm12
    6848:	66 0f 60 eb          	punpcklbw %xmm3,%xmm5
    684c:	66 45 0f eb ca       	por    %xmm10,%xmm9
    6851:	66 45 0f 6f dc       	movdqa %xmm12,%xmm11
    6856:	66 44 0f 6f ed       	movdqa %xmm5,%xmm13
    685b:	66 44 0f 61 e0       	punpcklwd %xmm0,%xmm12
    6860:	66 44 0f 69 d8       	punpckhwd %xmm0,%xmm11
    6865:	66 44 0f 61 e8       	punpcklwd %xmm0,%xmm13
    686a:	66 44 0f 6f d7       	movdqa %xmm7,%xmm10
    686f:	44 0f 29 64 24 60    	movaps %xmm12,0x60(%rsp)
    6875:	44 0f 29 5c 24 70    	movaps %xmm11,0x70(%rsp)
    687b:	66 45 0f 6f df       	movdqa %xmm15,%xmm11
    6880:	66 44 0f 68 fb       	punpckhbw %xmm3,%xmm15
    6885:	66 44 0f 61 d0       	punpcklwd %xmm0,%xmm10
    688a:	66 44 0f 60 db       	punpcklbw %xmm3,%xmm11
    688f:	44 0f 29 6c 24 30    	movaps %xmm13,0x30(%rsp)
    6895:	66 45 0f 6f ef       	movdqa %xmm15,%xmm13
    689a:	66 44 0f 69 c0       	punpckhwd %xmm0,%xmm8
    689f:	66 41 0f 6f db       	movdqa %xmm11,%xmm3
    68a4:	44 0f 29 54 24 20    	movaps %xmm10,0x20(%rsp)
    68aa:	66 0f 61 f0          	punpcklwd %xmm0,%xmm6
    68ae:	66 0f 69 d0          	punpckhwd %xmm0,%xmm2
    68b2:	66 0f 61 d8          	punpcklwd %xmm0,%xmm3
    68b6:	66 44 0f 6f d1       	movdqa %xmm1,%xmm10
    68bb:	66 0f 69 f8          	punpckhwd %xmm0,%xmm7
    68bf:	66 44 0f 6f fb       	movdqa %xmm3,%xmm15
    68c4:	66 41 0f 6f dd       	movdqa %xmm13,%xmm3
    68c9:	66 44 0f 61 d0       	punpcklwd %xmm0,%xmm10
    68ce:	66 0f 61 d8          	punpcklwd %xmm0,%xmm3
    68d2:	66 0f 69 c8          	punpckhwd %xmm0,%xmm1
    68d6:	66 0f 69 e8          	punpckhwd %xmm0,%xmm5
    68da:	44 0f 29 bc 24 80 00 	movaps %xmm15,0x80(%rsp)
    68e1:	00 00 
    68e3:	66 44 0f 6f e3       	movdqa %xmm3,%xmm12
    68e8:	66 41 0f 6f dd       	movdqa %xmm13,%xmm3
    68ed:	66 44 0f 69 d8       	punpckhwd %xmm0,%xmm11
    68f2:	66 44 0f 6f 6c 24 10 	movdqa 0x10(%rsp),%xmm13
    68f9:	66 0f 69 d8          	punpckhwd %xmm0,%xmm3
    68fd:	66 0f ef c0          	pxor   %xmm0,%xmm0
    6901:	0f 29 9c 24 90 00 00 	movaps %xmm3,0x90(%rsp)
    6908:	00 
    6909:	66 0f 6f 5c 24 20    	movdqa 0x20(%rsp),%xmm3
    690f:	66 44 0f 6a e8       	punpckhdq %xmm0,%xmm13
    6914:	66 44 0f 6a f8       	punpckhdq %xmm0,%xmm15
    6919:	66 41 0f 73 f5 20    	psllq  $0x20,%xmm13
    691f:	66 41 0f 73 f7 38    	psllq  $0x38,%xmm15
    6925:	66 0f 6a d8          	punpckhdq %xmm0,%xmm3
    6929:	66 0f 73 f3 28       	psllq  $0x28,%xmm3
    692e:	66 44 0f eb eb       	por    %xmm3,%xmm13
    6933:	66 0f 6f 5c 24 30    	movdqa 0x30(%rsp),%xmm3
    6939:	66 0f 6a d8          	punpckhdq %xmm0,%xmm3
    693d:	66 0f 73 f3 30       	psllq  $0x30,%xmm3
    6942:	66 41 0f eb df       	por    %xmm15,%xmm3
    6947:	66 45 0f 6f fb       	movdqa %xmm11,%xmm15
    694c:	66 44 0f 6a d8       	punpckhdq %xmm0,%xmm11
    6951:	66 41 0f eb dd       	por    %xmm13,%xmm3
    6956:	66 44 0f 6f 2c 24    	movdqa (%rsp),%xmm13
    695c:	66 44 0f 62 f8       	punpckldq %xmm0,%xmm15
    6961:	66 41 0f 73 f7 38    	psllq  $0x38,%xmm15
    6967:	66 41 0f 73 f3 38    	psllq  $0x38,%xmm11
    696d:	66 44 0f 6a e8       	punpckhdq %xmm0,%xmm13
    6972:	66 41 0f eb dd       	por    %xmm13,%xmm3
    6977:	f3 44 0f 6f 6d 10    	movdqu 0x10(%rbp),%xmm13
    697d:	66 41 0f ef dd       	pxor   %xmm13,%xmm3
    6982:	66 45 0f 6f e8       	movdqa %xmm8,%xmm13
    6987:	66 44 0f 6a c0       	punpckhdq %xmm0,%xmm8
    698c:	0f 29 5c 24 50       	movaps %xmm3,0x50(%rsp)
    6991:	66 0f 6f df          	movdqa %xmm7,%xmm3
    6995:	66 44 0f 62 e8       	punpckldq %xmm0,%xmm13
    699a:	66 0f 6a f8          	punpckhdq %xmm0,%xmm7
    699e:	66 41 0f 73 f5 20    	psllq  $0x20,%xmm13
    69a4:	66 41 0f 73 f0 20    	psllq  $0x20,%xmm8
    69aa:	66 0f 62 d8          	punpckldq %xmm0,%xmm3
    69ae:	66 0f 73 f3 28       	psllq  $0x28,%xmm3
    69b3:	66 0f 73 f7 28       	psllq  $0x28,%xmm7
    69b8:	66 44 0f eb eb       	por    %xmm3,%xmm13
    69bd:	66 0f 6f dd          	movdqa %xmm5,%xmm3
    69c1:	66 0f 6a e8          	punpckhdq %xmm0,%xmm5
    69c5:	66 0f 62 d8          	punpckldq %xmm0,%xmm3
    69c9:	66 0f 73 f5 30       	psllq  $0x30,%xmm5
    69ce:	66 41 0f eb f8       	por    %xmm8,%xmm7
    69d3:	66 0f 73 f3 30       	psllq  $0x30,%xmm3
    69d8:	66 41 0f eb eb       	por    %xmm11,%xmm5
    69dd:	66 45 0f 6f c4       	movdqa %xmm12,%xmm8
    69e2:	66 44 0f 6f 5c 24 60 	movdqa 0x60(%rsp),%xmm11
    69e9:	66 41 0f eb df       	por    %xmm15,%xmm3
    69ee:	66 0f eb ef          	por    %xmm7,%xmm5
    69f2:	66 0f 6f fe          	movdqa %xmm6,%xmm7
    69f6:	66 44 0f 6f 7c 24 40 	movdqa 0x40(%rsp),%xmm15
    69fd:	66 41 0f eb dd       	por    %xmm13,%xmm3
    6a02:	66 44 0f 6f ec       	movdqa %xmm4,%xmm13
    6a07:	66 0f 6a e0          	punpckhdq %xmm0,%xmm4
    6a0b:	66 0f eb ec          	por    %xmm4,%xmm5
    6a0f:	f3 0f 6f 65 30       	movdqu 0x30(%rbp),%xmm4
    6a14:	66 0f 62 f8          	punpckldq %xmm0,%xmm7
    6a18:	66 44 0f 62 c0       	punpckldq %xmm0,%xmm8
    6a1d:	66 0f 73 f7 20       	psllq  $0x20,%xmm7
    6a22:	66 41 0f 73 f0 38    	psllq  $0x38,%xmm8
    6a28:	66 44 0f 6a e0       	punpckhdq %xmm0,%xmm12
    6a2d:	66 0f ef e5          	pxor   %xmm5,%xmm4
    6a31:	66 41 0f 6f ea       	movdqa %xmm10,%xmm5
    6a36:	66 0f 6a f0          	punpckhdq %xmm0,%xmm6
    6a3a:	66 0f 62 e8          	punpckldq %xmm0,%xmm5
    6a3e:	66 44 0f 6a d0       	punpckhdq %xmm0,%xmm10
    6a43:	66 44 0f 62 e8       	punpckldq %xmm0,%xmm13
    6a48:	0f 11 65 30          	movups %xmm4,0x30(%rbp)
    6a4c:	66 0f 73 f5 28       	psllq  $0x28,%xmm5
    6a51:	66 0f 73 f6 20       	psllq  $0x20,%xmm6
    6a56:	66 41 0f eb dd       	por    %xmm13,%xmm3
    6a5b:	f3 44 0f 6f 6d 20    	movdqu 0x20(%rbp),%xmm13
    6a61:	66 41 0f 73 f4 38    	psllq  $0x38,%xmm12
    6a67:	66 41 0f 73 f2 28    	psllq  $0x28,%xmm10
    6a6d:	66 0f eb fd          	por    %xmm5,%xmm7
    6a71:	66 41 0f 6f eb       	movdqa %xmm11,%xmm5
    6a76:	66 41 0f eb f2       	por    %xmm10,%xmm6
    6a7b:	66 41 0f ef dd       	pxor   %xmm13,%xmm3
    6a80:	66 0f 62 e8          	punpckldq %xmm0,%xmm5
    6a84:	0f 11 5d 20          	movups %xmm3,0x20(%rbp)
    6a88:	66 0f 73 f5 30       	psllq  $0x30,%xmm5
    6a8d:	66 41 0f eb e8       	por    %xmm8,%xmm5
    6a92:	f3 44 0f 6f 45 40    	movdqu 0x40(%rbp),%xmm8
    6a98:	66 0f eb ef          	por    %xmm7,%xmm5
    6a9c:	66 41 0f 6f f9       	movdqa %xmm9,%xmm7
    6aa1:	66 44 0f 6a c8       	punpckhdq %xmm0,%xmm9
    6aa6:	66 0f 62 f8          	punpckldq %xmm0,%xmm7
    6aaa:	66 0f eb ef          	por    %xmm7,%xmm5
    6aae:	66 41 0f 6f fb       	movdqa %xmm11,%xmm7
    6ab3:	66 44 0f 6f 9c 24 90 	movdqa 0x90(%rsp),%xmm11
    6aba:	00 00 00 
    6abd:	66 0f 6a f8          	punpckhdq %xmm0,%xmm7
    6ac1:	66 41 0f ef e8       	pxor   %xmm8,%xmm5
    6ac6:	66 44 0f 6f c1       	movdqa %xmm1,%xmm8
    6acb:	66 0f 73 f7 30       	psllq  $0x30,%xmm7
    6ad0:	66 44 0f 62 c0       	punpckldq %xmm0,%xmm8
    6ad5:	66 0f 6a c8          	punpckhdq %xmm0,%xmm1
    6ad9:	0f 11 6d 40          	movups %xmm5,0x40(%rbp)
    6add:	66 41 0f 73 f0 28    	psllq  $0x28,%xmm8
    6ae3:	66 0f 73 f1 28       	psllq  $0x28,%xmm1
    6ae8:	66 44 0f eb e7       	por    %xmm7,%xmm12
    6aed:	66 41 0f eb f4       	por    %xmm12,%xmm6
    6af2:	66 44 0f 6f 64 24 70 	movdqa 0x70(%rsp),%xmm12
    6af9:	66 41 0f eb f1       	por    %xmm9,%xmm6
    6afe:	f3 44 0f 6f 4d 50    	movdqu 0x50(%rbp),%xmm9
    6b04:	66 41 0f 6f fc       	movdqa %xmm12,%xmm7
    6b09:	66 44 0f ef ce       	pxor   %xmm6,%xmm9
    6b0e:	66 41 0f 6f f3       	movdqa %xmm11,%xmm6
    6b13:	66 0f 62 f8          	punpckldq %xmm0,%xmm7
    6b17:	66 0f 62 f0          	punpckldq %xmm0,%xmm6
    6b1b:	66 0f 73 f7 30       	psllq  $0x30,%xmm7
    6b20:	44 0f 11 4d 50       	movups %xmm9,0x50(%rbp)
    6b25:	66 0f 73 f6 38       	psllq  $0x38,%xmm6
    6b2a:	66 0f eb fe          	por    %xmm6,%xmm7
    6b2e:	66 0f 6f f2          	movdqa %xmm2,%xmm6
    6b32:	66 0f 6a d0          	punpckhdq %xmm0,%xmm2
    6b36:	66 0f 62 f0          	punpckldq %xmm0,%xmm6
    6b3a:	66 0f 73 f2 20       	psllq  $0x20,%xmm2
    6b3f:	66 0f 73 f6 20       	psllq  $0x20,%xmm6
    6b44:	66 0f eb ca          	por    %xmm2,%xmm1
    6b48:	66 41 0f 6f d4       	movdqa %xmm12,%xmm2
    6b4d:	f3 44 0f 6f 65 70    	movdqu 0x70(%rbp),%xmm12
    6b53:	66 41 0f eb f0       	por    %xmm8,%xmm6
    6b58:	66 0f 6a d0          	punpckhdq %xmm0,%xmm2
    6b5c:	f3 44 0f 6f 45 60    	movdqu 0x60(%rbp),%xmm8
    6b62:	66 0f eb f7          	por    %xmm7,%xmm6
    6b66:	66 0f 73 f2 30       	psllq  $0x30,%xmm2
    6b6b:	66 41 0f 6f ff       	movdqa %xmm15,%xmm7
    6b70:	66 0f 62 f8          	punpckldq %xmm0,%xmm7
    6b74:	66 0f eb f7          	por    %xmm7,%xmm6
    6b78:	66 41 0f 6f fb       	movdqa %xmm11,%xmm7
    6b7d:	66 0f 6a f8          	punpckhdq %xmm0,%xmm7
    6b81:	66 41 0f ef f0       	pxor   %xmm8,%xmm6
    6b86:	66 44 0f 6f 84 24 80 	movdqa 0x80(%rsp),%xmm8
    6b8d:	00 00 00 
    6b90:	66 0f 73 f7 38       	psllq  $0x38,%xmm7
    6b95:	0f 11 75 60          	movups %xmm6,0x60(%rbp)
    6b99:	66 0f eb d7          	por    %xmm7,%xmm2
    6b9d:	66 0f 6f 7c 24 20    	movdqa 0x20(%rsp),%xmm7
    6ba3:	66 44 0f 62 c0       	punpckldq %xmm0,%xmm8
    6ba8:	66 0f eb ca          	por    %xmm2,%xmm1
    6bac:	66 41 0f 73 f0 38    	psllq  $0x38,%xmm8
    6bb2:	66 41 0f 6f d7       	movdqa %xmm15,%xmm2
    6bb7:	66 0f 6a d0          	punpckhdq %xmm0,%xmm2
    6bbb:	66 0f 62 f8          	punpckldq %xmm0,%xmm7
    6bbf:	66 0f eb ca          	por    %xmm2,%xmm1
    6bc3:	66 0f 6f 54 24 10    	movdqa 0x10(%rsp),%xmm2
    6bc9:	66 0f 73 f7 28       	psllq  $0x28,%xmm7
    6bce:	66 41 0f ef cc       	pxor   %xmm12,%xmm1
    6bd3:	66 0f 62 d0          	punpckldq %xmm0,%xmm2
    6bd7:	0f 11 4d 70          	movups %xmm1,0x70(%rbp)
    6bdb:	66 0f 73 f2 20       	psllq  $0x20,%xmm2
    6be0:	66 0f eb d7          	por    %xmm7,%xmm2
    6be4:	66 0f 6f 7c 24 30    	movdqa 0x30(%rsp),%xmm7
    6bea:	66 0f 62 f8          	punpckldq %xmm0,%xmm7
    6bee:	66 0f 73 f7 30       	psllq  $0x30,%xmm7
    6bf3:	66 41 0f eb f8       	por    %xmm8,%xmm7
    6bf8:	66 0f eb d7          	por    %xmm7,%xmm2
    6bfc:	66 0f 6f 3c 24       	movdqa (%rsp),%xmm7
    6c01:	66 0f 62 f8          	punpckldq %xmm0,%xmm7
    6c05:	66 0f 6f c2          	movdqa %xmm2,%xmm0
    6c09:	66 0f 6f 54 24 50    	movdqa 0x50(%rsp),%xmm2
    6c0f:	66 0f eb c7          	por    %xmm7,%xmm0
    6c13:	f3 0f 6f 7d 00       	movdqu 0x0(%rbp),%xmm7
    6c18:	0f 11 55 10          	movups %xmm2,0x10(%rbp)
    6c1c:	66 0f ef c7          	pxor   %xmm7,%xmm0
    6c20:	0f 11 45 00          	movups %xmm0,0x0(%rbp)
    6c24:	0f b6 43 fa          	movzbl -0x6(%rbx),%eax
    6c28:	0f b6 53 f9          	movzbl -0x7(%rbx),%edx
    6c2c:	48 c1 e0 10          	shl    $0x10,%rax
    6c30:	48 c1 e2 08          	shl    $0x8,%rdx
    6c34:	48 09 d0             	or     %rdx,%rax
    6c37:	0f b6 53 f8          	movzbl -0x8(%rbx),%edx
    6c3b:	48 09 d0             	or     %rdx,%rax
    6c3e:	0f b6 53 fb          	movzbl -0x5(%rbx),%edx
    6c42:	48 c1 e2 18          	shl    $0x18,%rdx
    6c46:	48 09 d0             	or     %rdx,%rax
    6c49:	0f b6 53 fc          	movzbl -0x4(%rbx),%edx
    6c4d:	48 c1 e2 20          	shl    $0x20,%rdx
    6c51:	48 09 c2             	or     %rax,%rdx
    6c54:	0f b6 43 fd          	movzbl -0x3(%rbx),%eax
    6c58:	48 c1 e0 28          	shl    $0x28,%rax
    6c5c:	48 09 d0             	or     %rdx,%rax
    6c5f:	0f b6 53 fe          	movzbl -0x2(%rbx),%edx
    6c63:	48 c1 e2 30          	shl    $0x30,%rdx
    6c67:	48 09 c2             	or     %rax,%rdx
    6c6a:	0f b6 43 ff          	movzbl -0x1(%rbx),%eax
    6c6e:	48 c1 e0 38          	shl    $0x38,%rax
    6c72:	48 09 d0             	or     %rdx,%rax
    6c75:	48 31 85 80 00 00 00 	xor    %rax,0x80(%rbp)
    6c7c:	49 81 ed 88 00 00 00 	sub    $0x88,%r13
    6c83:	48 89 ef             	mov    %rbp,%rdi
    6c86:	e8 15 ef ff ff       	call   5ba0 <KeccakF1600_StatePermute>
    6c8b:	49 81 fd 87 00 00 00 	cmp    $0x87,%r13
    6c92:	0f 86 8e 00 00 00    	jbe    6d26 <keccak_absorb_once.constprop.1+0x8d6>
    6c98:	48 89 d8             	mov    %rbx,%rax
    6c9b:	48 f7 d0             	not    %rax
    6c9e:	48 01 e8             	add    %rbp,%rax
    6ca1:	48 83 f8 7e          	cmp    $0x7e,%rax
    6ca5:	0f 87 0d f8 ff ff    	ja     64b8 <keccak_absorb_once.constprop.1+0x68>
    6cab:	48 89 d8             	mov    %rbx,%rax
    6cae:	48 89 ee             	mov    %rbp,%rsi
    6cb1:	48 8d 9b 88 00 00 00 	lea    0x88(%rbx),%rbx
    6cb8:	0f 1f 84 00 00 00 00 	nopl   0x0(%rax,%rax,1)
    6cbf:	00 
    6cc0:	0f b6 50 02          	movzbl 0x2(%rax),%edx
    6cc4:	0f b6 48 01          	movzbl 0x1(%rax),%ecx
    6cc8:	48 83 c0 08          	add    $0x8,%rax
    6ccc:	48 c1 e1 08          	shl    $0x8,%rcx
    6cd0:	48 c1 e2 10          	shl    $0x10,%rdx
    6cd4:	48 09 ca             	or     %rcx,%rdx
    6cd7:	0f b6 48 f8          	movzbl -0x8(%rax),%ecx
    6cdb:	48 09 ca             	or     %rcx,%rdx
    6cde:	0f b6 48 fb          	movzbl -0x5(%rax),%ecx
    6ce2:	48 c1 e1 18          	shl    $0x18,%rcx
    6ce6:	48 09 ca             	or     %rcx,%rdx
    6ce9:	0f b6 48 fc          	movzbl -0x4(%rax),%ecx
    6ced:	48 c1 e1 20          	shl    $0x20,%rcx
    6cf1:	48 09 d1             	or     %rdx,%rcx
    6cf4:	0f b6 50 fd          	movzbl -0x3(%rax),%edx
    6cf8:	48 c1 e2 28          	shl    $0x28,%rdx
    6cfc:	48 09 ca             	or     %rcx,%rdx
    6cff:	0f b6 48 fe          	movzbl -0x2(%rax),%ecx
    6d03:	48 c1 e1 30          	shl    $0x30,%rcx
    6d07:	48 09 d1             	or     %rdx,%rcx
    6d0a:	0f b6 50 ff          	movzbl -0x1(%rax),%edx
    6d0e:	48 c1 e2 38          	shl    $0x38,%rdx
    6d12:	48 09 ca             	or     %rcx,%rdx
    6d15:	48 31 16             	xor    %rdx,(%rsi)
    6d18:	48 83 c6 08          	add    $0x8,%rsi
    6d1c:	48 39 d8             	cmp    %rbx,%rax
    6d1f:	75 9f                	jne    6cc0 <keccak_absorb_once.constprop.1+0x870>
    6d21:	e9 56 ff ff ff       	jmp    6c7c <keccak_absorb_once.constprop.1+0x82c>
    6d26:	4d 85 ed             	test   %r13,%r13
    6d29:	74 5e                	je     6d89 <keccak_absorb_once.constprop.1+0x939>
    6d2b:	31 c9                	xor    %ecx,%ecx
    6d2d:	31 c0                	xor    %eax,%eax
    6d2f:	90                   	nop
    6d30:	0f b6 34 0b          	movzbl (%rbx,%rcx,1),%esi
    6d34:	89 c1                	mov    %eax,%ecx
    6d36:	89 c2                	mov    %eax,%edx
    6d38:	83 e1 07             	and    $0x7,%ecx
    6d3b:	c1 ea 03             	shr    $0x3,%edx
    6d3e:	c1 e1 03             	shl    $0x3,%ecx
    6d41:	48 d3 e6             	shl    %cl,%rsi
    6d44:	8d 48 01             	lea    0x1(%rax),%ecx
    6d47:	48 31 74 d5 00       	xor    %rsi,0x0(%rbp,%rdx,8)
    6d4c:	48 89 c8             	mov    %rcx,%rax
    6d4f:	4c 39 e9             	cmp    %r13,%rcx
    6d52:	72 dc                	jb     6d30 <keccak_absorb_once.constprop.1+0x8e0>
    6d54:	89 ca                	mov    %ecx,%edx
    6d56:	83 e0 07             	and    $0x7,%eax
    6d59:	c1 ea 03             	shr    $0x3,%edx
    6d5c:	8d 0c c5 00 00 00 00 	lea    0x0(,%rax,8),%ecx
    6d63:	48 8d 54 d5 00       	lea    0x0(%rbp,%rdx,8),%rdx
    6d68:	45 0f b6 e4          	movzbl %r12b,%r12d
    6d6c:	49 d3 e4             	shl    %cl,%r12
    6d6f:	4c 31 22             	xor    %r12,(%rdx)
    6d72:	48 0f ba bd 80 00 00 	btcq   $0x3f,0x80(%rbp)
    6d79:	00 3f 
    6d7b:	48 81 c4 a8 00 00 00 	add    $0xa8,%rsp
    6d82:	5b                   	pop    %rbx
    6d83:	5d                   	pop    %rbp
    6d84:	41 5c                	pop    %r12
    6d86:	41 5d                	pop    %r13
    6d88:	c3                   	ret    
    6d89:	48 89 ea             	mov    %rbp,%rdx
    6d8c:	31 c9                	xor    %ecx,%ecx
    6d8e:	eb d8                	jmp    6d68 <keccak_absorb_once.constprop.1+0x918>

0000000000006d90 <keccak_absorb_once.constprop.2>:
    6d90:	41 54                	push   %r12
    6d92:	49 89 cc             	mov    %rcx,%r12
    6d95:	31 c0                	xor    %eax,%eax
    6d97:	55                   	push   %rbp
    6d98:	48 89 fd             	mov    %rdi,%rbp
    6d9b:	48 83 c7 08          	add    $0x8,%rdi
    6d9f:	53                   	push   %rbx
    6da0:	48 89 e9             	mov    %rbp,%rcx
    6da3:	48 89 d3             	mov    %rdx,%rbx
    6da6:	48 81 ec a0 00 00 00 	sub    $0xa0,%rsp
    6dad:	48 c7 47 f8 00 00 00 	movq   $0x0,-0x8(%rdi)
    6db4:	00 
    6db5:	48 c7 87 b8 00 00 00 	movq   $0x0,0xb8(%rdi)
    6dbc:	00 00 00 00 
    6dc0:	48 83 e7 f8          	and    $0xfffffffffffffff8,%rdi
    6dc4:	48 29 f9             	sub    %rdi,%rcx
    6dc7:	81 c1 c8 00 00 00    	add    $0xc8,%ecx
    6dcd:	c1 e9 03             	shr    $0x3,%ecx
    6dd0:	f3 48 ab             	rep stos %rax,%es:(%rdi)
    6dd3:	49 81 fc a7 00 00 00 	cmp    $0xa7,%r12
    6dda:	0f 86 26 0a 00 00    	jbe    7806 <keccak_absorb_once.constprop.2+0xa76>
    6de0:	66 44 0f 6f 35 b7 42 	movdqa 0x42b7(%rip),%xmm14        # b0a0 <_IO_stdin_used+0xa0>
    6de7:	00 00 
    6de9:	e9 90 09 00 00       	jmp    777e <keccak_absorb_once.constprop.2+0x9ee>
    6dee:	66 90                	xchg   %ax,%ax
    6df0:	f3 44 0f 6f 03       	movdqu (%rbx),%xmm8
    6df5:	f3 0f 6f 43 10       	movdqu 0x10(%rbx),%xmm0
    6dfa:	66 45 0f 6f ce       	movdqa %xmm14,%xmm9
    6dff:	f3 0f 6f 23          	movdqu (%rbx),%xmm4
    6e03:	f3 0f 6f 7b 20       	movdqu 0x20(%rbx),%xmm7
    6e08:	66 41 0f db c6       	pand   %xmm14,%xmm0
    6e0d:	66 45 0f db c6       	pand   %xmm14,%xmm8
    6e12:	f3 0f 6f 5b 20       	movdqu 0x20(%rbx),%xmm3
    6e17:	f3 0f 6f 73 40       	movdqu 0x40(%rbx),%xmm6
    6e1c:	66 44 0f 67 c0       	packuswb %xmm0,%xmm8
    6e21:	f3 0f 6f 43 10       	movdqu 0x10(%rbx),%xmm0
    6e26:	66 0f 71 d4 08       	psrlw  $0x8,%xmm4
    6e2b:	66 41 0f db fe       	pand   %xmm14,%xmm7
    6e30:	66 0f 71 d3 08       	psrlw  $0x8,%xmm3
    6e35:	66 41 0f db f6       	pand   %xmm14,%xmm6
    6e3a:	f3 0f 6f 4b 50       	movdqu 0x50(%rbx),%xmm1
    6e3f:	f3 0f 6f 6b 60       	movdqu 0x60(%rbx),%xmm5
    6e44:	66 0f 71 d0 08       	psrlw  $0x8,%xmm0
    6e49:	f3 0f 6f 53 60       	movdqu 0x60(%rbx),%xmm2
    6e4e:	66 0f 67 e0          	packuswb %xmm0,%xmm4
    6e52:	f3 0f 6f 43 30       	movdqu 0x30(%rbx),%xmm0
    6e57:	66 0f 71 d1 08       	psrlw  $0x8,%xmm1
    6e5c:	66 41 0f db ee       	pand   %xmm14,%xmm5
    6e61:	66 0f 71 d2 08       	psrlw  $0x8,%xmm2
    6e66:	66 41 0f db c6       	pand   %xmm14,%xmm0
    6e6b:	66 0f 67 f8          	packuswb %xmm0,%xmm7
    6e6f:	f3 0f 6f 43 30       	movdqu 0x30(%rbx),%xmm0
    6e74:	66 44 0f db cf       	pand   %xmm7,%xmm9
    6e79:	66 0f 71 d7 08       	psrlw  $0x8,%xmm7
    6e7e:	66 0f 71 d0 08       	psrlw  $0x8,%xmm0
    6e83:	66 0f 67 d8          	packuswb %xmm0,%xmm3
    6e87:	f3 0f 6f 43 50       	movdqu 0x50(%rbx),%xmm0
    6e8c:	66 41 0f db c6       	pand   %xmm14,%xmm0
    6e91:	66 0f 67 f0          	packuswb %xmm0,%xmm6
    6e95:	f3 0f 6f 43 40       	movdqu 0x40(%rbx),%xmm0
    6e9a:	66 0f 71 d0 08       	psrlw  $0x8,%xmm0
    6e9f:	66 0f 67 c1          	packuswb %xmm1,%xmm0
    6ea3:	f3 0f 6f 4b 70       	movdqu 0x70(%rbx),%xmm1
    6ea8:	66 41 0f db ce       	pand   %xmm14,%xmm1
    6ead:	66 0f 67 e9          	packuswb %xmm1,%xmm5
    6eb1:	f3 0f 6f 4b 70       	movdqu 0x70(%rbx),%xmm1
    6eb6:	66 0f 71 d1 08       	psrlw  $0x8,%xmm1
    6ebb:	66 0f 67 d1          	packuswb %xmm1,%xmm2
    6ebf:	66 41 0f 6f ce       	movdqa %xmm14,%xmm1
    6ec4:	66 41 0f db c8       	pand   %xmm8,%xmm1
    6ec9:	66 41 0f 71 d0 08    	psrlw  $0x8,%xmm8
    6ecf:	66 45 0f 6f d0       	movdqa %xmm8,%xmm10
    6ed4:	66 45 0f 6f c6       	movdqa %xmm14,%xmm8
    6ed9:	66 41 0f 67 c9       	packuswb %xmm9,%xmm1
    6ede:	66 44 0f 67 d7       	packuswb %xmm7,%xmm10
    6ee3:	66 41 0f 6f fe       	movdqa %xmm14,%xmm7
    6ee8:	66 44 0f db c5       	pand   %xmm5,%xmm8
    6eed:	66 0f db fe          	pand   %xmm6,%xmm7
    6ef1:	66 0f 71 d6 08       	psrlw  $0x8,%xmm6
    6ef6:	66 0f 71 d5 08       	psrlw  $0x8,%xmm5
    6efb:	66 44 0f 6f de       	movdqa %xmm6,%xmm11
    6f00:	66 41 0f 6f f6       	movdqa %xmm14,%xmm6
    6f05:	66 44 0f 67 dd       	packuswb %xmm5,%xmm11
    6f0a:	66 0f db f4          	pand   %xmm4,%xmm6
    6f0e:	66 41 0f 6f ee       	movdqa %xmm14,%xmm5
    6f13:	66 0f 71 d4 08       	psrlw  $0x8,%xmm4
    6f18:	66 0f db eb          	pand   %xmm3,%xmm5
    6f1c:	66 41 0f 67 f8       	packuswb %xmm8,%xmm7
    6f21:	66 0f 71 d3 08       	psrlw  $0x8,%xmm3
    6f26:	66 44 0f 6f cc       	movdqa %xmm4,%xmm9
    6f2b:	66 41 0f 6f e6       	movdqa %xmm14,%xmm4
    6f30:	66 44 0f 67 cb       	packuswb %xmm3,%xmm9
    6f35:	66 41 0f 6f de       	movdqa %xmm14,%xmm3
    6f3a:	66 0f db e2          	pand   %xmm2,%xmm4
    6f3e:	66 0f db d8          	pand   %xmm0,%xmm3
    6f42:	66 0f 71 d2 08       	psrlw  $0x8,%xmm2
    6f47:	66 45 0f 6f c6       	movdqa %xmm14,%xmm8
    6f4c:	66 0f 71 d0 08       	psrlw  $0x8,%xmm0
    6f51:	66 44 0f db c1       	pand   %xmm1,%xmm8
    6f56:	66 0f 67 f5          	packuswb %xmm5,%xmm6
    6f5a:	66 0f 67 c2          	packuswb %xmm2,%xmm0
    6f5e:	66 41 0f 6f d6       	movdqa %xmm14,%xmm2
    6f63:	66 0f 67 dc          	packuswb %xmm4,%xmm3
    6f67:	66 0f db d7          	pand   %xmm7,%xmm2
    6f6b:	66 0f 71 d1 08       	psrlw  $0x8,%xmm1
    6f70:	66 41 0f 6f ee       	movdqa %xmm14,%xmm5
    6f75:	66 0f 71 d7 08       	psrlw  $0x8,%xmm7
    6f7a:	66 44 0f 67 c2       	packuswb %xmm2,%xmm8
    6f7f:	66 41 0f 6f d6       	movdqa %xmm14,%xmm2
    6f84:	66 0f 67 cf          	packuswb %xmm7,%xmm1
    6f88:	66 41 0f 6f fe       	movdqa %xmm14,%xmm7
    6f8d:	66 0f db d3          	pand   %xmm3,%xmm2
    6f91:	66 0f db fe          	pand   %xmm6,%xmm7
    6f95:	66 41 0f db ea       	pand   %xmm10,%xmm5
    6f9a:	66 45 0f 6f e8       	movdqa %xmm8,%xmm13
    6f9f:	66 41 0f 71 d2 08    	psrlw  $0x8,%xmm10
    6fa5:	66 0f 71 d3 08       	psrlw  $0x8,%xmm3
    6faa:	66 0f 67 fa          	packuswb %xmm2,%xmm7
    6fae:	66 41 0f 6f d6       	movdqa %xmm14,%xmm2
    6fb3:	66 0f 71 d6 08       	psrlw  $0x8,%xmm6
    6fb8:	66 41 0f 6f e2       	movdqa %xmm10,%xmm4
    6fbd:	66 41 0f db d3       	pand   %xmm11,%xmm2
    6fc2:	66 41 0f 71 d3 08    	psrlw  $0x8,%xmm11
    6fc8:	66 0f 67 f3          	packuswb %xmm3,%xmm6
    6fcc:	66 41 0f 67 e3       	packuswb %xmm11,%xmm4
    6fd1:	66 0f 67 ea          	packuswb %xmm2,%xmm5
    6fd5:	66 41 0f 6f d6       	movdqa %xmm14,%xmm2
    6fda:	0f 29 64 24 20       	movaps %xmm4,0x20(%rsp)
    6fdf:	66 41 0f 6f e6       	movdqa %xmm14,%xmm4
    6fe4:	66 0f db d0          	pand   %xmm0,%xmm2
    6fe8:	66 0f 6f dd          	movdqa %xmm5,%xmm3
    6fec:	66 41 0f db e1       	pand   %xmm9,%xmm4
    6ff1:	66 41 0f 71 d1 08    	psrlw  $0x8,%xmm9
    6ff7:	66 44 0f 6f d7       	movdqa %xmm7,%xmm10
    6ffc:	66 0f 67 e2          	packuswb %xmm2,%xmm4
    7000:	66 0f ef d2          	pxor   %xmm2,%xmm2
    7004:	66 45 0f 6f f9       	movdqa %xmm9,%xmm15
    7009:	66 0f 60 da          	punpcklbw %xmm2,%xmm3
    700d:	66 0f 71 d0 08       	psrlw  $0x8,%xmm0
    7012:	66 44 0f 60 d2       	punpcklbw %xmm2,%xmm10
    7017:	66 44 0f 67 f8       	packuswb %xmm0,%xmm15
    701c:	66 41 0f 71 f2 08    	psllw  $0x8,%xmm10
    7022:	66 0f ef c0          	pxor   %xmm0,%xmm0
    7026:	66 44 0f 6f e3       	movdqa %xmm3,%xmm12
    702b:	66 44 0f 6f cc       	movdqa %xmm4,%xmm9
    7030:	66 45 0f 6f da       	movdqa %xmm10,%xmm11
    7035:	66 44 0f 61 e0       	punpcklwd %xmm0,%xmm12
    703a:	66 44 0f 60 ca       	punpcklbw %xmm2,%xmm9
    703f:	66 44 0f 61 d8       	punpcklwd %xmm0,%xmm11
    7044:	66 41 0f 72 f4 10    	pslld  $0x10,%xmm12
    704a:	66 0f 69 d8          	punpckhwd %xmm0,%xmm3
    704e:	66 44 0f 60 ea       	punpcklbw %xmm2,%xmm13
    7053:	66 45 0f eb e3       	por    %xmm11,%xmm12
    7058:	66 45 0f 6f d9       	movdqa %xmm9,%xmm11
    705d:	66 44 0f 69 d0       	punpckhwd %xmm0,%xmm10
    7062:	66 44 0f 61 d8       	punpcklwd %xmm0,%xmm11
    7067:	66 0f 72 f3 10       	pslld  $0x10,%xmm3
    706c:	66 44 0f 69 c8       	punpckhwd %xmm0,%xmm9
    7071:	66 41 0f 72 f3 18    	pslld  $0x18,%xmm11
    7077:	66 0f 68 ea          	punpckhbw %xmm2,%xmm5
    707b:	66 44 0f eb d3       	por    %xmm3,%xmm10
    7080:	44 0f 29 1c 24       	movaps %xmm11,(%rsp)
    7085:	66 0f 68 fa          	punpckhbw %xmm2,%xmm7
    7089:	66 45 0f 6f dd       	movdqa %xmm13,%xmm11
    708e:	66 44 0f 69 e8       	punpckhwd %xmm0,%xmm13
    7093:	66 41 0f 72 f1 18    	pslld  $0x18,%xmm9
    7099:	66 0f 71 f7 08       	psllw  $0x8,%xmm7
    709e:	66 0f 68 e2          	punpckhbw %xmm2,%xmm4
    70a2:	66 45 0f eb e9       	por    %xmm9,%xmm13
    70a7:	66 45 0f 6f ca       	movdqa %xmm10,%xmm9
    70ac:	66 44 0f 6f d5       	movdqa %xmm5,%xmm10
    70b1:	66 44 0f 61 d0       	punpcklwd %xmm0,%xmm10
    70b6:	66 0f 6f df          	movdqa %xmm7,%xmm3
    70ba:	66 44 0f 61 d8       	punpcklwd %xmm0,%xmm11
    70bf:	66 0f 61 d8          	punpcklwd %xmm0,%xmm3
    70c3:	66 44 0f eb 1c 24    	por    (%rsp),%xmm11
    70c9:	66 44 0f 68 c2       	punpckhbw %xmm2,%xmm8
    70ce:	66 41 0f 72 f2 10    	pslld  $0x10,%xmm10
    70d4:	66 0f 69 e8          	punpckhwd %xmm0,%xmm5
    70d8:	66 0f 69 f8          	punpckhwd %xmm0,%xmm7
    70dc:	66 44 0f eb d3       	por    %xmm3,%xmm10
    70e1:	66 0f 6f dc          	movdqa %xmm4,%xmm3
    70e5:	66 0f 69 e0          	punpckhwd %xmm0,%xmm4
    70e9:	66 45 0f eb e3       	por    %xmm11,%xmm12
    70ee:	66 0f 72 f4 18       	pslld  $0x18,%xmm4
    70f3:	66 45 0f 6f d8       	movdqa %xmm8,%xmm11
    70f8:	66 0f 72 f5 10       	pslld  $0x10,%xmm5
    70fd:	66 44 0f 69 c0       	punpckhwd %xmm0,%xmm8
    7102:	66 0f 61 d8          	punpcklwd %xmm0,%xmm3
    7106:	44 0f 29 24 24       	movaps %xmm12,(%rsp)
    710b:	66 44 0f eb c4       	por    %xmm4,%xmm8
    7110:	66 0f eb ef          	por    %xmm7,%xmm5
    7114:	66 44 0f 61 d8       	punpcklwd %xmm0,%xmm11
    7119:	66 41 0f eb e8       	por    %xmm8,%xmm5
    711e:	66 0f 72 f3 18       	pslld  $0x18,%xmm3
    7123:	66 0f 6f f9          	movdqa %xmm1,%xmm7
    7127:	0f 29 6c 24 30       	movaps %xmm5,0x30(%rsp)
    712c:	66 0f 6f ee          	movdqa %xmm6,%xmm5
    7130:	66 0f 68 f2          	punpckhbw %xmm2,%xmm6
    7134:	66 0f 60 fa          	punpcklbw %xmm2,%xmm7
    7138:	66 41 0f eb db       	por    %xmm11,%xmm3
    713d:	66 0f 60 ea          	punpcklbw %xmm2,%xmm5
    7141:	66 44 0f 6f c6       	movdqa %xmm6,%xmm8
    7146:	66 44 0f eb d3       	por    %xmm3,%xmm10
    714b:	66 44 0f 6f de       	movdqa %xmm6,%xmm11
    7150:	66 0f 6f dd          	movdqa %xmm5,%xmm3
    7154:	66 0f 6f 74 24 20    	movdqa 0x20(%rsp),%xmm6
    715a:	66 0f 61 d8          	punpcklwd %xmm0,%xmm3
    715e:	66 44 0f 69 d8       	punpckhwd %xmm0,%xmm11
    7163:	66 0f 68 ca          	punpckhbw %xmm2,%xmm1
    7167:	0f 29 5c 24 10       	movaps %xmm3,0x10(%rsp)
    716c:	66 0f 6f de          	movdqa %xmm6,%xmm3
    7170:	66 0f 68 f2          	punpckhbw %xmm2,%xmm6
    7174:	66 0f 6f e1          	movdqa %xmm1,%xmm4
    7178:	66 0f 60 da          	punpcklbw %xmm2,%xmm3
    717c:	44 0f 29 5c 24 60    	movaps %xmm11,0x60(%rsp)
    7182:	66 0f 61 e0          	punpcklwd %xmm0,%xmm4
    7186:	66 0f 69 c8          	punpckhwd %xmm0,%xmm1
    718a:	66 44 0f 6f de       	movdqa %xmm6,%xmm11
    718f:	66 0f 69 f0          	punpckhwd %xmm0,%xmm6
    7193:	66 44 0f 6f e3       	movdqa %xmm3,%xmm12
    7198:	0f 29 74 24 70       	movaps %xmm6,0x70(%rsp)
    719d:	66 41 0f 6f f7       	movdqa %xmm15,%xmm6
    71a2:	66 0f 69 e8          	punpckhwd %xmm0,%xmm5
    71a6:	66 0f 69 d8          	punpckhwd %xmm0,%xmm3
    71aa:	66 44 0f 61 e0       	punpcklwd %xmm0,%xmm12
    71af:	66 0f 60 f2          	punpcklbw %xmm2,%xmm6
    71b3:	66 45 0f eb cd       	por    %xmm13,%xmm9
    71b8:	44 0f 29 64 24 20    	movaps %xmm12,0x20(%rsp)
    71be:	66 44 0f 6f e6       	movdqa %xmm6,%xmm12
    71c3:	66 41 0f 6f f7       	movdqa %xmm15,%xmm6
    71c8:	66 44 0f 6f ef       	movdqa %xmm7,%xmm13
    71cd:	66 0f 68 f2          	punpckhbw %xmm2,%xmm6
    71d1:	66 41 0f 6f d4       	movdqa %xmm12,%xmm2
    71d6:	66 44 0f 61 e8       	punpcklwd %xmm0,%xmm13
    71db:	66 0f 61 d0          	punpcklwd %xmm0,%xmm2
    71df:	66 0f 69 f8          	punpckhwd %xmm0,%xmm7
    71e3:	66 44 0f 61 c0       	punpcklwd %xmm0,%xmm8
    71e8:	44 0f 29 6c 24 50    	movaps %xmm13,0x50(%rsp)
    71ee:	66 44 0f 6f fa       	movdqa %xmm2,%xmm15
    71f3:	66 41 0f 6f d4       	movdqa %xmm12,%xmm2
    71f8:	66 44 0f 6f e6       	movdqa %xmm6,%xmm12
    71fd:	66 0f 69 f0          	punpckhwd %xmm0,%xmm6
    7201:	66 44 0f 61 d8       	punpcklwd %xmm0,%xmm11
    7206:	66 0f 69 d0          	punpckhwd %xmm0,%xmm2
    720a:	44 0f 29 bc 24 80 00 	movaps %xmm15,0x80(%rsp)
    7211:	00 00 
    7213:	0f 29 b4 24 90 00 00 	movaps %xmm6,0x90(%rsp)
    721a:	00 
    721b:	66 0f 6f 74 24 10    	movdqa 0x10(%rsp),%xmm6
    7221:	66 44 0f 61 e0       	punpcklwd %xmm0,%xmm12
    7226:	66 0f ef c0          	pxor   %xmm0,%xmm0
    722a:	66 44 0f 6a e8       	punpckhdq %xmm0,%xmm13
    722f:	66 44 0f 6a f8       	punpckhdq %xmm0,%xmm15
    7234:	66 41 0f 73 f5 20    	psllq  $0x20,%xmm13
    723a:	66 41 0f 73 f7 38    	psllq  $0x38,%xmm15
    7240:	66 0f 6a f0          	punpckhdq %xmm0,%xmm6
    7244:	66 0f 73 f6 28       	psllq  $0x28,%xmm6
    7249:	66 44 0f eb ee       	por    %xmm6,%xmm13
    724e:	66 0f 6f 74 24 20    	movdqa 0x20(%rsp),%xmm6
    7254:	66 0f 6a f0          	punpckhdq %xmm0,%xmm6
    7258:	66 0f 73 f6 30       	psllq  $0x30,%xmm6
    725d:	66 41 0f eb f7       	por    %xmm15,%xmm6
    7262:	66 41 0f eb f5       	por    %xmm13,%xmm6
    7267:	66 44 0f 6f 2c 24    	movdqa (%rsp),%xmm13
    726d:	f3 44 0f 6f 7d 10    	movdqu 0x10(%rbp),%xmm15
    7273:	66 44 0f 6a e8       	punpckhdq %xmm0,%xmm13
    7278:	66 41 0f eb f5       	por    %xmm13,%xmm6
    727d:	66 44 0f 6f ef       	movdqa %xmm7,%xmm13
    7282:	66 0f 6a f8          	punpckhdq %xmm0,%xmm7
    7286:	66 41 0f ef f7       	pxor   %xmm15,%xmm6
    728b:	66 44 0f 62 e8       	punpckldq %xmm0,%xmm13
    7290:	66 44 0f 6f fa       	movdqa %xmm2,%xmm15
    7295:	0f 29 74 24 40       	movaps %xmm6,0x40(%rsp)
    729a:	66 0f 6f f5          	movdqa %xmm5,%xmm6
    729e:	66 0f 6a d0          	punpckhdq %xmm0,%xmm2
    72a2:	66 0f 6a e8          	punpckhdq %xmm0,%xmm5
    72a6:	66 0f 62 f0          	punpckldq %xmm0,%xmm6
    72aa:	66 41 0f 73 f5 20    	psllq  $0x20,%xmm13
    72b0:	66 44 0f 62 f8       	punpckldq %xmm0,%xmm15
    72b5:	66 0f 73 f6 28       	psllq  $0x28,%xmm6
    72ba:	66 41 0f 73 f7 38    	psllq  $0x38,%xmm15
    72c0:	66 0f 73 f7 20       	psllq  $0x20,%xmm7
    72c5:	66 0f 73 f2 38       	psllq  $0x38,%xmm2
    72ca:	66 44 0f eb ee       	por    %xmm6,%xmm13
    72cf:	66 0f 6f f3          	movdqa %xmm3,%xmm6
    72d3:	66 0f 73 f5 28       	psllq  $0x28,%xmm5
    72d8:	66 0f 6a d8          	punpckhdq %xmm0,%xmm3
    72dc:	66 0f 62 f0          	punpckldq %xmm0,%xmm6
    72e0:	66 0f 73 f3 30       	psllq  $0x30,%xmm3
    72e5:	66 0f eb ef          	por    %xmm7,%xmm5
    72e9:	66 0f 6f 7c 24 30    	movdqa 0x30(%rsp),%xmm7
    72ef:	66 0f 73 f6 30       	psllq  $0x30,%xmm6
    72f4:	66 0f eb da          	por    %xmm2,%xmm3
    72f8:	66 41 0f 6f d0       	movdqa %xmm8,%xmm2
    72fd:	66 41 0f eb f7       	por    %xmm15,%xmm6
    7302:	66 0f eb dd          	por    %xmm5,%xmm3
    7306:	66 0f 62 d0          	punpckldq %xmm0,%xmm2
    730a:	f3 44 0f 6f 7d 20    	movdqu 0x20(%rbp),%xmm15
    7310:	66 41 0f eb f5       	por    %xmm13,%xmm6
    7315:	66 45 0f 6f e9       	movdqa %xmm9,%xmm13
    731a:	66 44 0f 6a c8       	punpckhdq %xmm0,%xmm9
    731f:	66 41 0f eb d9       	por    %xmm9,%xmm3
    7324:	f3 44 0f 6f 4d 30    	movdqu 0x30(%rbp),%xmm9
    732a:	66 0f 73 f2 28       	psllq  $0x28,%xmm2
    732f:	66 41 0f 6f ec       	movdqa %xmm12,%xmm5
    7334:	66 0f 62 e8          	punpckldq %xmm0,%xmm5
    7338:	66 44 0f 6a e0       	punpckhdq %xmm0,%xmm12
    733d:	66 44 0f 6a c0       	punpckhdq %xmm0,%xmm8
    7342:	66 44 0f ef cb       	pxor   %xmm3,%xmm9
    7347:	66 0f 6f dc          	movdqa %xmm4,%xmm3
    734b:	66 0f 6a e0          	punpckhdq %xmm0,%xmm4
    734f:	66 0f 62 d8          	punpckldq %xmm0,%xmm3
    7353:	66 0f 73 f5 38       	psllq  $0x38,%xmm5
    7358:	66 44 0f 62 e8       	punpckldq %xmm0,%xmm13
    735d:	44 0f 11 4d 30       	movups %xmm9,0x30(%rbp)
    7362:	66 0f 73 f3 20       	psllq  $0x20,%xmm3
    7367:	66 41 0f 73 f0 28    	psllq  $0x28,%xmm8
    736d:	66 41 0f eb f5       	por    %xmm13,%xmm6
    7372:	66 0f eb da          	por    %xmm2,%xmm3
    7376:	66 41 0f 6f d3       	movdqa %xmm11,%xmm2
    737b:	66 44 0f 6a d8       	punpckhdq %xmm0,%xmm11
    7380:	66 0f 62 d0          	punpckldq %xmm0,%xmm2
    7384:	66 41 0f 73 f3 30    	psllq  $0x30,%xmm11
    738a:	66 41 0f ef f7       	pxor   %xmm15,%xmm6
    738f:	66 44 0f 6f 7c 24 60 	movdqa 0x60(%rsp),%xmm15
    7396:	66 0f 73 f2 30       	psllq  $0x30,%xmm2
    739b:	66 41 0f 73 f4 38    	psllq  $0x38,%xmm12
    73a1:	0f 11 75 20          	movups %xmm6,0x20(%rbp)
    73a5:	66 0f eb d5          	por    %xmm5,%xmm2
    73a9:	66 0f 73 f4 20       	psllq  $0x20,%xmm4
    73ae:	66 45 0f eb e3       	por    %xmm11,%xmm12
    73b3:	66 0f eb d3          	por    %xmm3,%xmm2
    73b7:	66 41 0f eb e0       	por    %xmm8,%xmm4
    73bc:	66 41 0f 6f da       	movdqa %xmm10,%xmm3
    73c1:	66 44 0f 6f 44 24 70 	movdqa 0x70(%rsp),%xmm8
    73c8:	66 0f 62 d8          	punpckldq %xmm0,%xmm3
    73cc:	66 44 0f 6a d0       	punpckhdq %xmm0,%xmm10
    73d1:	66 41 0f eb e4       	por    %xmm12,%xmm4
    73d6:	66 44 0f 6f a4 24 90 	movdqa 0x90(%rsp),%xmm12
    73dd:	00 00 00 
    73e0:	66 41 0f eb e2       	por    %xmm10,%xmm4
    73e5:	66 0f eb d3          	por    %xmm3,%xmm2
    73e9:	f3 44 0f 6f 55 50    	movdqu 0x50(%rbp),%xmm10
    73ef:	f3 0f 6f 5d 40       	movdqu 0x40(%rbp),%xmm3
    73f4:	66 45 0f 6f df       	movdqa %xmm15,%xmm11
    73f9:	66 0f ef d3          	pxor   %xmm3,%xmm2
    73fd:	66 44 0f ef d4       	pxor   %xmm4,%xmm10
    7402:	66 41 0f 6f dc       	movdqa %xmm12,%xmm3
    7407:	66 41 0f 6f e0       	movdqa %xmm8,%xmm4
    740c:	66 0f 62 d8          	punpckldq %xmm0,%xmm3
    7410:	66 44 0f 62 d8       	punpckldq %xmm0,%xmm11
    7415:	0f 11 55 40          	movups %xmm2,0x40(%rbp)
    7419:	66 0f 62 e0          	punpckldq %xmm0,%xmm4
    741d:	66 0f 73 f3 38       	psllq  $0x38,%xmm3
    7422:	66 41 0f 6f eb       	movdqa %xmm11,%xmm5
    7427:	44 0f 11 55 50       	movups %xmm10,0x50(%rbp)
    742c:	66 0f 73 f4 30       	psllq  $0x30,%xmm4
    7431:	66 0f 73 f5 28       	psllq  $0x28,%xmm5
    7436:	66 0f eb e3          	por    %xmm3,%xmm4
    743a:	66 0f 6f d9          	movdqa %xmm1,%xmm3
    743e:	66 0f 6a c8          	punpckhdq %xmm0,%xmm1
    7442:	66 0f 62 d8          	punpckldq %xmm0,%xmm3
    7446:	66 0f 73 f1 20       	psllq  $0x20,%xmm1
    744b:	66 0f 73 f3 20       	psllq  $0x20,%xmm3
    7450:	66 0f eb dd          	por    %xmm5,%xmm3
    7454:	66 41 0f 6f ec       	movdqa %xmm12,%xmm5
    7459:	66 0f eb dc          	por    %xmm4,%xmm3
    745d:	66 0f 6f e7          	movdqa %xmm7,%xmm4
    7461:	66 0f 6a e8          	punpckhdq %xmm0,%xmm5
    7465:	66 0f 62 e0          	punpckldq %xmm0,%xmm4
    7469:	66 0f 73 f5 38       	psllq  $0x38,%xmm5
    746e:	66 0f eb dc          	por    %xmm4,%xmm3
    7472:	f3 0f 6f 65 60       	movdqu 0x60(%rbp),%xmm4
    7477:	66 0f ef dc          	pxor   %xmm4,%xmm3
    747b:	66 41 0f 6f e7       	movdqa %xmm15,%xmm4
    7480:	66 0f 6a e0          	punpckhdq %xmm0,%xmm4
    7484:	0f 11 5d 60          	movups %xmm3,0x60(%rbp)
    7488:	66 0f 73 f4 28       	psllq  $0x28,%xmm4
    748d:	66 0f eb e1          	por    %xmm1,%xmm4
    7491:	66 41 0f 6f c8       	movdqa %xmm8,%xmm1
    7496:	66 0f 6a c8          	punpckhdq %xmm0,%xmm1
    749a:	66 0f 73 f1 30       	psllq  $0x30,%xmm1
    749f:	66 0f eb cd          	por    %xmm5,%xmm1
    74a3:	66 0f eb e1          	por    %xmm1,%xmm4
    74a7:	66 0f 6f cf          	movdqa %xmm7,%xmm1
    74ab:	66 0f 6f 7c 24 10    	movdqa 0x10(%rsp),%xmm7
    74b1:	66 0f 6a c8          	punpckhdq %xmm0,%xmm1
    74b5:	66 0f eb e1          	por    %xmm1,%xmm4
    74b9:	f3 0f 6f 4d 70       	movdqu 0x70(%rbp),%xmm1
    74be:	66 0f 62 f8          	punpckldq %xmm0,%xmm7
    74c2:	66 0f 73 f7 28       	psllq  $0x28,%xmm7
    74c7:	66 0f ef e1          	pxor   %xmm1,%xmm4
    74cb:	66 0f 6f 4c 24 50    	movdqa 0x50(%rsp),%xmm1
    74d1:	0f 11 65 70          	movups %xmm4,0x70(%rbp)
    74d5:	66 0f 62 c8          	punpckldq %xmm0,%xmm1
    74d9:	66 0f 73 f1 20       	psllq  $0x20,%xmm1
    74de:	66 0f eb cf          	por    %xmm7,%xmm1
    74e2:	66 0f 6f bc 24 80 00 	movdqa 0x80(%rsp),%xmm7
    74e9:	00 00 
    74eb:	66 0f 6f e9          	movdqa %xmm1,%xmm5
    74ef:	66 0f 6f 4c 24 20    	movdqa 0x20(%rsp),%xmm1
    74f5:	66 0f 62 f8          	punpckldq %xmm0,%xmm7
    74f9:	66 0f 62 c8          	punpckldq %xmm0,%xmm1
    74fd:	66 0f 73 f7 38       	psllq  $0x38,%xmm7
    7502:	66 0f 73 f1 30       	psllq  $0x30,%xmm1
    7507:	66 0f eb cf          	por    %xmm7,%xmm1
    750b:	66 0f 6f 7c 24 40    	movdqa 0x40(%rsp),%xmm7
    7511:	66 0f eb cd          	por    %xmm5,%xmm1
    7515:	66 0f 6f 2c 24       	movdqa (%rsp),%xmm5
    751a:	0f 11 7d 10          	movups %xmm7,0x10(%rbp)
    751e:	66 0f 62 e8          	punpckldq %xmm0,%xmm5
    7522:	66 0f eb cd          	por    %xmm5,%xmm1
    7526:	f3 0f 6f 6d 00       	movdqu 0x0(%rbp),%xmm5
    752b:	66 0f 6f c1          	movdqa %xmm1,%xmm0
    752f:	66 0f ef c5          	pxor   %xmm5,%xmm0
    7533:	0f 11 45 00          	movups %xmm0,0x0(%rbp)
    7537:	0f b6 83 82 00 00 00 	movzbl 0x82(%rbx),%eax
    753e:	0f b6 93 81 00 00 00 	movzbl 0x81(%rbx),%edx
    7545:	48 c1 e0 10          	shl    $0x10,%rax
    7549:	48 c1 e2 08          	shl    $0x8,%rdx
    754d:	48 09 d0             	or     %rdx,%rax
    7550:	0f b6 93 80 00 00 00 	movzbl 0x80(%rbx),%edx
    7557:	48 09 d0             	or     %rdx,%rax
    755a:	0f b6 93 83 00 00 00 	movzbl 0x83(%rbx),%edx
    7561:	48 c1 e2 18          	shl    $0x18,%rdx
    7565:	48 09 d0             	or     %rdx,%rax
    7568:	0f b6 93 84 00 00 00 	movzbl 0x84(%rbx),%edx
    756f:	48 c1 e2 20          	shl    $0x20,%rdx
    7573:	48 09 c2             	or     %rax,%rdx
    7576:	0f b6 83 85 00 00 00 	movzbl 0x85(%rbx),%eax
    757d:	48 c1 e0 28          	shl    $0x28,%rax
    7581:	48 09 d0             	or     %rdx,%rax
    7584:	0f b6 93 86 00 00 00 	movzbl 0x86(%rbx),%edx
    758b:	48 c1 e2 30          	shl    $0x30,%rdx
    758f:	48 09 c2             	or     %rax,%rdx
    7592:	0f b6 83 87 00 00 00 	movzbl 0x87(%rbx),%eax
    7599:	48 c1 e0 38          	shl    $0x38,%rax
    759d:	48 09 d0             	or     %rdx,%rax
    75a0:	48 31 85 80 00 00 00 	xor    %rax,0x80(%rbp)
    75a7:	0f b6 83 8a 00 00 00 	movzbl 0x8a(%rbx),%eax
    75ae:	0f b6 93 89 00 00 00 	movzbl 0x89(%rbx),%edx
    75b5:	48 c1 e0 10          	shl    $0x10,%rax
    75b9:	48 c1 e2 08          	shl    $0x8,%rdx
    75bd:	48 09 d0             	or     %rdx,%rax
    75c0:	0f b6 93 88 00 00 00 	movzbl 0x88(%rbx),%edx
    75c7:	48 09 d0             	or     %rdx,%rax
    75ca:	0f b6 93 8b 00 00 00 	movzbl 0x8b(%rbx),%edx
    75d1:	48 c1 e2 18          	shl    $0x18,%rdx
    75d5:	48 09 d0             	or     %rdx,%rax
    75d8:	0f b6 93 8c 00 00 00 	movzbl 0x8c(%rbx),%edx
    75df:	48 c1 e2 20          	shl    $0x20,%rdx
    75e3:	48 09 c2             	or     %rax,%rdx
    75e6:	0f b6 83 8d 00 00 00 	movzbl 0x8d(%rbx),%eax
    75ed:	48 c1 e0 28          	shl    $0x28,%rax
    75f1:	48 09 d0             	or     %rdx,%rax
    75f4:	0f b6 93 8e 00 00 00 	movzbl 0x8e(%rbx),%edx
    75fb:	48 c1 e2 30          	shl    $0x30,%rdx
    75ff:	48 09 c2             	or     %rax,%rdx
    7602:	0f b6 83 8f 00 00 00 	movzbl 0x8f(%rbx),%eax
    7609:	48 c1 e0 38          	shl    $0x38,%rax
    760d:	48 09 d0             	or     %rdx,%rax
    7610:	48 31 85 88 00 00 00 	xor    %rax,0x88(%rbp)
    7617:	0f b6 83 91 00 00 00 	movzbl 0x91(%rbx),%eax
    761e:	0f b6 93 92 00 00 00 	movzbl 0x92(%rbx),%edx
    7625:	48 c1 e0 08          	shl    $0x8,%rax
    7629:	48 c1 e2 10          	shl    $0x10,%rdx
    762d:	48 09 d0             	or     %rdx,%rax
    7630:	0f b6 93 90 00 00 00 	movzbl 0x90(%rbx),%edx
    7637:	48 09 d0             	or     %rdx,%rax
    763a:	0f b6 93 93 00 00 00 	movzbl 0x93(%rbx),%edx
    7641:	48 c1 e2 18          	shl    $0x18,%rdx
    7645:	48 09 d0             	or     %rdx,%rax
    7648:	0f b6 93 94 00 00 00 	movzbl 0x94(%rbx),%edx
    764f:	48 c1 e2 20          	shl    $0x20,%rdx
    7653:	48 09 c2             	or     %rax,%rdx
    7656:	0f b6 83 95 00 00 00 	movzbl 0x95(%rbx),%eax
    765d:	48 c1 e0 28          	shl    $0x28,%rax
    7661:	48 09 d0             	or     %rdx,%rax
    7664:	0f b6 93 96 00 00 00 	movzbl 0x96(%rbx),%edx
    766b:	48 c1 e2 30          	shl    $0x30,%rdx
    766f:	48 09 c2             	or     %rax,%rdx
    7672:	0f b6 83 97 00 00 00 	movzbl 0x97(%rbx),%eax
    7679:	48 c1 e0 38          	shl    $0x38,%rax
    767d:	48 09 d0             	or     %rdx,%rax
    7680:	48 31 85 90 00 00 00 	xor    %rax,0x90(%rbp)
    7687:	0f b6 83 99 00 00 00 	movzbl 0x99(%rbx),%eax
    768e:	0f b6 93 9a 00 00 00 	movzbl 0x9a(%rbx),%edx
    7695:	48 c1 e0 08          	shl    $0x8,%rax
    7699:	48 c1 e2 10          	shl    $0x10,%rdx
    769d:	48 09 d0             	or     %rdx,%rax
    76a0:	0f b6 93 98 00 00 00 	movzbl 0x98(%rbx),%edx
    76a7:	48 09 d0             	or     %rdx,%rax
    76aa:	0f b6 93 9b 00 00 00 	movzbl 0x9b(%rbx),%edx
    76b1:	48 c1 e2 18          	shl    $0x18,%rdx
    76b5:	48 09 d0             	or     %rdx,%rax
    76b8:	0f b6 93 9c 00 00 00 	movzbl 0x9c(%rbx),%edx
    76bf:	48 c1 e2 20          	shl    $0x20,%rdx
    76c3:	48 09 c2             	or     %rax,%rdx
    76c6:	0f b6 83 9d 00 00 00 	movzbl 0x9d(%rbx),%eax
    76cd:	48 c1 e0 28          	shl    $0x28,%rax
    76d1:	48 09 d0             	or     %rdx,%rax
    76d4:	0f b6 93 9e 00 00 00 	movzbl 0x9e(%rbx),%edx
    76db:	48 c1 e2 30          	shl    $0x30,%rdx
    76df:	48 09 c2             	or     %rax,%rdx
    76e2:	0f b6 83 9f 00 00 00 	movzbl 0x9f(%rbx),%eax
    76e9:	48 c1 e0 38          	shl    $0x38,%rax
    76ed:	48 09 d0             	or     %rdx,%rax
    76f0:	48 31 85 98 00 00 00 	xor    %rax,0x98(%rbp)
    76f7:	0f b6 83 a2 00 00 00 	movzbl 0xa2(%rbx),%eax
    76fe:	0f b6 93 a1 00 00 00 	movzbl 0xa1(%rbx),%edx
    7705:	48 c1 e0 10          	shl    $0x10,%rax
    7709:	48 c1 e2 08          	shl    $0x8,%rdx
    770d:	48 09 d0             	or     %rdx,%rax
    7710:	0f b6 93 a0 00 00 00 	movzbl 0xa0(%rbx),%edx
    7717:	48 09 d0             	or     %rdx,%rax
    771a:	0f b6 93 a3 00 00 00 	movzbl 0xa3(%rbx),%edx
    7721:	48 c1 e2 18          	shl    $0x18,%rdx
    7725:	48 81 c3 a8 00 00 00 	add    $0xa8,%rbx
    772c:	48 09 d0             	or     %rdx,%rax
    772f:	0f b6 53 fc          	movzbl -0x4(%rbx),%edx
    7733:	48 c1 e2 20          	shl    $0x20,%rdx
    7737:	48 09 c2             	or     %rax,%rdx
    773a:	0f b6 43 fd          	movzbl -0x3(%rbx),%eax
    773e:	48 c1 e0 28          	shl    $0x28,%rax
    7742:	48 09 d0             	or     %rdx,%rax
    7745:	0f b6 53 fe          	movzbl -0x2(%rbx),%edx
    7749:	48 c1 e2 30          	shl    $0x30,%rdx
    774d:	48 09 c2             	or     %rax,%rdx
    7750:	0f b6 43 ff          	movzbl -0x1(%rbx),%eax
    7754:	48 c1 e0 38          	shl    $0x38,%rax
    7758:	48 09 d0             	or     %rdx,%rax
    775b:	48 31 85 a0 00 00 00 	xor    %rax,0xa0(%rbp)
    7762:	49 81 ec a8 00 00 00 	sub    $0xa8,%r12
    7769:	48 89 ef             	mov    %rbp,%rdi
    776c:	e8 2f e4 ff ff       	call   5ba0 <KeccakF1600_StatePermute>
    7771:	49 81 fc a7 00 00 00 	cmp    $0xa7,%r12
    7778:	0f 86 88 00 00 00    	jbe    7806 <keccak_absorb_once.constprop.2+0xa76>
    777e:	48 89 d8             	mov    %rbx,%rax
    7781:	48 f7 d0             	not    %rax
    7784:	48 01 e8             	add    %rbp,%rax
    7787:	48 83 f8 7e          	cmp    $0x7e,%rax
    778b:	0f 87 5f f6 ff ff    	ja     6df0 <keccak_absorb_once.constprop.2+0x60>
    7791:	48 89 da             	mov    %rbx,%rdx
    7794:	48 89 ee             	mov    %rbp,%rsi
    7797:	48 8d 9b a8 00 00 00 	lea    0xa8(%rbx),%rbx
    779e:	66 90                	xchg   %ax,%ax
    77a0:	0f b6 42 02          	movzbl 0x2(%rdx),%eax
    77a4:	0f b6 4a 01          	movzbl 0x1(%rdx),%ecx
    77a8:	48 83 c2 08          	add    $0x8,%rdx
    77ac:	48 c1 e1 08          	shl    $0x8,%rcx
    77b0:	48 c1 e0 10          	shl    $0x10,%rax
    77b4:	48 09 c8             	or     %rcx,%rax
    77b7:	0f b6 4a f8          	movzbl -0x8(%rdx),%ecx
    77bb:	48 09 c8             	or     %rcx,%rax
    77be:	0f b6 4a fb          	movzbl -0x5(%rdx),%ecx
    77c2:	48 c1 e1 18          	shl    $0x18,%rcx
    77c6:	48 09 c8             	or     %rcx,%rax
    77c9:	0f b6 4a fc          	movzbl -0x4(%rdx),%ecx
    77cd:	48 c1 e1 20          	shl    $0x20,%rcx
    77d1:	48 09 c1             	or     %rax,%rcx
    77d4:	0f b6 42 fd          	movzbl -0x3(%rdx),%eax
    77d8:	48 c1 e0 28          	shl    $0x28,%rax
    77dc:	48 09 c8             	or     %rcx,%rax
    77df:	0f b6 4a fe          	movzbl -0x2(%rdx),%ecx
    77e3:	48 c1 e1 30          	shl    $0x30,%rcx
    77e7:	48 09 c1             	or     %rax,%rcx
    77ea:	0f b6 42 ff          	movzbl -0x1(%rdx),%eax
    77ee:	48 c1 e0 38          	shl    $0x38,%rax
    77f2:	48 09 c8             	or     %rcx,%rax
    77f5:	48 31 06             	xor    %rax,(%rsi)
    77f8:	48 83 c6 08          	add    $0x8,%rsi
    77fc:	48 39 d3             	cmp    %rdx,%rbx
    77ff:	75 9f                	jne    77a0 <keccak_absorb_once.constprop.2+0xa10>
    7801:	e9 5c ff ff ff       	jmp    7762 <keccak_absorb_once.constprop.2+0x9d2>
    7806:	4d 85 e4             	test   %r12,%r12
    7809:	74 5d                	je     7868 <keccak_absorb_once.constprop.2+0xad8>
    780b:	31 c9                	xor    %ecx,%ecx
    780d:	31 c0                	xor    %eax,%eax
    780f:	90                   	nop
    7810:	0f b6 34 0b          	movzbl (%rbx,%rcx,1),%esi
    7814:	89 c1                	mov    %eax,%ecx
    7816:	89 c2                	mov    %eax,%edx
    7818:	83 e1 07             	and    $0x7,%ecx
    781b:	c1 ea 03             	shr    $0x3,%edx
    781e:	c1 e1 03             	shl    $0x3,%ecx
    7821:	48 d3 e6             	shl    %cl,%rsi
    7824:	8d 48 01             	lea    0x1(%rax),%ecx
    7827:	48 31 74 d5 00       	xor    %rsi,0x0(%rbp,%rdx,8)
    782c:	48 89 c8             	mov    %rcx,%rax
    782f:	4c 39 e1             	cmp    %r12,%rcx
    7832:	72 dc                	jb     7810 <keccak_absorb_once.constprop.2+0xa80>
    7834:	89 ca                	mov    %ecx,%edx
    7836:	83 e0 07             	and    $0x7,%eax
    7839:	8d 0c c5 00 00 00 00 	lea    0x0(,%rax,8),%ecx
    7840:	c1 ea 03             	shr    $0x3,%edx
    7843:	b8 1f 00 00 00       	mov    $0x1f,%eax
    7848:	48 8d 54 d5 00       	lea    0x0(%rbp,%rdx,8),%rdx
    784d:	48 d3 e0             	shl    %cl,%rax
    7850:	48 31 02             	xor    %rax,(%rdx)
    7853:	48 0f ba bd a0 00 00 	btcq   $0x3f,0xa0(%rbp)
    785a:	00 3f 
    785c:	48 81 c4 a0 00 00 00 	add    $0xa0,%rsp
    7863:	5b                   	pop    %rbx
    7864:	5d                   	pop    %rbp
    7865:	41 5c                	pop    %r12
    7867:	c3                   	ret    
    7868:	48 89 ea             	mov    %rbp,%rdx
    786b:	b8 1f 00 00 00       	mov    $0x1f,%eax
    7870:	eb de                	jmp    7850 <keccak_absorb_once.constprop.2+0xac0>
    7872:	66 66 2e 0f 1f 84 00 	data16 cs nopw 0x0(%rax,%rax,1)
    7879:	00 00 00 00 
    787d:	0f 1f 00             	nopl   (%rax)

0000000000007880 <pqcrystals_kyber_fips202_ref_shake128_init>:
    7880:	f3 0f 1e fa          	endbr64 
    7884:	48 c7 07 00 00 00 00 	movq   $0x0,(%rdi)
    788b:	48 89 fa             	mov    %rdi,%rdx
    788e:	48 8d 7f 08          	lea    0x8(%rdi),%rdi
    7892:	31 c0                	xor    %eax,%eax
    7894:	48 c7 87 b8 00 00 00 	movq   $0x0,0xb8(%rdi)
    789b:	00 00 00 00 
    789f:	48 89 d1             	mov    %rdx,%rcx
    78a2:	48 83 e7 f8          	and    $0xfffffffffffffff8,%rdi
    78a6:	48 29 f9             	sub    %rdi,%rcx
    78a9:	81 c1 c8 00 00 00    	add    $0xc8,%ecx
    78af:	c1 e9 03             	shr    $0x3,%ecx
    78b2:	f3 48 ab             	rep stos %rax,%es:(%rdi)
    78b5:	c7 82 c8 00 00 00 00 	movl   $0x0,0xc8(%rdx)
    78bc:	00 00 00 
    78bf:	c3                   	ret    

00000000000078c0 <pqcrystals_kyber_fips202_ref_shake128_absorb>:
    78c0:	f3 0f 1e fa          	endbr64 
    78c4:	41 54                	push   %r12
    78c6:	49 89 d4             	mov    %rdx,%r12
    78c9:	55                   	push   %rbp
    78ca:	48 89 f5             	mov    %rsi,%rbp
    78cd:	53                   	push   %rbx
    78ce:	8b 87 c8 00 00 00    	mov    0xc8(%rdi),%eax
    78d4:	48 89 fb             	mov    %rdi,%rbx
    78d7:	48 01 c2             	add    %rax,%rdx
    78da:	49 89 c0             	mov    %rax,%r8
    78dd:	48 81 fa a7 00 00 00 	cmp    $0xa7,%rdx
    78e4:	0f 86 c4 00 00 00    	jbe    79ae <pqcrystals_kyber_fips202_ref_shake128_absorb+0xee>
    78ea:	41 b9 a8 00 00 00    	mov    $0xa8,%r9d
    78f0:	41 29 c1             	sub    %eax,%r9d
    78f3:	3d a7 00 00 00       	cmp    $0xa7,%eax
    78f8:	77 55                	ja     794f <pqcrystals_kyber_fips202_ref_shake128_absorb+0x8f>
    78fa:	66 0f 1f 44 00 00    	nopw   0x0(%rax,%rax,1)
    7900:	44 89 c0             	mov    %r8d,%eax
    7903:	48 89 ef             	mov    %rbp,%rdi
    7906:	66 2e 0f 1f 84 00 00 	cs nopw 0x0(%rax,%rax,1)
    790d:	00 00 00 
    7910:	89 c1                	mov    %eax,%ecx
    7912:	89 c2                	mov    %eax,%edx
    7914:	0f b6 37             	movzbl (%rdi),%esi
    7917:	83 c0 01             	add    $0x1,%eax
    791a:	83 e1 07             	and    $0x7,%ecx
    791d:	c1 ea 03             	shr    $0x3,%edx
    7920:	48 83 c7 01          	add    $0x1,%rdi
    7924:	c1 e1 03             	shl    $0x3,%ecx
    7927:	48 d3 e6             	shl    %cl,%rsi
    792a:	48 31 34 d3          	xor    %rsi,(%rbx,%rdx,8)
    792e:	3d a8 00 00 00       	cmp    $0xa8,%eax
    7933:	75 db                	jne    7910 <pqcrystals_kyber_fips202_ref_shake128_absorb+0x50>
    7935:	44 29 c0             	sub    %r8d,%eax
    7938:	41 83 c0 01          	add    $0x1,%r8d
    793c:	ba 01 00 00 00       	mov    $0x1,%edx
    7941:	41 81 f8 a8 00 00 00 	cmp    $0xa8,%r8d
    7948:	48 0f 47 c2          	cmova  %rdx,%rax
    794c:	48 01 c5             	add    %rax,%rbp
    794f:	4d 29 cc             	sub    %r9,%r12
    7952:	48 89 df             	mov    %rbx,%rdi
    7955:	e8 46 e2 ff ff       	call   5ba0 <KeccakF1600_StatePermute>
    795a:	45 31 c0             	xor    %r8d,%r8d
    795d:	41 b9 a8 00 00 00    	mov    $0xa8,%r9d
    7963:	31 c0                	xor    %eax,%eax
    7965:	49 81 fc a7 00 00 00 	cmp    $0xa7,%r12
    796c:	77 92                	ja     7900 <pqcrystals_kyber_fips202_ref_shake128_absorb+0x40>
    796e:	49 39 c4             	cmp    %rax,%r12
    7971:	76 2f                	jbe    79a2 <pqcrystals_kyber_fips202_ref_shake128_absorb+0xe2>
    7973:	0f 1f 44 00 00       	nopl   0x0(%rax,%rax,1)
    7978:	44 89 c1             	mov    %r8d,%ecx
    797b:	44 89 c0             	mov    %r8d,%eax
    797e:	0f b6 55 00          	movzbl 0x0(%rbp),%edx
    7982:	48 83 c5 01          	add    $0x1,%rbp
    7986:	83 e1 07             	and    $0x7,%ecx
    7989:	c1 e8 03             	shr    $0x3,%eax
    798c:	c1 e1 03             	shl    $0x3,%ecx
    798f:	48 d3 e2             	shl    %cl,%rdx
    7992:	48 31 14 c3          	xor    %rdx,(%rbx,%rax,8)
    7996:	41 8d 40 01          	lea    0x1(%r8),%eax
    799a:	49 89 c0             	mov    %rax,%r8
    799d:	4c 39 e0             	cmp    %r12,%rax
    79a0:	72 d6                	jb     7978 <pqcrystals_kyber_fips202_ref_shake128_absorb+0xb8>
    79a2:	44 89 83 c8 00 00 00 	mov    %r8d,0xc8(%rbx)
    79a9:	5b                   	pop    %rbx
    79aa:	5d                   	pop    %rbp
    79ab:	41 5c                	pop    %r12
    79ad:	c3                   	ret    
    79ae:	49 89 d4             	mov    %rdx,%r12
    79b1:	eb bb                	jmp    796e <pqcrystals_kyber_fips202_ref_shake128_absorb+0xae>
    79b3:	66 66 2e 0f 1f 84 00 	data16 cs nopw 0x0(%rax,%rax,1)
    79ba:	00 00 00 00 
    79be:	66 90                	xchg   %ax,%ax

00000000000079c0 <pqcrystals_kyber_fips202_ref_shake128_finalize>:
    79c0:	f3 0f 1e fa          	endbr64 
    79c4:	8b 8f c8 00 00 00    	mov    0xc8(%rdi),%ecx
    79ca:	ba 1f 00 00 00       	mov    $0x1f,%edx
    79cf:	89 c8                	mov    %ecx,%eax
    79d1:	83 e1 07             	and    $0x7,%ecx
    79d4:	c1 e8 03             	shr    $0x3,%eax
    79d7:	c1 e1 03             	shl    $0x3,%ecx
    79da:	48 d3 e2             	shl    %cl,%rdx
    79dd:	48 31 14 c7          	xor    %rdx,(%rdi,%rax,8)
    79e1:	c7 87 c8 00 00 00 a8 	movl   $0xa8,0xc8(%rdi)
    79e8:	00 00 00 
    79eb:	48 0f ba bf a0 00 00 	btcq   $0x3f,0xa0(%rdi)
    79f2:	00 3f 
    79f4:	c3                   	ret    
    79f5:	66 66 2e 0f 1f 84 00 	data16 cs nopw 0x0(%rax,%rax,1)
    79fc:	00 00 00 00 

0000000000007a00 <pqcrystals_kyber_fips202_ref_shake128_squeeze>:
    7a00:	f3 0f 1e fa          	endbr64 
    7a04:	41 54                	push   %r12
    7a06:	55                   	push   %rbp
    7a07:	48 89 d5             	mov    %rdx,%rbp
    7a0a:	53                   	push   %rbx
    7a0b:	44 8b 8a c8 00 00 00 	mov    0xc8(%rdx),%r9d
    7a12:	48 85 f6             	test   %rsi,%rsi
    7a15:	0f 84 c5 00 00 00    	je     7ae0 <pqcrystals_kyber_fips202_ref_shake128_squeeze+0xe0>
    7a1b:	48 89 fb             	mov    %rdi,%rbx
    7a1e:	49 89 f4             	mov    %rsi,%r12
    7a21:	41 81 f9 a8 00 00 00 	cmp    $0xa8,%r9d
    7a28:	0f 84 89 00 00 00    	je     7ab7 <pqcrystals_kyber_fips202_ref_shake128_squeeze+0xb7>
    7a2e:	66 90                	xchg   %ax,%ax
    7a30:	41 81 f9 a7 00 00 00 	cmp    $0xa7,%r9d
    7a37:	0f 87 b3 00 00 00    	ja     7af0 <pqcrystals_kyber_fips202_ref_shake128_squeeze+0xf0>
    7a3d:	44 89 c8             	mov    %r9d,%eax
    7a40:	49 8d 3c 04          	lea    (%r12,%rax,1),%rdi
    7a44:	48 39 f8             	cmp    %rdi,%rax
    7a47:	0f 83 a3 00 00 00    	jae    7af0 <pqcrystals_kyber_fips202_ref_shake128_squeeze+0xf0>
    7a4d:	48 89 de             	mov    %rbx,%rsi
    7a50:	44 89 ca             	mov    %r9d,%edx
    7a53:	45 8d 41 01          	lea    0x1(%r9),%r8d
    7a57:	eb 16                	jmp    7a6f <pqcrystals_kyber_fips202_ref_shake128_squeeze+0x6f>
    7a59:	0f 1f 80 00 00 00 00 	nopl   0x0(%rax)
    7a60:	48 8d 46 ff          	lea    -0x1(%rsi),%rax
    7a64:	48 29 d8             	sub    %rbx,%rax
    7a67:	4c 01 c0             	add    %r8,%rax
    7a6a:	48 39 c7             	cmp    %rax,%rdi
    7a6d:	76 61                	jbe    7ad0 <pqcrystals_kyber_fips202_ref_shake128_squeeze+0xd0>
    7a6f:	89 d0                	mov    %edx,%eax
    7a71:	89 d1                	mov    %edx,%ecx
    7a73:	48 83 c6 01          	add    $0x1,%rsi
    7a77:	83 c2 01             	add    $0x1,%edx
    7a7a:	c1 e8 03             	shr    $0x3,%eax
    7a7d:	83 e1 07             	and    $0x7,%ecx
    7a80:	48 8b 44 c5 00       	mov    0x0(%rbp,%rax,8),%rax
    7a85:	c1 e1 03             	shl    $0x3,%ecx
    7a88:	48 d3 e8             	shr    %cl,%rax
    7a8b:	88 46 ff             	mov    %al,-0x1(%rsi)
    7a8e:	81 fa a8 00 00 00    	cmp    $0xa8,%edx
    7a94:	75 ca                	jne    7a60 <pqcrystals_kyber_fips202_ref_shake128_squeeze+0x60>
    7a96:	44 29 ca             	sub    %r9d,%edx
    7a99:	41 b9 a8 00 00 00    	mov    $0xa8,%r9d
    7a9f:	49 29 d4             	sub    %rdx,%r12
    7aa2:	4d 85 e4             	test   %r12,%r12
    7aa5:	74 39                	je     7ae0 <pqcrystals_kyber_fips202_ref_shake128_squeeze+0xe0>
    7aa7:	48 89 f3             	mov    %rsi,%rbx
    7aaa:	41 81 f9 a8 00 00 00 	cmp    $0xa8,%r9d
    7ab1:	0f 85 79 ff ff ff    	jne    7a30 <pqcrystals_kyber_fips202_ref_shake128_squeeze+0x30>
    7ab7:	48 89 ef             	mov    %rbp,%rdi
    7aba:	e8 e1 e0 ff ff       	call   5ba0 <KeccakF1600_StatePermute>
    7abf:	4c 89 e7             	mov    %r12,%rdi
    7ac2:	45 31 c9             	xor    %r9d,%r9d
    7ac5:	eb 86                	jmp    7a4d <pqcrystals_kyber_fips202_ref_shake128_squeeze+0x4d>
    7ac7:	66 0f 1f 84 00 00 00 	nopw   0x0(%rax,%rax,1)
    7ace:	00 00 
    7ad0:	89 d0                	mov    %edx,%eax
    7ad2:	44 29 c8             	sub    %r9d,%eax
    7ad5:	41 89 d1             	mov    %edx,%r9d
    7ad8:	49 29 c4             	sub    %rax,%r12
    7adb:	4d 85 e4             	test   %r12,%r12
    7ade:	75 c7                	jne    7aa7 <pqcrystals_kyber_fips202_ref_shake128_squeeze+0xa7>
    7ae0:	5b                   	pop    %rbx
    7ae1:	44 89 8d c8 00 00 00 	mov    %r9d,0xc8(%rbp)
    7ae8:	5d                   	pop    %rbp
    7ae9:	41 5c                	pop    %r12
    7aeb:	c3                   	ret    
    7aec:	0f 1f 40 00          	nopl   0x0(%rax)
    7af0:	48 89 de             	mov    %rbx,%rsi
    7af3:	eb b2                	jmp    7aa7 <pqcrystals_kyber_fips202_ref_shake128_squeeze+0xa7>
    7af5:	66 66 2e 0f 1f 84 00 	data16 cs nopw 0x0(%rax,%rax,1)
    7afc:	00 00 00 00 

0000000000007b00 <pqcrystals_kyber_fips202_ref_shake128_absorb_once>:
    7b00:	f3 0f 1e fa          	endbr64 
    7b04:	53                   	push   %rbx
    7b05:	48 89 d1             	mov    %rdx,%rcx
    7b08:	48 89 fb             	mov    %rdi,%rbx
    7b0b:	48 89 f2             	mov    %rsi,%rdx
    7b0e:	41 b8 1f 00 00 00    	mov    $0x1f,%r8d
    7b14:	be a8 00 00 00       	mov    $0xa8,%esi
    7b19:	e8 72 f2 ff ff       	call   6d90 <keccak_absorb_once.constprop.2>
    7b1e:	c7 83 c8 00 00 00 a8 	movl   $0xa8,0xc8(%rbx)
    7b25:	00 00 00 
    7b28:	5b                   	pop    %rbx
    7b29:	c3                   	ret    
    7b2a:	66 0f 1f 44 00 00    	nopw   0x0(%rax,%rax,1)

0000000000007b30 <pqcrystals_kyber_fips202_ref_shake128_squeezeblocks>:
    7b30:	f3 0f 1e fa          	endbr64 
    7b34:	48 85 f6             	test   %rsi,%rsi
    7b37:	0f 84 c0 06 00 00    	je     81fd <pqcrystals_kyber_fips202_ref_shake128_squeezeblocks+0x6cd>
    7b3d:	41 55                	push   %r13
    7b3f:	4c 8d 6a 08          	lea    0x8(%rdx),%r13
    7b43:	41 54                	push   %r12
    7b45:	49 89 f4             	mov    %rsi,%r12
    7b48:	55                   	push   %rbp
    7b49:	48 89 d5             	mov    %rdx,%rbp
    7b4c:	53                   	push   %rbx
    7b4d:	48 89 fb             	mov    %rdi,%rbx
    7b50:	48 83 ec 08          	sub    $0x8,%rsp
    7b54:	66 44 0f 6f 1d 43 35 	movdqa 0x3543(%rip),%xmm11        # b0a0 <_IO_stdin_used+0xa0>
    7b5b:	00 00 
    7b5d:	e9 4b 06 00 00       	jmp    81ad <pqcrystals_kyber_fips202_ref_shake128_squeezeblocks+0x67d>
    7b62:	66 0f 1f 44 00 00    	nopw   0x0(%rax,%rax,1)
    7b68:	f3 44 0f 6f 55 20    	movdqu 0x20(%rbp),%xmm10
    7b6e:	f3 0f 6f 55 30       	movdqu 0x30(%rbp),%xmm2
    7b73:	48 81 c3 a8 00 00 00 	add    $0xa8,%rbx
    7b7a:	f3 0f 6f 5d 40       	movdqu 0x40(%rbp),%xmm3
    7b7f:	f3 0f 6f 4d 00       	movdqu 0x0(%rbp),%xmm1
    7b84:	66 45 0f 6f f2       	movdqa %xmm10,%xmm14
    7b89:	f3 44 0f 6f 4d 60    	movdqu 0x60(%rbp),%xmm9
    7b8f:	f3 44 0f 6f 65 10    	movdqu 0x10(%rbp),%xmm12
    7b95:	44 0f c6 f2 88       	shufps $0x88,%xmm2,%xmm14
    7b9a:	f3 0f 6f 55 50       	movdqu 0x50(%rbp),%xmm2
    7b9f:	66 0f 6f e3          	movdqa %xmm3,%xmm4
    7ba3:	66 0f 6f c1          	movdqa %xmm1,%xmm0
    7ba7:	66 41 0f 6f f9       	movdqa %xmm9,%xmm7
    7bac:	41 0f c6 c4 88       	shufps $0x88,%xmm12,%xmm0
    7bb1:	66 0f 6f e8          	movdqa %xmm0,%xmm5
    7bb5:	66 45 0f 6f ee       	movdqa %xmm14,%xmm13
    7bba:	0f c6 e2 88          	shufps $0x88,%xmm2,%xmm4
    7bbe:	f3 0f 6f 55 70       	movdqu 0x70(%rbp),%xmm2
    7bc3:	66 41 0f 69 ee       	punpckhwd %xmm14,%xmm5
    7bc8:	66 41 0f 72 d5 10    	psrld  $0x10,%xmm13
    7bce:	0f c6 fa 88          	shufps $0x88,%xmm2,%xmm7
    7bd2:	66 0f 6f d0          	movdqa %xmm0,%xmm2
    7bd6:	66 44 0f 6f ff       	movdqa %xmm7,%xmm15
    7bdb:	66 41 0f 61 d6       	punpcklwd %xmm14,%xmm2
    7be0:	66 41 0f 72 d7 10    	psrld  $0x10,%xmm15
    7be6:	66 0f 6f f2          	movdqa %xmm2,%xmm6
    7bea:	66 41 0f 72 d6 18    	psrld  $0x18,%xmm14
    7bf0:	66 0f 61 d5          	punpcklwd %xmm5,%xmm2
    7bf4:	66 0f 69 f5          	punpckhwd %xmm5,%xmm6
    7bf8:	66 0f 6f ec          	movdqa %xmm4,%xmm5
    7bfc:	66 0f 61 d6          	punpcklwd %xmm6,%xmm2
    7c00:	66 0f 61 ef          	punpcklwd %xmm7,%xmm5
    7c04:	66 0f 6f f4          	movdqa %xmm4,%xmm6
    7c08:	66 0f 69 f7          	punpckhwd %xmm7,%xmm6
    7c0c:	66 0f 72 d7 18       	psrld  $0x18,%xmm7
    7c11:	66 44 0f 6f c5       	movdqa %xmm5,%xmm8
    7c16:	66 44 0f 69 c6       	punpckhwd %xmm6,%xmm8
    7c1b:	66 0f 61 ee          	punpcklwd %xmm6,%xmm5
    7c1f:	66 41 0f 6f f3       	movdqa %xmm11,%xmm6
    7c24:	66 41 0f 61 e8       	punpcklwd %xmm8,%xmm5
    7c29:	66 45 0f 6f c3       	movdqa %xmm11,%xmm8
    7c2e:	66 0f db f5          	pand   %xmm5,%xmm6
    7c32:	66 0f 71 d5 08       	psrlw  $0x8,%xmm5
    7c37:	66 44 0f db c2       	pand   %xmm2,%xmm8
    7c3c:	66 44 0f 67 c6       	packuswb %xmm6,%xmm8
    7c41:	66 0f 71 d2 08       	psrlw  $0x8,%xmm2
    7c46:	66 0f 6f f0          	movdqa %xmm0,%xmm6
    7c4a:	66 41 0f db eb       	pand   %xmm11,%xmm5
    7c4f:	66 0f 72 d6 10       	psrld  $0x10,%xmm6
    7c54:	66 41 0f db d3       	pand   %xmm11,%xmm2
    7c59:	66 0f 67 d5          	packuswb %xmm5,%xmm2
    7c5d:	66 0f 72 d0 18       	psrld  $0x18,%xmm0
    7c62:	66 0f 6f ee          	movdqa %xmm6,%xmm5
    7c66:	66 41 0f 61 f5       	punpcklwd %xmm13,%xmm6
    7c6b:	66 41 0f 69 ed       	punpckhwd %xmm13,%xmm5
    7c70:	66 44 0f 6f ee       	movdqa %xmm6,%xmm13
    7c75:	66 0f 61 f5          	punpcklwd %xmm5,%xmm6
    7c79:	66 44 0f 69 ed       	punpckhwd %xmm5,%xmm13
    7c7e:	66 0f 6f ec          	movdqa %xmm4,%xmm5
    7c82:	66 0f 72 d5 10       	psrld  $0x10,%xmm5
    7c87:	66 0f 72 d4 18       	psrld  $0x18,%xmm4
    7c8c:	66 41 0f 61 f5       	punpcklwd %xmm13,%xmm6
    7c91:	66 44 0f 6f ed       	movdqa %xmm5,%xmm13
    7c96:	66 41 0f 61 ef       	punpcklwd %xmm15,%xmm5
    7c9b:	66 41 0f db f3       	pand   %xmm11,%xmm6
    7ca0:	66 45 0f 69 ef       	punpckhwd %xmm15,%xmm13
    7ca5:	66 44 0f 6f fd       	movdqa %xmm5,%xmm15
    7caa:	66 45 0f 69 fd       	punpckhwd %xmm13,%xmm15
    7caf:	66 41 0f 61 ed       	punpcklwd %xmm13,%xmm5
    7cb4:	66 44 0f 6f ee       	movdqa %xmm6,%xmm13
    7cb9:	66 41 0f 61 ef       	punpcklwd %xmm15,%xmm5
    7cbe:	f3 44 0f 6f 7d 70    	movdqu 0x70(%rbp),%xmm15
    7cc4:	66 41 0f db eb       	pand   %xmm11,%xmm5
    7cc9:	66 44 0f 67 ed       	packuswb %xmm5,%xmm13
    7cce:	66 41 0f 73 d7 30    	psrlq  $0x30,%xmm15
    7cd4:	66 0f 6f e8          	movdqa %xmm0,%xmm5
    7cd8:	66 41 0f 61 c6       	punpcklwd %xmm14,%xmm0
    7cdd:	66 41 0f 69 ee       	punpckhwd %xmm14,%xmm5
    7ce2:	f3 44 0f 6f 75 70    	movdqu 0x70(%rbp),%xmm14
    7ce8:	66 0f 6f f0          	movdqa %xmm0,%xmm6
    7cec:	66 0f 61 c5          	punpcklwd %xmm5,%xmm0
    7cf0:	66 0f 69 f5          	punpckhwd %xmm5,%xmm6
    7cf4:	66 41 0f 73 d6 28    	psrlq  $0x28,%xmm14
    7cfa:	66 0f 6f ec          	movdqa %xmm4,%xmm5
    7cfe:	66 0f 61 e7          	punpcklwd %xmm7,%xmm4
    7d02:	66 0f 69 ef          	punpckhwd %xmm7,%xmm5
    7d06:	66 0f 61 c6          	punpcklwd %xmm6,%xmm0
    7d0a:	f3 0f 6f 7d 70       	movdqu 0x70(%rbp),%xmm7
    7d0f:	66 0f 6f f4          	movdqa %xmm4,%xmm6
    7d13:	66 0f 61 e5          	punpcklwd %xmm5,%xmm4
    7d17:	66 41 0f db c3       	pand   %xmm11,%xmm0
    7d1c:	66 0f 69 f5          	punpckhwd %xmm5,%xmm6
    7d20:	f3 0f 6f 6d 30       	movdqu 0x30(%rbp),%xmm5
    7d25:	66 0f 73 d7 20       	psrlq  $0x20,%xmm7
    7d2a:	66 0f 61 e6          	punpcklwd %xmm6,%xmm4
    7d2e:	66 0f 6f f1          	movdqa %xmm1,%xmm6
    7d32:	66 0f 73 d6 20       	psrlq  $0x20,%xmm6
    7d37:	66 0f 73 d5 20       	psrlq  $0x20,%xmm5
    7d3c:	66 41 0f db e3       	pand   %xmm11,%xmm4
    7d41:	66 0f 67 c4          	packuswb %xmm4,%xmm0
    7d45:	66 41 0f 6f e4       	movdqa %xmm12,%xmm4
    7d4a:	66 0f 73 d4 20       	psrlq  $0x20,%xmm4
    7d4f:	0f c6 f4 88          	shufps $0x88,%xmm4,%xmm6
    7d53:	66 41 0f 6f e2       	movdqa %xmm10,%xmm4
    7d58:	66 0f 73 d4 20       	psrlq  $0x20,%xmm4
    7d5d:	0f c6 e5 88          	shufps $0x88,%xmm5,%xmm4
    7d61:	66 0f 6f ee          	movdqa %xmm6,%xmm5
    7d65:	66 0f 61 f4          	punpcklwd %xmm4,%xmm6
    7d69:	66 0f 69 ec          	punpckhwd %xmm4,%xmm5
    7d6d:	66 0f 6f e6          	movdqa %xmm6,%xmm4
    7d71:	66 0f 69 e5          	punpckhwd %xmm5,%xmm4
    7d75:	66 0f 61 f5          	punpcklwd %xmm5,%xmm6
    7d79:	f3 0f 6f 6d 50       	movdqu 0x50(%rbp),%xmm5
    7d7e:	66 0f 61 f4          	punpcklwd %xmm4,%xmm6
    7d82:	66 0f 6f e3          	movdqa %xmm3,%xmm4
    7d86:	66 0f 73 d5 20       	psrlq  $0x20,%xmm5
    7d8b:	66 0f 73 d4 20       	psrlq  $0x20,%xmm4
    7d90:	66 41 0f db f3       	pand   %xmm11,%xmm6
    7d95:	0f c6 e5 88          	shufps $0x88,%xmm5,%xmm4
    7d99:	66 41 0f 6f e9       	movdqa %xmm9,%xmm5
    7d9e:	66 0f 73 d5 20       	psrlq  $0x20,%xmm5
    7da3:	0f c6 ef 88          	shufps $0x88,%xmm7,%xmm5
    7da7:	66 0f 6f fc          	movdqa %xmm4,%xmm7
    7dab:	66 0f 61 e5          	punpcklwd %xmm5,%xmm4
    7daf:	66 0f 69 fd          	punpckhwd %xmm5,%xmm7
    7db3:	66 0f 6f ec          	movdqa %xmm4,%xmm5
    7db7:	66 0f 69 ef          	punpckhwd %xmm7,%xmm5
    7dbb:	66 0f 61 e7          	punpcklwd %xmm7,%xmm4
    7dbf:	f3 0f 6f 7d 30       	movdqu 0x30(%rbp),%xmm7
    7dc4:	66 0f 61 e5          	punpcklwd %xmm5,%xmm4
    7dc8:	66 0f 6f e9          	movdqa %xmm1,%xmm5
    7dcc:	66 0f 73 d5 28       	psrlq  $0x28,%xmm5
    7dd1:	66 0f 73 d7 28       	psrlq  $0x28,%xmm7
    7dd6:	66 41 0f db e3       	pand   %xmm11,%xmm4
    7ddb:	66 0f 67 f4          	packuswb %xmm4,%xmm6
    7ddf:	66 41 0f 6f e4       	movdqa %xmm12,%xmm4
    7de4:	66 0f 73 d4 28       	psrlq  $0x28,%xmm4
    7de9:	0f c6 ec 88          	shufps $0x88,%xmm4,%xmm5
    7ded:	66 41 0f 6f e2       	movdqa %xmm10,%xmm4
    7df2:	66 0f 73 d4 28       	psrlq  $0x28,%xmm4
    7df7:	0f c6 e7 88          	shufps $0x88,%xmm7,%xmm4
    7dfb:	66 0f 6f fd          	movdqa %xmm5,%xmm7
    7dff:	66 0f 61 ec          	punpcklwd %xmm4,%xmm5
    7e03:	66 0f 69 fc          	punpckhwd %xmm4,%xmm7
    7e07:	66 0f 6f e5          	movdqa %xmm5,%xmm4
    7e0b:	66 0f 69 e7          	punpckhwd %xmm7,%xmm4
    7e0f:	66 0f 61 ef          	punpcklwd %xmm7,%xmm5
    7e13:	f3 0f 6f 7d 50       	movdqu 0x50(%rbp),%xmm7
    7e18:	66 0f 61 ec          	punpcklwd %xmm4,%xmm5
    7e1c:	66 0f 6f e3          	movdqa %xmm3,%xmm4
    7e20:	66 0f 73 d7 28       	psrlq  $0x28,%xmm7
    7e25:	66 0f 73 d4 28       	psrlq  $0x28,%xmm4
    7e2a:	66 41 0f db eb       	pand   %xmm11,%xmm5
    7e2f:	0f c6 e7 88          	shufps $0x88,%xmm7,%xmm4
    7e33:	66 41 0f 6f f9       	movdqa %xmm9,%xmm7
    7e38:	66 0f 73 d7 28       	psrlq  $0x28,%xmm7
    7e3d:	41 0f c6 fe 88       	shufps $0x88,%xmm14,%xmm7
    7e42:	66 44 0f 6f f4       	movdqa %xmm4,%xmm14
    7e47:	66 0f 61 e7          	punpcklwd %xmm7,%xmm4
    7e4b:	66 44 0f 69 f7       	punpckhwd %xmm7,%xmm14
    7e50:	66 0f 6f fc          	movdqa %xmm4,%xmm7
    7e54:	66 41 0f 69 fe       	punpckhwd %xmm14,%xmm7
    7e59:	66 41 0f 61 e6       	punpcklwd %xmm14,%xmm4
    7e5e:	f3 44 0f 6f 75 30    	movdqu 0x30(%rbp),%xmm14
    7e64:	66 0f 61 e7          	punpcklwd %xmm7,%xmm4
    7e68:	66 41 0f 6f fc       	movdqa %xmm12,%xmm7
    7e6d:	66 0f 73 d7 30       	psrlq  $0x30,%xmm7
    7e72:	66 41 0f db e3       	pand   %xmm11,%xmm4
    7e77:	66 41 0f 73 d6 30    	psrlq  $0x30,%xmm14
    7e7d:	66 41 0f 73 d4 38    	psrlq  $0x38,%xmm12
    7e83:	66 0f 67 ec          	packuswb %xmm4,%xmm5
    7e87:	66 0f 6f e1          	movdqa %xmm1,%xmm4
    7e8b:	66 0f 73 d1 38       	psrlq  $0x38,%xmm1
    7e90:	66 0f 73 d4 30       	psrlq  $0x30,%xmm4
    7e95:	41 0f c6 cc 88       	shufps $0x88,%xmm12,%xmm1
    7e9a:	0f c6 e7 88          	shufps $0x88,%xmm7,%xmm4
    7e9e:	66 41 0f 6f fa       	movdqa %xmm10,%xmm7
    7ea3:	66 41 0f 73 d2 38    	psrlq  $0x38,%xmm10
    7ea9:	66 0f 73 d7 30       	psrlq  $0x30,%xmm7
    7eae:	41 0f c6 fe 88       	shufps $0x88,%xmm14,%xmm7
    7eb3:	66 44 0f 6f f4       	movdqa %xmm4,%xmm14
    7eb8:	66 0f 61 e7          	punpcklwd %xmm7,%xmm4
    7ebc:	66 44 0f 69 f7       	punpckhwd %xmm7,%xmm14
    7ec1:	66 0f 6f fc          	movdqa %xmm4,%xmm7
    7ec5:	66 41 0f 69 fe       	punpckhwd %xmm14,%xmm7
    7eca:	66 41 0f 61 e6       	punpcklwd %xmm14,%xmm4
    7ecf:	f3 44 0f 6f 75 50    	movdqu 0x50(%rbp),%xmm14
    7ed5:	66 0f 61 e7          	punpcklwd %xmm7,%xmm4
    7ed9:	66 0f 6f fb          	movdqa %xmm3,%xmm7
    7edd:	66 41 0f 73 d6 30    	psrlq  $0x30,%xmm14
    7ee3:	66 0f 73 d7 30       	psrlq  $0x30,%xmm7
    7ee8:	66 41 0f db e3       	pand   %xmm11,%xmm4
    7eed:	41 0f c6 fe 88       	shufps $0x88,%xmm14,%xmm7
    7ef2:	66 45 0f 6f f1       	movdqa %xmm9,%xmm14
    7ef7:	66 0f 73 d3 38       	psrlq  $0x38,%xmm3
    7efc:	66 41 0f 73 d6 30    	psrlq  $0x30,%xmm14
    7f02:	66 41 0f 73 d1 38    	psrlq  $0x38,%xmm9
    7f08:	45 0f c6 f7 88       	shufps $0x88,%xmm15,%xmm14
    7f0d:	66 44 0f 6f ff       	movdqa %xmm7,%xmm15
    7f12:	66 41 0f 61 fe       	punpcklwd %xmm14,%xmm7
    7f17:	66 45 0f 69 fe       	punpckhwd %xmm14,%xmm15
    7f1c:	66 44 0f 6f f7       	movdqa %xmm7,%xmm14
    7f21:	66 45 0f 69 f7       	punpckhwd %xmm15,%xmm14
    7f26:	66 41 0f 61 ff       	punpcklwd %xmm15,%xmm7
    7f2b:	66 41 0f 61 fe       	punpcklwd %xmm14,%xmm7
    7f30:	66 41 0f db fb       	pand   %xmm11,%xmm7
    7f35:	66 0f 67 e7          	packuswb %xmm7,%xmm4
    7f39:	f3 0f 6f 7d 30       	movdqu 0x30(%rbp),%xmm7
    7f3e:	66 0f 73 d7 38       	psrlq  $0x38,%xmm7
    7f43:	44 0f c6 d7 88       	shufps $0x88,%xmm7,%xmm10
    7f48:	66 0f 6f f9          	movdqa %xmm1,%xmm7
    7f4c:	66 41 0f 61 ca       	punpcklwd %xmm10,%xmm1
    7f51:	66 41 0f 69 fa       	punpckhwd %xmm10,%xmm7
    7f56:	66 44 0f 6f d1       	movdqa %xmm1,%xmm10
    7f5b:	66 44 0f 69 d7       	punpckhwd %xmm7,%xmm10
    7f60:	66 0f 61 cf          	punpcklwd %xmm7,%xmm1
    7f64:	f3 0f 6f 7d 50       	movdqu 0x50(%rbp),%xmm7
    7f69:	66 41 0f 61 ca       	punpcklwd %xmm10,%xmm1
    7f6e:	66 0f 73 d7 38       	psrlq  $0x38,%xmm7
    7f73:	66 41 0f db cb       	pand   %xmm11,%xmm1
    7f78:	0f c6 df 88          	shufps $0x88,%xmm7,%xmm3
    7f7c:	f3 0f 6f 7d 70       	movdqu 0x70(%rbp),%xmm7
    7f81:	66 0f 73 d7 38       	psrlq  $0x38,%xmm7
    7f86:	44 0f c6 cf 88       	shufps $0x88,%xmm7,%xmm9
    7f8b:	66 0f 6f fb          	movdqa %xmm3,%xmm7
    7f8f:	66 41 0f 61 d9       	punpcklwd %xmm9,%xmm3
    7f94:	66 41 0f 69 f9       	punpckhwd %xmm9,%xmm7
    7f99:	66 44 0f 6f cb       	movdqa %xmm3,%xmm9
    7f9e:	66 44 0f 69 cf       	punpckhwd %xmm7,%xmm9
    7fa3:	66 0f 61 df          	punpcklwd %xmm7,%xmm3
    7fa7:	66 41 0f 6f fd       	movdqa %xmm13,%xmm7
    7fac:	66 41 0f 61 d9       	punpcklwd %xmm9,%xmm3
    7fb1:	66 0f 60 fc          	punpcklbw %xmm4,%xmm7
    7fb5:	66 44 0f 6f c8       	movdqa %xmm0,%xmm9
    7fba:	66 41 0f db db       	pand   %xmm11,%xmm3
    7fbf:	66 44 0f 68 ec       	punpckhbw %xmm4,%xmm13
    7fc4:	66 0f 67 cb          	packuswb %xmm3,%xmm1
    7fc8:	66 41 0f 6f d8       	movdqa %xmm8,%xmm3
    7fcd:	66 44 0f 68 c6       	punpckhbw %xmm6,%xmm8
    7fd2:	66 0f 60 de          	punpcklbw %xmm6,%xmm3
    7fd6:	66 0f 6f f2          	movdqa %xmm2,%xmm6
    7fda:	66 0f 68 d5          	punpckhbw %xmm5,%xmm2
    7fde:	66 0f 60 f5          	punpcklbw %xmm5,%xmm6
    7fe2:	66 0f 6f eb          	movdqa %xmm3,%xmm5
    7fe6:	66 0f 68 c1          	punpckhbw %xmm1,%xmm0
    7fea:	66 44 0f 60 c9       	punpcklbw %xmm1,%xmm9
    7fef:	66 0f 60 ef          	punpcklbw %xmm7,%xmm5
    7ff3:	66 0f 68 df          	punpckhbw %xmm7,%xmm3
    7ff7:	66 0f 6f ce          	movdqa %xmm6,%xmm1
    7ffb:	66 0f 6f fe          	movdqa %xmm6,%xmm7
    7fff:	66 0f 6f f2          	movdqa %xmm2,%xmm6
    8003:	66 0f 60 f0          	punpcklbw %xmm0,%xmm6
    8007:	66 0f 68 d0          	punpckhbw %xmm0,%xmm2
    800b:	66 41 0f 60 f9       	punpcklbw %xmm9,%xmm7
    8010:	66 0f 6f c5          	movdqa %xmm5,%xmm0
    8014:	66 0f 6f e3          	movdqa %xmm3,%xmm4
    8018:	66 41 0f 68 c9       	punpckhbw %xmm9,%xmm1
    801d:	66 0f 60 c7          	punpcklbw %xmm7,%xmm0
    8021:	66 41 0f 6f d8       	movdqa %xmm8,%xmm3
    8026:	66 45 0f 68 c5       	punpckhbw %xmm13,%xmm8
    802b:	0f 11 83 58 ff ff ff 	movups %xmm0,-0xa8(%rbx)
    8032:	66 0f 6f c4          	movdqa %xmm4,%xmm0
    8036:	66 41 0f 60 dd       	punpcklbw %xmm13,%xmm3
    803b:	66 0f 68 ef          	punpckhbw %xmm7,%xmm5
    803f:	66 0f 60 c1          	punpcklbw %xmm1,%xmm0
    8043:	66 0f 68 e1          	punpckhbw %xmm1,%xmm4
    8047:	0f 11 ab 68 ff ff ff 	movups %xmm5,-0x98(%rbx)
    804e:	0f 11 83 78 ff ff ff 	movups %xmm0,-0x88(%rbx)
    8055:	66 0f 6f c3          	movdqa %xmm3,%xmm0
    8059:	66 0f 68 de          	punpckhbw %xmm6,%xmm3
    805d:	66 0f 60 c6          	punpcklbw %xmm6,%xmm0
    8061:	0f 11 63 88          	movups %xmm4,-0x78(%rbx)
    8065:	0f 11 43 98          	movups %xmm0,-0x68(%rbx)
    8069:	66 41 0f 6f c0       	movdqa %xmm8,%xmm0
    806e:	66 44 0f 68 c2       	punpckhbw %xmm2,%xmm8
    8073:	66 0f 60 c2          	punpcklbw %xmm2,%xmm0
    8077:	0f 11 5b a8          	movups %xmm3,-0x58(%rbx)
    807b:	0f 11 43 b8          	movups %xmm0,-0x48(%rbx)
    807f:	44 0f 11 43 c8       	movups %xmm8,-0x38(%rbx)
    8084:	48 8b 85 80 00 00 00 	mov    0x80(%rbp),%rax
    808b:	48 89 c2             	mov    %rax,%rdx
    808e:	88 43 d8             	mov    %al,-0x28(%rbx)
    8091:	48 c1 ea 10          	shr    $0x10,%rdx
    8095:	88 63 d9             	mov    %ah,-0x27(%rbx)
    8098:	88 53 da             	mov    %dl,-0x26(%rbx)
    809b:	48 89 c2             	mov    %rax,%rdx
    809e:	48 c1 ea 18          	shr    $0x18,%rdx
    80a2:	88 53 db             	mov    %dl,-0x25(%rbx)
    80a5:	48 89 c2             	mov    %rax,%rdx
    80a8:	48 c1 ea 20          	shr    $0x20,%rdx
    80ac:	88 53 dc             	mov    %dl,-0x24(%rbx)
    80af:	48 89 c2             	mov    %rax,%rdx
    80b2:	48 c1 ea 28          	shr    $0x28,%rdx
    80b6:	88 53 dd             	mov    %dl,-0x23(%rbx)
    80b9:	48 89 c2             	mov    %rax,%rdx
    80bc:	48 c1 e8 38          	shr    $0x38,%rax
    80c0:	48 c1 ea 30          	shr    $0x30,%rdx
    80c4:	88 43 df             	mov    %al,-0x21(%rbx)
    80c7:	88 53 de             	mov    %dl,-0x22(%rbx)
    80ca:	48 8b 85 88 00 00 00 	mov    0x88(%rbp),%rax
    80d1:	48 89 c2             	mov    %rax,%rdx
    80d4:	88 43 e0             	mov    %al,-0x20(%rbx)
    80d7:	48 c1 ea 10          	shr    $0x10,%rdx
    80db:	88 63 e1             	mov    %ah,-0x1f(%rbx)
    80de:	88 53 e2             	mov    %dl,-0x1e(%rbx)
    80e1:	48 89 c2             	mov    %rax,%rdx
    80e4:	48 c1 ea 18          	shr    $0x18,%rdx
    80e8:	88 53 e3             	mov    %dl,-0x1d(%rbx)
    80eb:	48 89 c2             	mov    %rax,%rdx
    80ee:	48 c1 ea 20          	shr    $0x20,%rdx
    80f2:	88 53 e4             	mov    %dl,-0x1c(%rbx)
    80f5:	48 89 c2             	mov    %rax,%rdx
    80f8:	48 c1 ea 28          	shr    $0x28,%rdx
    80fc:	88 53 e5             	mov    %dl,-0x1b(%rbx)
    80ff:	48 89 c2             	mov    %rax,%rdx
    8102:	48 c1 e8 38          	shr    $0x38,%rax
    8106:	48 c1 ea 30          	shr    $0x30,%rdx
    810a:	88 43 e7             	mov    %al,-0x19(%rbx)
    810d:	88 53 e6             	mov    %dl,-0x1a(%rbx)
    8110:	48 8b 85 90 00 00 00 	mov    0x90(%rbp),%rax
    8117:	48 89 c2             	mov    %rax,%rdx
    811a:	88 43 e8             	mov    %al,-0x18(%rbx)
    811d:	48 c1 ea 10          	shr    $0x10,%rdx
    8121:	88 63 e9             	mov    %ah,-0x17(%rbx)
    8124:	88 53 ea             	mov    %dl,-0x16(%rbx)
    8127:	48 89 c2             	mov    %rax,%rdx
    812a:	48 c1 ea 18          	shr    $0x18,%rdx
    812e:	88 53 eb             	mov    %dl,-0x15(%rbx)
    8131:	48 89 c2             	mov    %rax,%rdx
    8134:	48 c1 ea 20          	shr    $0x20,%rdx
    8138:	88 53 ec             	mov    %dl,-0x14(%rbx)
    813b:	48 89 c2             	mov    %rax,%rdx
    813e:	48 c1 ea 28          	shr    $0x28,%rdx
    8142:	88 53 ed             	mov    %dl,-0x13(%rbx)
    8145:	48 89 c2             	mov    %rax,%rdx
    8148:	48 c1 e8 38          	shr    $0x38,%rax
    814c:	48 c1 ea 30          	shr    $0x30,%rdx
    8150:	88 43 ef             	mov    %al,-0x11(%rbx)
    8153:	88 53 ee             	mov    %dl,-0x12(%rbx)
    8156:	48 8b 85 98 00 00 00 	mov    0x98(%rbp),%rax
    815d:	48 89 c2             	mov    %rax,%rdx
    8160:	88 43 f0             	mov    %al,-0x10(%rbx)
    8163:	48 c1 ea 10          	shr    $0x10,%rdx
    8167:	88 63 f1             	mov    %ah,-0xf(%rbx)
    816a:	88 53 f2             	mov    %dl,-0xe(%rbx)
    816d:	48 89 c2             	mov    %rax,%rdx
    8170:	48 c1 ea 18          	shr    $0x18,%rdx
    8174:	88 53 f3             	mov    %dl,-0xd(%rbx)
    8177:	48 89 c2             	mov    %rax,%rdx
    817a:	48 c1 ea 20          	shr    $0x20,%rdx
    817e:	88 53 f4             	mov    %dl,-0xc(%rbx)
    8181:	48 89 c2             	mov    %rax,%rdx
    8184:	48 c1 ea 28          	shr    $0x28,%rdx
    8188:	88 53 f5             	mov    %dl,-0xb(%rbx)
    818b:	48 89 c2             	mov    %rax,%rdx
    818e:	48 c1 e8 38          	shr    $0x38,%rax
    8192:	48 c1 ea 30          	shr    $0x30,%rdx
    8196:	88 43 f7             	mov    %al,-0x9(%rbx)
    8199:	88 53 f6             	mov    %dl,-0xa(%rbx)
    819c:	48 8b 85 a0 00 00 00 	mov    0xa0(%rbp),%rax
    81a3:	48 89 43 f8          	mov    %rax,-0x8(%rbx)
    81a7:	49 83 ec 01          	sub    $0x1,%r12
    81ab:	74 45                	je     81f2 <pqcrystals_kyber_fips202_ref_shake128_squeezeblocks+0x6c2>
    81ad:	48 89 ef             	mov    %rbp,%rdi
    81b0:	e8 eb d9 ff ff       	call   5ba0 <KeccakF1600_StatePermute>
    81b5:	48 89 d8             	mov    %rbx,%rax
    81b8:	4c 29 e8             	sub    %r13,%rax
    81bb:	48 83 c0 07          	add    $0x7,%rax
    81bf:	48 83 f8 7e          	cmp    $0x7e,%rax
    81c3:	0f 87 9f f9 ff ff    	ja     7b68 <pqcrystals_kyber_fips202_ref_shake128_squeezeblocks+0x38>
    81c9:	31 c0                	xor    %eax,%eax
    81cb:	0f 1f 44 00 00       	nopl   0x0(%rax,%rax,1)
    81d0:	48 8b 54 05 00       	mov    0x0(%rbp,%rax,1),%rdx
    81d5:	48 89 14 03          	mov    %rdx,(%rbx,%rax,1)
    81d9:	48 83 c0 08          	add    $0x8,%rax
    81dd:	48 3d a8 00 00 00    	cmp    $0xa8,%rax
    81e3:	75 eb                	jne    81d0 <pqcrystals_kyber_fips202_ref_shake128_squeezeblocks+0x6a0>
    81e5:	48 81 c3 a8 00 00 00 	add    $0xa8,%rbx
    81ec:	49 83 ec 01          	sub    $0x1,%r12
    81f0:	75 bb                	jne    81ad <pqcrystals_kyber_fips202_ref_shake128_squeezeblocks+0x67d>
    81f2:	48 83 c4 08          	add    $0x8,%rsp
    81f6:	5b                   	pop    %rbx
    81f7:	5d                   	pop    %rbp
    81f8:	41 5c                	pop    %r12
    81fa:	41 5d                	pop    %r13
    81fc:	c3                   	ret    
    81fd:	c3                   	ret    
    81fe:	66 90                	xchg   %ax,%ax

0000000000008200 <pqcrystals_kyber_fips202_ref_shake256_init>:
    8200:	f3 0f 1e fa          	endbr64 
    8204:	48 c7 07 00 00 00 00 	movq   $0x0,(%rdi)
    820b:	48 89 fa             	mov    %rdi,%rdx
    820e:	48 8d 7f 08          	lea    0x8(%rdi),%rdi
    8212:	31 c0                	xor    %eax,%eax
    8214:	48 c7 87 b8 00 00 00 	movq   $0x0,0xb8(%rdi)
    821b:	00 00 00 00 
    821f:	48 89 d1             	mov    %rdx,%rcx
    8222:	48 83 e7 f8          	and    $0xfffffffffffffff8,%rdi
    8226:	48 29 f9             	sub    %rdi,%rcx
    8229:	81 c1 c8 00 00 00    	add    $0xc8,%ecx
    822f:	c1 e9 03             	shr    $0x3,%ecx
    8232:	f3 48 ab             	rep stos %rax,%es:(%rdi)
    8235:	c7 82 c8 00 00 00 00 	movl   $0x0,0xc8(%rdx)
    823c:	00 00 00 
    823f:	c3                   	ret    

0000000000008240 <pqcrystals_kyber_fips202_ref_shake256_absorb>:
    8240:	f3 0f 1e fa          	endbr64 
    8244:	41 54                	push   %r12
    8246:	49 89 d4             	mov    %rdx,%r12
    8249:	55                   	push   %rbp
    824a:	48 89 f5             	mov    %rsi,%rbp
    824d:	53                   	push   %rbx
    824e:	8b 87 c8 00 00 00    	mov    0xc8(%rdi),%eax
    8254:	48 89 fb             	mov    %rdi,%rbx
    8257:	48 01 c2             	add    %rax,%rdx
    825a:	49 89 c0             	mov    %rax,%r8
    825d:	48 81 fa 87 00 00 00 	cmp    $0x87,%rdx
    8264:	0f 86 c4 00 00 00    	jbe    832e <pqcrystals_kyber_fips202_ref_shake256_absorb+0xee>
    826a:	41 b9 88 00 00 00    	mov    $0x88,%r9d
    8270:	41 29 c1             	sub    %eax,%r9d
    8273:	3d 87 00 00 00       	cmp    $0x87,%eax
    8278:	77 55                	ja     82cf <pqcrystals_kyber_fips202_ref_shake256_absorb+0x8f>
    827a:	66 0f 1f 44 00 00    	nopw   0x0(%rax,%rax,1)
    8280:	44 89 c0             	mov    %r8d,%eax
    8283:	48 89 ef             	mov    %rbp,%rdi
    8286:	66 2e 0f 1f 84 00 00 	cs nopw 0x0(%rax,%rax,1)
    828d:	00 00 00 
    8290:	89 c1                	mov    %eax,%ecx
    8292:	89 c2                	mov    %eax,%edx
    8294:	0f b6 37             	movzbl (%rdi),%esi
    8297:	83 c0 01             	add    $0x1,%eax
    829a:	83 e1 07             	and    $0x7,%ecx
    829d:	c1 ea 03             	shr    $0x3,%edx
    82a0:	48 83 c7 01          	add    $0x1,%rdi
    82a4:	c1 e1 03             	shl    $0x3,%ecx
    82a7:	48 d3 e6             	shl    %cl,%rsi
    82aa:	48 31 34 d3          	xor    %rsi,(%rbx,%rdx,8)
    82ae:	3d 88 00 00 00       	cmp    $0x88,%eax
    82b3:	75 db                	jne    8290 <pqcrystals_kyber_fips202_ref_shake256_absorb+0x50>
    82b5:	44 29 c0             	sub    %r8d,%eax
    82b8:	41 83 c0 01          	add    $0x1,%r8d
    82bc:	ba 01 00 00 00       	mov    $0x1,%edx
    82c1:	41 81 f8 88 00 00 00 	cmp    $0x88,%r8d
    82c8:	48 0f 47 c2          	cmova  %rdx,%rax
    82cc:	48 01 c5             	add    %rax,%rbp
    82cf:	4d 29 cc             	sub    %r9,%r12
    82d2:	48 89 df             	mov    %rbx,%rdi
    82d5:	e8 c6 d8 ff ff       	call   5ba0 <KeccakF1600_StatePermute>
    82da:	45 31 c0             	xor    %r8d,%r8d
    82dd:	41 b9 88 00 00 00    	mov    $0x88,%r9d
    82e3:	31 c0                	xor    %eax,%eax
    82e5:	49 81 fc 87 00 00 00 	cmp    $0x87,%r12
    82ec:	77 92                	ja     8280 <pqcrystals_kyber_fips202_ref_shake256_absorb+0x40>
    82ee:	49 39 c4             	cmp    %rax,%r12
    82f1:	76 2f                	jbe    8322 <pqcrystals_kyber_fips202_ref_shake256_absorb+0xe2>
    82f3:	0f 1f 44 00 00       	nopl   0x0(%rax,%rax,1)
    82f8:	44 89 c1             	mov    %r8d,%ecx
    82fb:	44 89 c0             	mov    %r8d,%eax
    82fe:	0f b6 55 00          	movzbl 0x0(%rbp),%edx
    8302:	48 83 c5 01          	add    $0x1,%rbp
    8306:	83 e1 07             	and    $0x7,%ecx
    8309:	c1 e8 03             	shr    $0x3,%eax
    830c:	c1 e1 03             	shl    $0x3,%ecx
    830f:	48 d3 e2             	shl    %cl,%rdx
    8312:	48 31 14 c3          	xor    %rdx,(%rbx,%rax,8)
    8316:	41 8d 40 01          	lea    0x1(%r8),%eax
    831a:	49 89 c0             	mov    %rax,%r8
    831d:	4c 39 e0             	cmp    %r12,%rax
    8320:	72 d6                	jb     82f8 <pqcrystals_kyber_fips202_ref_shake256_absorb+0xb8>
    8322:	44 89 83 c8 00 00 00 	mov    %r8d,0xc8(%rbx)
    8329:	5b                   	pop    %rbx
    832a:	5d                   	pop    %rbp
    832b:	41 5c                	pop    %r12
    832d:	c3                   	ret    
    832e:	49 89 d4             	mov    %rdx,%r12
    8331:	eb bb                	jmp    82ee <pqcrystals_kyber_fips202_ref_shake256_absorb+0xae>
    8333:	66 66 2e 0f 1f 84 00 	data16 cs nopw 0x0(%rax,%rax,1)
    833a:	00 00 00 00 
    833e:	66 90                	xchg   %ax,%ax

0000000000008340 <pqcrystals_kyber_fips202_ref_shake256_finalize>:
    8340:	f3 0f 1e fa          	endbr64 
    8344:	8b 8f c8 00 00 00    	mov    0xc8(%rdi),%ecx
    834a:	ba 1f 00 00 00       	mov    $0x1f,%edx
    834f:	89 c8                	mov    %ecx,%eax
    8351:	83 e1 07             	and    $0x7,%ecx
    8354:	c1 e8 03             	shr    $0x3,%eax
    8357:	c1 e1 03             	shl    $0x3,%ecx
    835a:	48 d3 e2             	shl    %cl,%rdx
    835d:	48 31 14 c7          	xor    %rdx,(%rdi,%rax,8)
    8361:	c7 87 c8 00 00 00 88 	movl   $0x88,0xc8(%rdi)
    8368:	00 00 00 
    836b:	48 0f ba bf 80 00 00 	btcq   $0x3f,0x80(%rdi)
    8372:	00 3f 
    8374:	c3                   	ret    
    8375:	66 66 2e 0f 1f 84 00 	data16 cs nopw 0x0(%rax,%rax,1)
    837c:	00 00 00 00 

0000000000008380 <pqcrystals_kyber_fips202_ref_shake256_squeeze>:
    8380:	f3 0f 1e fa          	endbr64 
    8384:	41 54                	push   %r12
    8386:	55                   	push   %rbp
    8387:	48 89 d5             	mov    %rdx,%rbp
    838a:	53                   	push   %rbx
    838b:	44 8b 8a c8 00 00 00 	mov    0xc8(%rdx),%r9d
    8392:	48 85 f6             	test   %rsi,%rsi
    8395:	0f 84 c5 00 00 00    	je     8460 <pqcrystals_kyber_fips202_ref_shake256_squeeze+0xe0>
    839b:	48 89 fb             	mov    %rdi,%rbx
    839e:	49 89 f4             	mov    %rsi,%r12
    83a1:	41 81 f9 88 00 00 00 	cmp    $0x88,%r9d
    83a8:	0f 84 89 00 00 00    	je     8437 <pqcrystals_kyber_fips202_ref_shake256_squeeze+0xb7>
    83ae:	66 90                	xchg   %ax,%ax
    83b0:	41 81 f9 87 00 00 00 	cmp    $0x87,%r9d
    83b7:	0f 87 b3 00 00 00    	ja     8470 <pqcrystals_kyber_fips202_ref_shake256_squeeze+0xf0>
    83bd:	44 89 c8             	mov    %r9d,%eax
    83c0:	49 8d 3c 04          	lea    (%r12,%rax,1),%rdi
    83c4:	48 39 f8             	cmp    %rdi,%rax
    83c7:	0f 83 a3 00 00 00    	jae    8470 <pqcrystals_kyber_fips202_ref_shake256_squeeze+0xf0>
    83cd:	48 89 de             	mov    %rbx,%rsi
    83d0:	44 89 ca             	mov    %r9d,%edx
    83d3:	45 8d 41 01          	lea    0x1(%r9),%r8d
    83d7:	eb 16                	jmp    83ef <pqcrystals_kyber_fips202_ref_shake256_squeeze+0x6f>
    83d9:	0f 1f 80 00 00 00 00 	nopl   0x0(%rax)
    83e0:	48 8d 46 ff          	lea    -0x1(%rsi),%rax
    83e4:	48 29 d8             	sub    %rbx,%rax
    83e7:	4c 01 c0             	add    %r8,%rax
    83ea:	48 39 c7             	cmp    %rax,%rdi
    83ed:	76 61                	jbe    8450 <pqcrystals_kyber_fips202_ref_shake256_squeeze+0xd0>
    83ef:	89 d0                	mov    %edx,%eax
    83f1:	89 d1                	mov    %edx,%ecx
    83f3:	48 83 c6 01          	add    $0x1,%rsi
    83f7:	83 c2 01             	add    $0x1,%edx
    83fa:	c1 e8 03             	shr    $0x3,%eax
    83fd:	83 e1 07             	and    $0x7,%ecx
    8400:	48 8b 44 c5 00       	mov    0x0(%rbp,%rax,8),%rax
    8405:	c1 e1 03             	shl    $0x3,%ecx
    8408:	48 d3 e8             	shr    %cl,%rax
    840b:	88 46 ff             	mov    %al,-0x1(%rsi)
    840e:	81 fa 88 00 00 00    	cmp    $0x88,%edx
    8414:	75 ca                	jne    83e0 <pqcrystals_kyber_fips202_ref_shake256_squeeze+0x60>
    8416:	44 29 ca             	sub    %r9d,%edx
    8419:	41 b9 88 00 00 00    	mov    $0x88,%r9d
    841f:	49 29 d4             	sub    %rdx,%r12
    8422:	4d 85 e4             	test   %r12,%r12
    8425:	74 39                	je     8460 <pqcrystals_kyber_fips202_ref_shake256_squeeze+0xe0>
    8427:	48 89 f3             	mov    %rsi,%rbx
    842a:	41 81 f9 88 00 00 00 	cmp    $0x88,%r9d
    8431:	0f 85 79 ff ff ff    	jne    83b0 <pqcrystals_kyber_fips202_ref_shake256_squeeze+0x30>
    8437:	48 89 ef             	mov    %rbp,%rdi
    843a:	e8 61 d7 ff ff       	call   5ba0 <KeccakF1600_StatePermute>
    843f:	4c 89 e7             	mov    %r12,%rdi
    8442:	45 31 c9             	xor    %r9d,%r9d
    8445:	eb 86                	jmp    83cd <pqcrystals_kyber_fips202_ref_shake256_squeeze+0x4d>
    8447:	66 0f 1f 84 00 00 00 	nopw   0x0(%rax,%rax,1)
    844e:	00 00 
    8450:	89 d0                	mov    %edx,%eax
    8452:	44 29 c8             	sub    %r9d,%eax
    8455:	41 89 d1             	mov    %edx,%r9d
    8458:	49 29 c4             	sub    %rax,%r12
    845b:	4d 85 e4             	test   %r12,%r12
    845e:	75 c7                	jne    8427 <pqcrystals_kyber_fips202_ref_shake256_squeeze+0xa7>
    8460:	5b                   	pop    %rbx
    8461:	44 89 8d c8 00 00 00 	mov    %r9d,0xc8(%rbp)
    8468:	5d                   	pop    %rbp
    8469:	41 5c                	pop    %r12
    846b:	c3                   	ret    
    846c:	0f 1f 40 00          	nopl   0x0(%rax)
    8470:	48 89 de             	mov    %rbx,%rsi
    8473:	eb b2                	jmp    8427 <pqcrystals_kyber_fips202_ref_shake256_squeeze+0xa7>
    8475:	66 66 2e 0f 1f 84 00 	data16 cs nopw 0x0(%rax,%rax,1)
    847c:	00 00 00 00 

0000000000008480 <pqcrystals_kyber_fips202_ref_shake256_absorb_once>:
    8480:	f3 0f 1e fa          	endbr64 
    8484:	53                   	push   %rbx
    8485:	48 89 d1             	mov    %rdx,%rcx
    8488:	48 89 fb             	mov    %rdi,%rbx
    848b:	48 89 f2             	mov    %rsi,%rdx
    848e:	41 b8 1f 00 00 00    	mov    $0x1f,%r8d
    8494:	be 88 00 00 00       	mov    $0x88,%esi
    8499:	e8 b2 df ff ff       	call   6450 <keccak_absorb_once.constprop.1>
    849e:	c7 83 c8 00 00 00 88 	movl   $0x88,0xc8(%rbx)
    84a5:	00 00 00 
    84a8:	5b                   	pop    %rbx
    84a9:	c3                   	ret    
    84aa:	66 0f 1f 44 00 00    	nopw   0x0(%rax,%rax,1)

00000000000084b0 <pqcrystals_kyber_fips202_ref_shake256_squeezeblocks>:
    84b0:	f3 0f 1e fa          	endbr64 
    84b4:	48 85 f6             	test   %rsi,%rsi
    84b7:	0f 84 a0 05 00 00    	je     8a5d <pqcrystals_kyber_fips202_ref_shake256_squeezeblocks+0x5ad>
    84bd:	41 55                	push   %r13
    84bf:	4c 8d 6a 08          	lea    0x8(%rdx),%r13
    84c3:	41 54                	push   %r12
    84c5:	49 89 f4             	mov    %rsi,%r12
    84c8:	55                   	push   %rbp
    84c9:	48 89 d5             	mov    %rdx,%rbp
    84cc:	53                   	push   %rbx
    84cd:	48 89 fb             	mov    %rdi,%rbx
    84d0:	48 83 ec 08          	sub    $0x8,%rsp
    84d4:	66 44 0f 6f 1d c3 2b 	movdqa 0x2bc3(%rip),%xmm11        # b0a0 <_IO_stdin_used+0xa0>
    84db:	00 00 
    84dd:	e9 2d 05 00 00       	jmp    8a0f <pqcrystals_kyber_fips202_ref_shake256_squeezeblocks+0x55f>
    84e2:	66 0f 1f 44 00 00    	nopw   0x0(%rax,%rax,1)
    84e8:	f3 44 0f 6f 55 20    	movdqu 0x20(%rbp),%xmm10
    84ee:	f3 0f 6f 55 30       	movdqu 0x30(%rbp),%xmm2
    84f3:	48 81 c3 88 00 00 00 	add    $0x88,%rbx
    84fa:	f3 0f 6f 5d 40       	movdqu 0x40(%rbp),%xmm3
    84ff:	f3 0f 6f 4d 00       	movdqu 0x0(%rbp),%xmm1
    8504:	66 45 0f 6f f2       	movdqa %xmm10,%xmm14
    8509:	f3 44 0f 6f 4d 60    	movdqu 0x60(%rbp),%xmm9
    850f:	f3 44 0f 6f 65 10    	movdqu 0x10(%rbp),%xmm12
    8515:	44 0f c6 f2 88       	shufps $0x88,%xmm2,%xmm14
    851a:	f3 0f 6f 55 50       	movdqu 0x50(%rbp),%xmm2
    851f:	66 0f 6f e3          	movdqa %xmm3,%xmm4
    8523:	66 0f 6f c1          	movdqa %xmm1,%xmm0
    8527:	66 41 0f 6f f9       	movdqa %xmm9,%xmm7
    852c:	41 0f c6 c4 88       	shufps $0x88,%xmm12,%xmm0
    8531:	66 0f 6f e8          	movdqa %xmm0,%xmm5
    8535:	66 45 0f 6f ee       	movdqa %xmm14,%xmm13
    853a:	0f c6 e2 88          	shufps $0x88,%xmm2,%xmm4
    853e:	f3 0f 6f 55 70       	movdqu 0x70(%rbp),%xmm2
    8543:	66 41 0f 69 ee       	punpckhwd %xmm14,%xmm5
    8548:	66 41 0f 72 d5 10    	psrld  $0x10,%xmm13
    854e:	0f c6 fa 88          	shufps $0x88,%xmm2,%xmm7
    8552:	66 0f 6f d0          	movdqa %xmm0,%xmm2
    8556:	66 44 0f 6f ff       	movdqa %xmm7,%xmm15
    855b:	66 41 0f 61 d6       	punpcklwd %xmm14,%xmm2
    8560:	66 41 0f 72 d7 10    	psrld  $0x10,%xmm15
    8566:	66 0f 6f f2          	movdqa %xmm2,%xmm6
    856a:	66 41 0f 72 d6 18    	psrld  $0x18,%xmm14
    8570:	66 0f 61 d5          	punpcklwd %xmm5,%xmm2
    8574:	66 0f 69 f5          	punpckhwd %xmm5,%xmm6
    8578:	66 0f 6f ec          	movdqa %xmm4,%xmm5
    857c:	66 0f 61 d6          	punpcklwd %xmm6,%xmm2
    8580:	66 0f 61 ef          	punpcklwd %xmm7,%xmm5
    8584:	66 0f 6f f4          	movdqa %xmm4,%xmm6
    8588:	66 0f 69 f7          	punpckhwd %xmm7,%xmm6
    858c:	66 0f 72 d7 18       	psrld  $0x18,%xmm7
    8591:	66 44 0f 6f c5       	movdqa %xmm5,%xmm8
    8596:	66 44 0f 69 c6       	punpckhwd %xmm6,%xmm8
    859b:	66 0f 61 ee          	punpcklwd %xmm6,%xmm5
    859f:	66 41 0f 6f f3       	movdqa %xmm11,%xmm6
    85a4:	66 41 0f 61 e8       	punpcklwd %xmm8,%xmm5
    85a9:	66 45 0f 6f c3       	movdqa %xmm11,%xmm8
    85ae:	66 0f db f5          	pand   %xmm5,%xmm6
    85b2:	66 0f 71 d5 08       	psrlw  $0x8,%xmm5
    85b7:	66 44 0f db c2       	pand   %xmm2,%xmm8
    85bc:	66 44 0f 67 c6       	packuswb %xmm6,%xmm8
    85c1:	66 0f 71 d2 08       	psrlw  $0x8,%xmm2
    85c6:	66 0f 6f f0          	movdqa %xmm0,%xmm6
    85ca:	66 41 0f db eb       	pand   %xmm11,%xmm5
    85cf:	66 0f 72 d6 10       	psrld  $0x10,%xmm6
    85d4:	66 41 0f db d3       	pand   %xmm11,%xmm2
    85d9:	66 0f 67 d5          	packuswb %xmm5,%xmm2
    85dd:	66 0f 72 d0 18       	psrld  $0x18,%xmm0
    85e2:	66 0f 6f ee          	movdqa %xmm6,%xmm5
    85e6:	66 41 0f 61 f5       	punpcklwd %xmm13,%xmm6
    85eb:	66 41 0f 69 ed       	punpckhwd %xmm13,%xmm5
    85f0:	66 44 0f 6f ee       	movdqa %xmm6,%xmm13
    85f5:	66 0f 61 f5          	punpcklwd %xmm5,%xmm6
    85f9:	66 44 0f 69 ed       	punpckhwd %xmm5,%xmm13
    85fe:	66 0f 6f ec          	movdqa %xmm4,%xmm5
    8602:	66 0f 72 d5 10       	psrld  $0x10,%xmm5
    8607:	66 0f 72 d4 18       	psrld  $0x18,%xmm4
    860c:	66 41 0f 61 f5       	punpcklwd %xmm13,%xmm6
    8611:	66 44 0f 6f ed       	movdqa %xmm5,%xmm13
    8616:	66 41 0f 61 ef       	punpcklwd %xmm15,%xmm5
    861b:	66 41 0f db f3       	pand   %xmm11,%xmm6
    8620:	66 45 0f 69 ef       	punpckhwd %xmm15,%xmm13
    8625:	66 44 0f 6f fd       	movdqa %xmm5,%xmm15
    862a:	66 45 0f 69 fd       	punpckhwd %xmm13,%xmm15
    862f:	66 41 0f 61 ed       	punpcklwd %xmm13,%xmm5
    8634:	66 44 0f 6f ee       	movdqa %xmm6,%xmm13
    8639:	66 41 0f 61 ef       	punpcklwd %xmm15,%xmm5
    863e:	f3 44 0f 6f 7d 70    	movdqu 0x70(%rbp),%xmm15
    8644:	66 41 0f db eb       	pand   %xmm11,%xmm5
    8649:	66 44 0f 67 ed       	packuswb %xmm5,%xmm13
    864e:	66 41 0f 73 d7 30    	psrlq  $0x30,%xmm15
    8654:	66 0f 6f e8          	movdqa %xmm0,%xmm5
    8658:	66 41 0f 61 c6       	punpcklwd %xmm14,%xmm0
    865d:	66 41 0f 69 ee       	punpckhwd %xmm14,%xmm5
    8662:	f3 44 0f 6f 75 70    	movdqu 0x70(%rbp),%xmm14
    8668:	66 0f 6f f0          	movdqa %xmm0,%xmm6
    866c:	66 0f 61 c5          	punpcklwd %xmm5,%xmm0
    8670:	66 0f 69 f5          	punpckhwd %xmm5,%xmm6
    8674:	66 41 0f 73 d6 28    	psrlq  $0x28,%xmm14
    867a:	66 0f 6f ec          	movdqa %xmm4,%xmm5
    867e:	66 0f 61 e7          	punpcklwd %xmm7,%xmm4
    8682:	66 0f 69 ef          	punpckhwd %xmm7,%xmm5
    8686:	66 0f 61 c6          	punpcklwd %xmm6,%xmm0
    868a:	f3 0f 6f 7d 70       	movdqu 0x70(%rbp),%xmm7
    868f:	66 0f 6f f4          	movdqa %xmm4,%xmm6
    8693:	66 0f 61 e5          	punpcklwd %xmm5,%xmm4
    8697:	66 41 0f db c3       	pand   %xmm11,%xmm0
    869c:	66 0f 69 f5          	punpckhwd %xmm5,%xmm6
    86a0:	f3 0f 6f 6d 30       	movdqu 0x30(%rbp),%xmm5
    86a5:	66 0f 73 d7 20       	psrlq  $0x20,%xmm7
    86aa:	66 0f 61 e6          	punpcklwd %xmm6,%xmm4
    86ae:	66 0f 6f f1          	movdqa %xmm1,%xmm6
    86b2:	66 0f 73 d6 20       	psrlq  $0x20,%xmm6
    86b7:	66 0f 73 d5 20       	psrlq  $0x20,%xmm5
    86bc:	66 41 0f db e3       	pand   %xmm11,%xmm4
    86c1:	66 0f 67 c4          	packuswb %xmm4,%xmm0
    86c5:	66 41 0f 6f e4       	movdqa %xmm12,%xmm4
    86ca:	66 0f 73 d4 20       	psrlq  $0x20,%xmm4
    86cf:	0f c6 f4 88          	shufps $0x88,%xmm4,%xmm6
    86d3:	66 41 0f 6f e2       	movdqa %xmm10,%xmm4
    86d8:	66 0f 73 d4 20       	psrlq  $0x20,%xmm4
    86dd:	0f c6 e5 88          	shufps $0x88,%xmm5,%xmm4
    86e1:	66 0f 6f ee          	movdqa %xmm6,%xmm5
    86e5:	66 0f 61 f4          	punpcklwd %xmm4,%xmm6
    86e9:	66 0f 69 ec          	punpckhwd %xmm4,%xmm5
    86ed:	66 0f 6f e6          	movdqa %xmm6,%xmm4
    86f1:	66 0f 69 e5          	punpckhwd %xmm5,%xmm4
    86f5:	66 0f 61 f5          	punpcklwd %xmm5,%xmm6
    86f9:	f3 0f 6f 6d 50       	movdqu 0x50(%rbp),%xmm5
    86fe:	66 0f 61 f4          	punpcklwd %xmm4,%xmm6
    8702:	66 0f 6f e3          	movdqa %xmm3,%xmm4
    8706:	66 0f 73 d5 20       	psrlq  $0x20,%xmm5
    870b:	66 0f 73 d4 20       	psrlq  $0x20,%xmm4
    8710:	66 41 0f db f3       	pand   %xmm11,%xmm6
    8715:	0f c6 e5 88          	shufps $0x88,%xmm5,%xmm4
    8719:	66 41 0f 6f e9       	movdqa %xmm9,%xmm5
    871e:	66 0f 73 d5 20       	psrlq  $0x20,%xmm5
    8723:	0f c6 ef 88          	shufps $0x88,%xmm7,%xmm5
    8727:	66 0f 6f fc          	movdqa %xmm4,%xmm7
    872b:	66 0f 61 e5          	punpcklwd %xmm5,%xmm4
    872f:	66 0f 69 fd          	punpckhwd %xmm5,%xmm7
    8733:	66 0f 6f ec          	movdqa %xmm4,%xmm5
    8737:	66 0f 69 ef          	punpckhwd %xmm7,%xmm5
    873b:	66 0f 61 e7          	punpcklwd %xmm7,%xmm4
    873f:	f3 0f 6f 7d 30       	movdqu 0x30(%rbp),%xmm7
    8744:	66 0f 61 e5          	punpcklwd %xmm5,%xmm4
    8748:	66 0f 6f e9          	movdqa %xmm1,%xmm5
    874c:	66 0f 73 d5 28       	psrlq  $0x28,%xmm5
    8751:	66 0f 73 d7 28       	psrlq  $0x28,%xmm7
    8756:	66 41 0f db e3       	pand   %xmm11,%xmm4
    875b:	66 0f 67 f4          	packuswb %xmm4,%xmm6
    875f:	66 41 0f 6f e4       	movdqa %xmm12,%xmm4
    8764:	66 0f 73 d4 28       	psrlq  $0x28,%xmm4
    8769:	0f c6 ec 88          	shufps $0x88,%xmm4,%xmm5
    876d:	66 41 0f 6f e2       	movdqa %xmm10,%xmm4
    8772:	66 0f 73 d4 28       	psrlq  $0x28,%xmm4
    8777:	0f c6 e7 88          	shufps $0x88,%xmm7,%xmm4
    877b:	66 0f 6f fd          	movdqa %xmm5,%xmm7
    877f:	66 0f 61 ec          	punpcklwd %xmm4,%xmm5
    8783:	66 0f 69 fc          	punpckhwd %xmm4,%xmm7
    8787:	66 0f 6f e5          	movdqa %xmm5,%xmm4
    878b:	66 0f 69 e7          	punpckhwd %xmm7,%xmm4
    878f:	66 0f 61 ef          	punpcklwd %xmm7,%xmm5
    8793:	f3 0f 6f 7d 50       	movdqu 0x50(%rbp),%xmm7
    8798:	66 0f 61 ec          	punpcklwd %xmm4,%xmm5
    879c:	66 0f 6f e3          	movdqa %xmm3,%xmm4
    87a0:	66 0f 73 d7 28       	psrlq  $0x28,%xmm7
    87a5:	66 0f 73 d4 28       	psrlq  $0x28,%xmm4
    87aa:	66 41 0f db eb       	pand   %xmm11,%xmm5
    87af:	0f c6 e7 88          	shufps $0x88,%xmm7,%xmm4
    87b3:	66 41 0f 6f f9       	movdqa %xmm9,%xmm7
    87b8:	66 0f 73 d7 28       	psrlq  $0x28,%xmm7
    87bd:	41 0f c6 fe 88       	shufps $0x88,%xmm14,%xmm7
    87c2:	66 44 0f 6f f4       	movdqa %xmm4,%xmm14
    87c7:	66 0f 61 e7          	punpcklwd %xmm7,%xmm4
    87cb:	66 44 0f 69 f7       	punpckhwd %xmm7,%xmm14
    87d0:	66 0f 6f fc          	movdqa %xmm4,%xmm7
    87d4:	66 41 0f 69 fe       	punpckhwd %xmm14,%xmm7
    87d9:	66 41 0f 61 e6       	punpcklwd %xmm14,%xmm4
    87de:	f3 44 0f 6f 75 30    	movdqu 0x30(%rbp),%xmm14
    87e4:	66 0f 61 e7          	punpcklwd %xmm7,%xmm4
    87e8:	66 41 0f 6f fc       	movdqa %xmm12,%xmm7
    87ed:	66 0f 73 d7 30       	psrlq  $0x30,%xmm7
    87f2:	66 41 0f db e3       	pand   %xmm11,%xmm4
    87f7:	66 41 0f 73 d6 30    	psrlq  $0x30,%xmm14
    87fd:	66 41 0f 73 d4 38    	psrlq  $0x38,%xmm12
    8803:	66 0f 67 ec          	packuswb %xmm4,%xmm5
    8807:	66 0f 6f e1          	movdqa %xmm1,%xmm4
    880b:	66 0f 73 d1 38       	psrlq  $0x38,%xmm1
    8810:	66 0f 73 d4 30       	psrlq  $0x30,%xmm4
    8815:	41 0f c6 cc 88       	shufps $0x88,%xmm12,%xmm1
    881a:	0f c6 e7 88          	shufps $0x88,%xmm7,%xmm4
    881e:	66 41 0f 6f fa       	movdqa %xmm10,%xmm7
    8823:	66 41 0f 73 d2 38    	psrlq  $0x38,%xmm10
    8829:	66 0f 73 d7 30       	psrlq  $0x30,%xmm7
    882e:	41 0f c6 fe 88       	shufps $0x88,%xmm14,%xmm7
    8833:	66 44 0f 6f f4       	movdqa %xmm4,%xmm14
    8838:	66 0f 61 e7          	punpcklwd %xmm7,%xmm4
    883c:	66 44 0f 69 f7       	punpckhwd %xmm7,%xmm14
    8841:	66 0f 6f fc          	movdqa %xmm4,%xmm7
    8845:	66 41 0f 69 fe       	punpckhwd %xmm14,%xmm7
    884a:	66 41 0f 61 e6       	punpcklwd %xmm14,%xmm4
    884f:	f3 44 0f 6f 75 50    	movdqu 0x50(%rbp),%xmm14
    8855:	66 0f 61 e7          	punpcklwd %xmm7,%xmm4
    8859:	66 0f 6f fb          	movdqa %xmm3,%xmm7
    885d:	66 41 0f 73 d6 30    	psrlq  $0x30,%xmm14
    8863:	66 0f 73 d7 30       	psrlq  $0x30,%xmm7
    8868:	66 41 0f db e3       	pand   %xmm11,%xmm4
    886d:	41 0f c6 fe 88       	shufps $0x88,%xmm14,%xmm7
    8872:	66 45 0f 6f f1       	movdqa %xmm9,%xmm14
    8877:	66 0f 73 d3 38       	psrlq  $0x38,%xmm3
    887c:	66 41 0f 73 d6 30    	psrlq  $0x30,%xmm14
    8882:	66 41 0f 73 d1 38    	psrlq  $0x38,%xmm9
    8888:	45 0f c6 f7 88       	shufps $0x88,%xmm15,%xmm14
    888d:	66 44 0f 6f ff       	movdqa %xmm7,%xmm15
    8892:	66 41 0f 61 fe       	punpcklwd %xmm14,%xmm7
    8897:	66 45 0f 69 fe       	punpckhwd %xmm14,%xmm15
    889c:	66 44 0f 6f f7       	movdqa %xmm7,%xmm14
    88a1:	66 45 0f 69 f7       	punpckhwd %xmm15,%xmm14
    88a6:	66 41 0f 61 ff       	punpcklwd %xmm15,%xmm7
    88ab:	66 41 0f 61 fe       	punpcklwd %xmm14,%xmm7
    88b0:	66 41 0f db fb       	pand   %xmm11,%xmm7
    88b5:	66 0f 67 e7          	packuswb %xmm7,%xmm4
    88b9:	f3 0f 6f 7d 30       	movdqu 0x30(%rbp),%xmm7
    88be:	66 0f 73 d7 38       	psrlq  $0x38,%xmm7
    88c3:	44 0f c6 d7 88       	shufps $0x88,%xmm7,%xmm10
    88c8:	66 0f 6f f9          	movdqa %xmm1,%xmm7
    88cc:	66 41 0f 61 ca       	punpcklwd %xmm10,%xmm1
    88d1:	66 41 0f 69 fa       	punpckhwd %xmm10,%xmm7
    88d6:	66 44 0f 6f d1       	movdqa %xmm1,%xmm10
    88db:	66 44 0f 69 d7       	punpckhwd %xmm7,%xmm10
    88e0:	66 0f 61 cf          	punpcklwd %xmm7,%xmm1
    88e4:	f3 0f 6f 7d 50       	movdqu 0x50(%rbp),%xmm7
    88e9:	66 41 0f 61 ca       	punpcklwd %xmm10,%xmm1
    88ee:	66 0f 73 d7 38       	psrlq  $0x38,%xmm7
    88f3:	66 41 0f db cb       	pand   %xmm11,%xmm1
    88f8:	0f c6 df 88          	shufps $0x88,%xmm7,%xmm3
    88fc:	f3 0f 6f 7d 70       	movdqu 0x70(%rbp),%xmm7
    8901:	66 0f 73 d7 38       	psrlq  $0x38,%xmm7
    8906:	44 0f c6 cf 88       	shufps $0x88,%xmm7,%xmm9
    890b:	66 0f 6f fb          	movdqa %xmm3,%xmm7
    890f:	66 41 0f 61 d9       	punpcklwd %xmm9,%xmm3
    8914:	66 41 0f 69 f9       	punpckhwd %xmm9,%xmm7
    8919:	66 44 0f 6f cb       	movdqa %xmm3,%xmm9
    891e:	66 44 0f 69 cf       	punpckhwd %xmm7,%xmm9
    8923:	66 0f 61 df          	punpcklwd %xmm7,%xmm3
    8927:	66 41 0f 6f fd       	movdqa %xmm13,%xmm7
    892c:	66 41 0f 61 d9       	punpcklwd %xmm9,%xmm3
    8931:	66 0f 60 fc          	punpcklbw %xmm4,%xmm7
    8935:	66 44 0f 6f c8       	movdqa %xmm0,%xmm9
    893a:	66 41 0f db db       	pand   %xmm11,%xmm3
    893f:	66 44 0f 68 ec       	punpckhbw %xmm4,%xmm13
    8944:	66 0f 67 cb          	packuswb %xmm3,%xmm1
    8948:	66 41 0f 6f d8       	movdqa %xmm8,%xmm3
    894d:	66 44 0f 68 c6       	punpckhbw %xmm6,%xmm8
    8952:	66 0f 60 de          	punpcklbw %xmm6,%xmm3
    8956:	66 0f 6f f2          	movdqa %xmm2,%xmm6
    895a:	66 0f 68 d5          	punpckhbw %xmm5,%xmm2
    895e:	66 0f 60 f5          	punpcklbw %xmm5,%xmm6
    8962:	66 0f 6f eb          	movdqa %xmm3,%xmm5
    8966:	66 0f 68 c1          	punpckhbw %xmm1,%xmm0
    896a:	66 44 0f 60 c9       	punpcklbw %xmm1,%xmm9
    896f:	66 0f 60 ef          	punpcklbw %xmm7,%xmm5
    8973:	66 0f 68 df          	punpckhbw %xmm7,%xmm3
    8977:	66 0f 6f ce          	movdqa %xmm6,%xmm1
    897b:	66 0f 6f fe          	movdqa %xmm6,%xmm7
    897f:	66 0f 6f f2          	movdqa %xmm2,%xmm6
    8983:	66 0f 60 f0          	punpcklbw %xmm0,%xmm6
    8987:	66 0f 68 d0          	punpckhbw %xmm0,%xmm2
    898b:	66 41 0f 60 f9       	punpcklbw %xmm9,%xmm7
    8990:	66 0f 6f c5          	movdqa %xmm5,%xmm0
    8994:	66 0f 6f e3          	movdqa %xmm3,%xmm4
    8998:	66 41 0f 68 c9       	punpckhbw %xmm9,%xmm1
    899d:	66 0f 60 c7          	punpcklbw %xmm7,%xmm0
    89a1:	66 41 0f 6f d8       	movdqa %xmm8,%xmm3
    89a6:	66 45 0f 68 c5       	punpckhbw %xmm13,%xmm8
    89ab:	0f 11 83 78 ff ff ff 	movups %xmm0,-0x88(%rbx)
    89b2:	66 0f 6f c4          	movdqa %xmm4,%xmm0
    89b6:	66 41 0f 60 dd       	punpcklbw %xmm13,%xmm3
    89bb:	66 0f 68 ef          	punpckhbw %xmm7,%xmm5
    89bf:	66 0f 60 c1          	punpcklbw %xmm1,%xmm0
    89c3:	66 0f 68 e1          	punpckhbw %xmm1,%xmm4
    89c7:	0f 11 6b 88          	movups %xmm5,-0x78(%rbx)
    89cb:	0f 11 43 98          	movups %xmm0,-0x68(%rbx)
    89cf:	66 0f 6f c3          	movdqa %xmm3,%xmm0
    89d3:	66 0f 68 de          	punpckhbw %xmm6,%xmm3
    89d7:	66 0f 60 c6          	punpcklbw %xmm6,%xmm0
    89db:	0f 11 63 a8          	movups %xmm4,-0x58(%rbx)
    89df:	0f 11 43 b8          	movups %xmm0,-0x48(%rbx)
    89e3:	66 41 0f 6f c0       	movdqa %xmm8,%xmm0
    89e8:	66 44 0f 68 c2       	punpckhbw %xmm2,%xmm8
    89ed:	66 0f 60 c2          	punpcklbw %xmm2,%xmm0
    89f1:	0f 11 5b c8          	movups %xmm3,-0x38(%rbx)
    89f5:	0f 11 43 d8          	movups %xmm0,-0x28(%rbx)
    89f9:	44 0f 11 43 e8       	movups %xmm8,-0x18(%rbx)
    89fe:	48 8b 85 80 00 00 00 	mov    0x80(%rbp),%rax
    8a05:	48 89 43 f8          	mov    %rax,-0x8(%rbx)
    8a09:	49 83 ec 01          	sub    $0x1,%r12
    8a0d:	74 43                	je     8a52 <pqcrystals_kyber_fips202_ref_shake256_squeezeblocks+0x5a2>
    8a0f:	48 89 ef             	mov    %rbp,%rdi
    8a12:	e8 89 d1 ff ff       	call   5ba0 <KeccakF1600_StatePermute>
    8a17:	48 89 d8             	mov    %rbx,%rax
    8a1a:	4c 29 e8             	sub    %r13,%rax
    8a1d:	48 83 c0 07          	add    $0x7,%rax
    8a21:	48 83 f8 7e          	cmp    $0x7e,%rax
    8a25:	0f 87 bd fa ff ff    	ja     84e8 <pqcrystals_kyber_fips202_ref_shake256_squeezeblocks+0x38>
    8a2b:	31 c0                	xor    %eax,%eax
    8a2d:	0f 1f 00             	nopl   (%rax)
    8a30:	48 8b 54 05 00       	mov    0x0(%rbp,%rax,1),%rdx
    8a35:	48 89 14 03          	mov    %rdx,(%rbx,%rax,1)
    8a39:	48 83 c0 08          	add    $0x8,%rax
    8a3d:	48 3d 88 00 00 00    	cmp    $0x88,%rax
    8a43:	75 eb                	jne    8a30 <pqcrystals_kyber_fips202_ref_shake256_squeezeblocks+0x580>
    8a45:	48 81 c3 88 00 00 00 	add    $0x88,%rbx
    8a4c:	49 83 ec 01          	sub    $0x1,%r12
    8a50:	75 bd                	jne    8a0f <pqcrystals_kyber_fips202_ref_shake256_squeezeblocks+0x55f>
    8a52:	48 83 c4 08          	add    $0x8,%rsp
    8a56:	5b                   	pop    %rbx
    8a57:	5d                   	pop    %rbp
    8a58:	41 5c                	pop    %r12
    8a5a:	41 5d                	pop    %r13
    8a5c:	c3                   	ret    
    8a5d:	c3                   	ret    
    8a5e:	66 90                	xchg   %ax,%ax

0000000000008a60 <pqcrystals_kyber_fips202_ref_shake128>:
    8a60:	f3 0f 1e fa          	endbr64 
    8a64:	41 57                	push   %r15
    8a66:	41 b8 1f 00 00 00    	mov    $0x1f,%r8d
    8a6c:	41 56                	push   %r14
    8a6e:	41 55                	push   %r13
    8a70:	41 54                	push   %r12
    8a72:	55                   	push   %rbp
    8a73:	53                   	push   %rbx
    8a74:	48 89 f3             	mov    %rsi,%rbx
    8a77:	48 81 ec 28 01 00 00 	sub    $0x128,%rsp
    8a7e:	48 89 7c 24 28       	mov    %rdi,0x28(%rsp)
    8a83:	48 8d 7c 24 40       	lea    0x40(%rsp),%rdi
    8a88:	48 89 74 24 38       	mov    %rsi,0x38(%rsp)
    8a8d:	be a8 00 00 00       	mov    $0xa8,%esi
    8a92:	64 48 8b 04 25 28 00 	mov    %fs:0x28,%rax
    8a99:	00 00 
    8a9b:	48 89 84 24 18 01 00 	mov    %rax,0x118(%rsp)
    8aa2:	00 
    8aa3:	31 c0                	xor    %eax,%eax
    8aa5:	48 89 7c 24 18       	mov    %rdi,0x18(%rsp)
    8aaa:	e8 e1 e2 ff ff       	call   6d90 <keccak_absorb_once.constprop.2>
    8aaf:	48 89 d8             	mov    %rbx,%rax
    8ab2:	48 ba 31 0c c3 30 0c 	movabs $0xc30c30c30c30c31,%rdx
    8ab9:	c3 30 0c 
    8abc:	c7 84 24 08 01 00 00 	movl   $0xa8,0x108(%rsp)
    8ac3:	a8 00 00 00 
    8ac7:	48 c1 e8 03          	shr    $0x3,%rax
    8acb:	48 f7 e2             	mul    %rdx
    8ace:	48 89 54 24 30       	mov    %rdx,0x30(%rsp)
    8ad3:	48 81 fb a7 00 00 00 	cmp    $0xa7,%rbx
    8ada:	0f 86 a9 07 00 00    	jbe    9289 <pqcrystals_kyber_fips202_ref_shake128+0x829>
    8ae0:	48 89 54 24 20       	mov    %rdx,0x20(%rsp)
    8ae5:	4c 8b 74 24 28       	mov    0x28(%rsp),%r14
    8aea:	66 44 0f 6f 1d ad 25 	movdqa 0x25ad(%rip),%xmm11        # b0a0 <_IO_stdin_used+0xa0>
    8af1:	00 00 
    8af3:	0f 1f 44 00 00       	nopl   0x0(%rax,%rax,1)
    8af8:	48 8b 7c 24 18       	mov    0x18(%rsp),%rdi
    8afd:	e8 9e d0 ff ff       	call   5ba0 <KeccakF1600_StatePermute>
    8b02:	66 0f 6f 4c 24 40    	movdqa 0x40(%rsp),%xmm1
    8b08:	66 44 0f 6f 64 24 50 	movdqa 0x50(%rsp),%xmm12
    8b0f:	66 44 0f 6f 54 24 60 	movdqa 0x60(%rsp),%xmm10
    8b16:	48 8b 9c 24 c8 00 00 	mov    0xc8(%rsp),%rbx
    8b1d:	00 
    8b1e:	66 0f 6f c1          	movdqa %xmm1,%xmm0
    8b22:	48 8b b4 24 c0 00 00 	mov    0xc0(%rsp),%rsi
    8b29:	00 
    8b2a:	66 0f 6f 9c 24 80 00 	movdqa 0x80(%rsp),%xmm3
    8b31:	00 00 
    8b33:	41 0f c6 c4 88       	shufps $0x88,%xmm12,%xmm0
    8b38:	66 0f 6f d0          	movdqa %xmm0,%xmm2
    8b3c:	48 89 d8             	mov    %rbx,%rax
    8b3f:	49 89 da             	mov    %rbx,%r10
    8b42:	66 45 0f 6f f2       	movdqa %xmm10,%xmm14
    8b47:	66 0f 6f e8          	movdqa %xmm0,%xmm5
    8b4b:	66 0f 6f e3          	movdqa %xmm3,%xmm4
    8b4f:	49 89 f7             	mov    %rsi,%r15
    8b52:	48 c1 e8 10          	shr    $0x10,%rax
    8b56:	49 c1 ef 30          	shr    $0x30,%r15
    8b5a:	49 89 f5             	mov    %rsi,%r13
    8b5d:	49 89 f4             	mov    %rsi,%r12
    8b60:	44 0f c6 74 24 70 88 	shufps $0x88,0x70(%rsp),%xmm14
    8b67:	66 41 0f 61 d6       	punpcklwd %xmm14,%xmm2
    8b6c:	66 44 0f 6f 8c 24 a0 	movdqa 0xa0(%rsp),%xmm9
    8b73:	00 00 00 
    8b76:	66 41 0f 69 ee       	punpckhwd %xmm14,%xmm5
    8b7b:	66 0f 6f f2          	movdqa %xmm2,%xmm6
    8b7f:	66 0f 61 d5          	punpcklwd %xmm5,%xmm2
    8b83:	66 45 0f 6f ee       	movdqa %xmm14,%xmm13
    8b88:	48 89 f5             	mov    %rsi,%rbp
    8b8b:	66 0f 69 f5          	punpckhwd %xmm5,%xmm6
    8b8f:	66 41 0f 6f f9       	movdqa %xmm9,%xmm7
    8b94:	45 0f b6 ff          	movzbl %r15b,%r15d
    8b98:	49 89 f3             	mov    %rsi,%r11
    8b9b:	0f c6 a4 24 90 00 00 	shufps $0x88,0x90(%rsp),%xmm4
    8ba2:	00 88 
    8ba4:	66 0f 6f ec          	movdqa %xmm4,%xmm5
    8ba8:	66 0f 61 d6          	punpcklwd %xmm6,%xmm2
    8bac:	0f c6 bc 24 b0 00 00 	shufps $0x88,0xb0(%rsp),%xmm7
    8bb3:	00 88 
    8bb5:	66 0f 6f f4          	movdqa %xmm4,%xmm6
    8bb9:	66 0f 61 ef          	punpcklwd %xmm7,%xmm5
    8bbd:	66 44 0f 6f ff       	movdqa %xmm7,%xmm15
    8bc2:	49 89 d9             	mov    %rbx,%r9
    8bc5:	66 0f 69 f7          	punpckhwd %xmm7,%xmm6
    8bc9:	66 44 0f 6f c5       	movdqa %xmm5,%xmm8
    8bce:	49 c1 ed 28          	shr    $0x28,%r13
    8bd2:	49 89 d8             	mov    %rbx,%r8
    8bd5:	66 44 0f 69 c6       	punpckhwd %xmm6,%xmm8
    8bda:	66 0f 61 ee          	punpcklwd %xmm6,%xmm5
    8bde:	45 0f b6 ed          	movzbl %r13b,%r13d
    8be2:	48 89 df             	mov    %rbx,%rdi
    8be5:	66 41 0f 61 e8       	punpcklwd %xmm8,%xmm5
    8bea:	66 41 0f 6f f3       	movdqa %xmm11,%xmm6
    8bef:	49 c1 ec 20          	shr    $0x20,%r12
    8bf3:	66 45 0f 6f c3       	movdqa %xmm11,%xmm8
    8bf8:	66 0f db f5          	pand   %xmm5,%xmm6
    8bfc:	66 44 0f db c2       	pand   %xmm2,%xmm8
    8c01:	45 0f b6 e4          	movzbl %r12b,%r12d
    8c05:	48 8b 8c 24 d0 00 00 	mov    0xd0(%rsp),%rcx
    8c0c:	00 
    8c0d:	66 44 0f 67 c6       	packuswb %xmm6,%xmm8
    8c12:	66 0f 71 d2 08       	psrlw  $0x8,%xmm2
    8c17:	66 0f 6f f0          	movdqa %xmm0,%xmm6
    8c1b:	48 8b 94 24 d8 00 00 	mov    0xd8(%rsp),%rdx
    8c22:	00 
    8c23:	66 0f 71 d5 08       	psrlw  $0x8,%xmm5
    8c28:	66 41 0f 72 d5 10    	psrld  $0x10,%xmm13
    8c2e:	66 41 0f db d3       	pand   %xmm11,%xmm2
    8c33:	48 c1 ed 18          	shr    $0x18,%rbp
    8c37:	66 41 0f db eb       	pand   %xmm11,%xmm5
    8c3c:	66 0f 72 d6 10       	psrld  $0x10,%xmm6
    8c41:	40 0f b6 ed          	movzbl %bpl,%ebp
    8c45:	49 c1 eb 10          	shr    $0x10,%r11
    8c49:	66 0f 67 d5          	packuswb %xmm5,%xmm2
    8c4d:	66 0f 6f ee          	movdqa %xmm6,%xmm5
    8c51:	66 41 0f 61 f5       	punpcklwd %xmm13,%xmm6
    8c56:	49 c1 ea 30          	shr    $0x30,%r10
    8c5a:	66 41 0f 69 ed       	punpckhwd %xmm13,%xmm5
    8c5f:	66 44 0f 6f ee       	movdqa %xmm6,%xmm13
    8c64:	45 0f b6 d2          	movzbl %r10b,%r10d
    8c68:	49 c1 e9 28          	shr    $0x28,%r9
    8c6c:	66 44 0f 69 ed       	punpckhwd %xmm5,%xmm13
    8c71:	66 0f 61 f5          	punpcklwd %xmm5,%xmm6
    8c75:	66 0f 6f ec          	movdqa %xmm4,%xmm5
    8c79:	45 0f b6 c9          	movzbl %r9b,%r9d
    8c7d:	66 41 0f 72 d7 10    	psrld  $0x10,%xmm15
    8c83:	66 0f 72 d5 10       	psrld  $0x10,%xmm5
    8c88:	66 41 0f 61 f5       	punpcklwd %xmm13,%xmm6
    8c8d:	49 c1 e8 20          	shr    $0x20,%r8
    8c91:	66 44 0f 6f ed       	movdqa %xmm5,%xmm13
    8c96:	66 41 0f 61 ef       	punpcklwd %xmm15,%xmm5
    8c9b:	66 41 0f db f3       	pand   %xmm11,%xmm6
    8ca0:	45 0f b6 c0          	movzbl %r8b,%r8d
    8ca4:	66 45 0f 69 ef       	punpckhwd %xmm15,%xmm13
    8ca9:	66 44 0f 6f fd       	movdqa %xmm5,%xmm15
    8cae:	48 c1 ef 18          	shr    $0x18,%rdi
    8cb2:	66 45 0f 69 fd       	punpckhwd %xmm13,%xmm15
    8cb7:	66 41 0f 61 ed       	punpcklwd %xmm13,%xmm5
    8cbc:	66 44 0f 6f ee       	movdqa %xmm6,%xmm13
    8cc1:	40 0f b6 ff          	movzbl %dil,%edi
    8cc5:	66 41 0f 72 d6 18    	psrld  $0x18,%xmm14
    8ccb:	66 0f 72 d0 18       	psrld  $0x18,%xmm0
    8cd0:	66 41 0f 61 ef       	punpcklwd %xmm15,%xmm5
    8cd5:	66 44 0f 6f bc 24 b0 	movdqa 0xb0(%rsp),%xmm15
    8cdc:	00 00 00 
    8cdf:	66 0f 72 d7 18       	psrld  $0x18,%xmm7
    8ce4:	66 0f 72 d4 18       	psrld  $0x18,%xmm4
    8ce9:	66 41 0f db eb       	pand   %xmm11,%xmm5
    8cee:	66 44 0f 67 ed       	packuswb %xmm5,%xmm13
    8cf3:	66 41 0f 73 d7 30    	psrlq  $0x30,%xmm15
    8cf9:	66 0f 6f e8          	movdqa %xmm0,%xmm5
    8cfd:	66 41 0f 61 c6       	punpcklwd %xmm14,%xmm0
    8d02:	66 41 0f 69 ee       	punpckhwd %xmm14,%xmm5
    8d07:	66 44 0f 6f b4 24 b0 	movdqa 0xb0(%rsp),%xmm14
    8d0e:	00 00 00 
    8d11:	66 0f 6f f0          	movdqa %xmm0,%xmm6
    8d15:	66 0f 61 c5          	punpcklwd %xmm5,%xmm0
    8d19:	66 0f 69 f5          	punpckhwd %xmm5,%xmm6
    8d1d:	66 41 0f 73 d6 28    	psrlq  $0x28,%xmm14
    8d23:	66 0f 6f ec          	movdqa %xmm4,%xmm5
    8d27:	66 0f 61 e7          	punpcklwd %xmm7,%xmm4
    8d2b:	66 0f 69 ef          	punpckhwd %xmm7,%xmm5
    8d2f:	66 0f 61 c6          	punpcklwd %xmm6,%xmm0
    8d33:	66 0f 6f bc 24 b0 00 	movdqa 0xb0(%rsp),%xmm7
    8d3a:	00 00 
    8d3c:	66 0f 6f f4          	movdqa %xmm4,%xmm6
    8d40:	66 0f 61 e5          	punpcklwd %xmm5,%xmm4
    8d44:	66 41 0f db c3       	pand   %xmm11,%xmm0
    8d49:	66 0f 69 f5          	punpckhwd %xmm5,%xmm6
    8d4d:	66 0f 6f 6c 24 70    	movdqa 0x70(%rsp),%xmm5
    8d53:	66 0f 73 d7 20       	psrlq  $0x20,%xmm7
    8d58:	66 0f 61 e6          	punpcklwd %xmm6,%xmm4
    8d5c:	66 0f 6f f1          	movdqa %xmm1,%xmm6
    8d60:	66 0f 73 d6 20       	psrlq  $0x20,%xmm6
    8d65:	66 0f 73 d5 20       	psrlq  $0x20,%xmm5
    8d6a:	66 41 0f db e3       	pand   %xmm11,%xmm4
    8d6f:	66 0f 67 c4          	packuswb %xmm4,%xmm0
    8d73:	66 41 0f 6f e4       	movdqa %xmm12,%xmm4
    8d78:	66 0f 73 d4 20       	psrlq  $0x20,%xmm4
    8d7d:	0f c6 f4 88          	shufps $0x88,%xmm4,%xmm6
    8d81:	66 41 0f 6f e2       	movdqa %xmm10,%xmm4
    8d86:	66 0f 73 d4 20       	psrlq  $0x20,%xmm4
    8d8b:	0f c6 e5 88          	shufps $0x88,%xmm5,%xmm4
    8d8f:	66 0f 6f ee          	movdqa %xmm6,%xmm5
    8d93:	66 0f 61 f4          	punpcklwd %xmm4,%xmm6
    8d97:	66 0f 69 ec          	punpckhwd %xmm4,%xmm5
    8d9b:	66 0f 6f e6          	movdqa %xmm6,%xmm4
    8d9f:	66 0f 69 e5          	punpckhwd %xmm5,%xmm4
    8da3:	66 0f 61 f5          	punpcklwd %xmm5,%xmm6
    8da7:	66 0f 6f ac 24 90 00 	movdqa 0x90(%rsp),%xmm5
    8dae:	00 00 
    8db0:	66 0f 61 f4          	punpcklwd %xmm4,%xmm6
    8db4:	66 0f 6f e3          	movdqa %xmm3,%xmm4
    8db8:	66 0f 73 d5 20       	psrlq  $0x20,%xmm5
    8dbd:	66 0f 73 d4 20       	psrlq  $0x20,%xmm4
    8dc2:	66 41 0f db f3       	pand   %xmm11,%xmm6
    8dc7:	0f c6 e5 88          	shufps $0x88,%xmm5,%xmm4
    8dcb:	66 41 0f 6f e9       	movdqa %xmm9,%xmm5
    8dd0:	66 0f 73 d5 20       	psrlq  $0x20,%xmm5
    8dd5:	0f c6 ef 88          	shufps $0x88,%xmm7,%xmm5
    8dd9:	66 0f 6f fc          	movdqa %xmm4,%xmm7
    8ddd:	66 0f 61 e5          	punpcklwd %xmm5,%xmm4
    8de1:	66 0f 69 fd          	punpckhwd %xmm5,%xmm7
    8de5:	66 0f 6f ec          	movdqa %xmm4,%xmm5
    8de9:	66 0f 69 ef          	punpckhwd %xmm7,%xmm5
    8ded:	66 0f 61 e7          	punpcklwd %xmm7,%xmm4
    8df1:	66 0f 6f 7c 24 70    	movdqa 0x70(%rsp),%xmm7
    8df7:	66 0f 61 e5          	punpcklwd %xmm5,%xmm4
    8dfb:	66 0f 6f e9          	movdqa %xmm1,%xmm5
    8dff:	66 0f 73 d5 28       	psrlq  $0x28,%xmm5
    8e04:	66 0f 73 d7 28       	psrlq  $0x28,%xmm7
    8e09:	66 41 0f db e3       	pand   %xmm11,%xmm4
    8e0e:	66 0f 67 f4          	packuswb %xmm4,%xmm6
    8e12:	66 41 0f 6f e4       	movdqa %xmm12,%xmm4
    8e17:	66 0f 73 d4 28       	psrlq  $0x28,%xmm4
    8e1c:	0f c6 ec 88          	shufps $0x88,%xmm4,%xmm5
    8e20:	66 41 0f 6f e2       	movdqa %xmm10,%xmm4
    8e25:	66 0f 73 d4 28       	psrlq  $0x28,%xmm4
    8e2a:	0f c6 e7 88          	shufps $0x88,%xmm7,%xmm4
    8e2e:	66 0f 6f fd          	movdqa %xmm5,%xmm7
    8e32:	66 0f 61 ec          	punpcklwd %xmm4,%xmm5
    8e36:	66 0f 69 fc          	punpckhwd %xmm4,%xmm7
    8e3a:	66 0f 6f e5          	movdqa %xmm5,%xmm4
    8e3e:	66 0f 69 e7          	punpckhwd %xmm7,%xmm4
    8e42:	66 0f 61 ef          	punpcklwd %xmm7,%xmm5
    8e46:	66 0f 6f bc 24 90 00 	movdqa 0x90(%rsp),%xmm7
    8e4d:	00 00 
    8e4f:	66 0f 61 ec          	punpcklwd %xmm4,%xmm5
    8e53:	66 0f 6f e3          	movdqa %xmm3,%xmm4
    8e57:	66 0f 73 d7 28       	psrlq  $0x28,%xmm7
    8e5c:	66 0f 73 d4 28       	psrlq  $0x28,%xmm4
    8e61:	66 41 0f db eb       	pand   %xmm11,%xmm5
    8e66:	0f c6 e7 88          	shufps $0x88,%xmm7,%xmm4
    8e6a:	66 41 0f 6f f9       	movdqa %xmm9,%xmm7
    8e6f:	66 0f 73 d7 28       	psrlq  $0x28,%xmm7
    8e74:	41 0f c6 fe 88       	shufps $0x88,%xmm14,%xmm7
    8e79:	66 44 0f 6f f4       	movdqa %xmm4,%xmm14
    8e7e:	66 0f 61 e7          	punpcklwd %xmm7,%xmm4
    8e82:	66 44 0f 69 f7       	punpckhwd %xmm7,%xmm14
    8e87:	66 0f 6f fc          	movdqa %xmm4,%xmm7
    8e8b:	66 41 0f 69 fe       	punpckhwd %xmm14,%xmm7
    8e90:	66 41 0f 61 e6       	punpcklwd %xmm14,%xmm4
    8e95:	66 44 0f 6f 74 24 70 	movdqa 0x70(%rsp),%xmm14
    8e9c:	66 0f 61 e7          	punpcklwd %xmm7,%xmm4
    8ea0:	66 41 0f 6f fc       	movdqa %xmm12,%xmm7
    8ea5:	66 0f 73 d7 30       	psrlq  $0x30,%xmm7
    8eaa:	66 41 0f db e3       	pand   %xmm11,%xmm4
    8eaf:	66 41 0f 73 d6 30    	psrlq  $0x30,%xmm14
    8eb5:	66 41 0f 73 d4 38    	psrlq  $0x38,%xmm12
    8ebb:	66 0f 67 ec          	packuswb %xmm4,%xmm5
    8ebf:	66 0f 6f e1          	movdqa %xmm1,%xmm4
    8ec3:	66 0f 73 d1 38       	psrlq  $0x38,%xmm1
    8ec8:	66 0f 73 d4 30       	psrlq  $0x30,%xmm4
    8ecd:	41 0f c6 cc 88       	shufps $0x88,%xmm12,%xmm1
    8ed2:	0f c6 e7 88          	shufps $0x88,%xmm7,%xmm4
    8ed6:	66 41 0f 6f fa       	movdqa %xmm10,%xmm7
    8edb:	66 41 0f 73 d2 38    	psrlq  $0x38,%xmm10
    8ee1:	66 0f 73 d7 30       	psrlq  $0x30,%xmm7
    8ee6:	41 0f c6 fe 88       	shufps $0x88,%xmm14,%xmm7
    8eeb:	66 44 0f 6f f4       	movdqa %xmm4,%xmm14
    8ef0:	66 0f 61 e7          	punpcklwd %xmm7,%xmm4
    8ef4:	66 44 0f 69 f7       	punpckhwd %xmm7,%xmm14
    8ef9:	66 0f 6f fc          	movdqa %xmm4,%xmm7
    8efd:	66 41 0f 69 fe       	punpckhwd %xmm14,%xmm7
    8f02:	66 41 0f 61 e6       	punpcklwd %xmm14,%xmm4
    8f07:	66 44 0f 6f b4 24 90 	movdqa 0x90(%rsp),%xmm14
    8f0e:	00 00 00 
    8f11:	66 0f 61 e7          	punpcklwd %xmm7,%xmm4
    8f15:	66 0f 6f fb          	movdqa %xmm3,%xmm7
    8f19:	66 41 0f 73 d6 30    	psrlq  $0x30,%xmm14
    8f1f:	66 0f 73 d7 30       	psrlq  $0x30,%xmm7
    8f24:	66 41 0f db e3       	pand   %xmm11,%xmm4
    8f29:	41 0f c6 fe 88       	shufps $0x88,%xmm14,%xmm7
    8f2e:	66 45 0f 6f f1       	movdqa %xmm9,%xmm14
    8f33:	66 0f 73 d3 38       	psrlq  $0x38,%xmm3
    8f38:	66 41 0f 73 d6 30    	psrlq  $0x30,%xmm14
    8f3e:	66 41 0f 73 d1 38    	psrlq  $0x38,%xmm9
    8f44:	45 0f c6 f7 88       	shufps $0x88,%xmm15,%xmm14
    8f49:	66 44 0f 6f ff       	movdqa %xmm7,%xmm15
    8f4e:	66 41 0f 61 fe       	punpcklwd %xmm14,%xmm7
    8f53:	66 45 0f 69 fe       	punpckhwd %xmm14,%xmm15
    8f58:	66 44 0f 6f f7       	movdqa %xmm7,%xmm14
    8f5d:	66 45 0f 69 f7       	punpckhwd %xmm15,%xmm14
    8f62:	66 41 0f 61 ff       	punpcklwd %xmm15,%xmm7
    8f67:	66 41 0f 61 fe       	punpcklwd %xmm14,%xmm7
    8f6c:	66 41 0f db fb       	pand   %xmm11,%xmm7
    8f71:	66 0f 67 e7          	packuswb %xmm7,%xmm4
    8f75:	66 0f 6f 7c 24 70    	movdqa 0x70(%rsp),%xmm7
    8f7b:	66 0f 73 d7 38       	psrlq  $0x38,%xmm7
    8f80:	44 0f c6 d7 88       	shufps $0x88,%xmm7,%xmm10
    8f85:	66 0f 6f f9          	movdqa %xmm1,%xmm7
    8f89:	66 41 0f 61 ca       	punpcklwd %xmm10,%xmm1
    8f8e:	66 41 0f 69 fa       	punpckhwd %xmm10,%xmm7
    8f93:	66 44 0f 6f d1       	movdqa %xmm1,%xmm10
    8f98:	66 44 0f 69 d7       	punpckhwd %xmm7,%xmm10
    8f9d:	66 0f 61 cf          	punpcklwd %xmm7,%xmm1
    8fa1:	66 0f 6f bc 24 90 00 	movdqa 0x90(%rsp),%xmm7
    8fa8:	00 00 
    8faa:	66 41 0f 61 ca       	punpcklwd %xmm10,%xmm1
    8faf:	66 0f 73 d7 38       	psrlq  $0x38,%xmm7
    8fb4:	66 41 0f db cb       	pand   %xmm11,%xmm1
    8fb9:	0f c6 df 88          	shufps $0x88,%xmm7,%xmm3
    8fbd:	66 0f 6f bc 24 b0 00 	movdqa 0xb0(%rsp),%xmm7
    8fc4:	00 00 
    8fc6:	66 0f 73 d7 38       	psrlq  $0x38,%xmm7
    8fcb:	44 0f c6 cf 88       	shufps $0x88,%xmm7,%xmm9
    8fd0:	66 0f 6f fb          	movdqa %xmm3,%xmm7
    8fd4:	66 41 0f 61 d9       	punpcklwd %xmm9,%xmm3
    8fd9:	66 41 0f 69 f9       	punpckhwd %xmm9,%xmm7
    8fde:	66 44 0f 6f cb       	movdqa %xmm3,%xmm9
    8fe3:	66 44 0f 69 cf       	punpckhwd %xmm7,%xmm9
    8fe8:	66 0f 61 df          	punpcklwd %xmm7,%xmm3
    8fec:	66 41 0f 6f fd       	movdqa %xmm13,%xmm7
    8ff1:	66 41 0f 61 d9       	punpcklwd %xmm9,%xmm3
    8ff6:	66 0f 60 fc          	punpcklbw %xmm4,%xmm7
    8ffa:	66 44 0f 6f c8       	movdqa %xmm0,%xmm9
    8fff:	66 41 0f db db       	pand   %xmm11,%xmm3
    9004:	66 44 0f 68 ec       	punpckhbw %xmm4,%xmm13
    9009:	66 0f 67 cb          	packuswb %xmm3,%xmm1
    900d:	66 41 0f 6f d8       	movdqa %xmm8,%xmm3
    9012:	66 44 0f 68 c6       	punpckhbw %xmm6,%xmm8
    9017:	66 0f 60 de          	punpcklbw %xmm6,%xmm3
    901b:	66 0f 6f f2          	movdqa %xmm2,%xmm6
    901f:	66 0f 68 d5          	punpckhbw %xmm5,%xmm2
    9023:	66 0f 60 f5          	punpcklbw %xmm5,%xmm6
    9027:	66 0f 6f eb          	movdqa %xmm3,%xmm5
    902b:	66 0f 68 c1          	punpckhbw %xmm1,%xmm0
    902f:	66 44 0f 60 c9       	punpcklbw %xmm1,%xmm9
    9034:	66 0f 60 ef          	punpcklbw %xmm7,%xmm5
    9038:	66 0f 68 df          	punpckhbw %xmm7,%xmm3
    903c:	66 0f 6f ce          	movdqa %xmm6,%xmm1
    9040:	66 0f 6f fe          	movdqa %xmm6,%xmm7
    9044:	66 0f 6f f2          	movdqa %xmm2,%xmm6
    9048:	66 0f 60 f0          	punpcklbw %xmm0,%xmm6
    904c:	66 0f 68 d0          	punpckhbw %xmm0,%xmm2
    9050:	66 41 0f 60 f9       	punpcklbw %xmm9,%xmm7
    9055:	66 0f 6f c5          	movdqa %xmm5,%xmm0
    9059:	66 0f 6f e3          	movdqa %xmm3,%xmm4
    905d:	66 41 0f 68 c9       	punpckhbw %xmm9,%xmm1
    9062:	66 0f 60 c7          	punpcklbw %xmm7,%xmm0
    9066:	66 41 0f 6f d8       	movdqa %xmm8,%xmm3
    906b:	66 45 0f 68 c5       	punpckhbw %xmm13,%xmm8
    9070:	41 0f 11 06          	movups %xmm0,(%r14)
    9074:	66 0f 6f c4          	movdqa %xmm4,%xmm0
    9078:	66 0f 68 ef          	punpckhbw %xmm7,%xmm5
    907c:	66 0f 68 e1          	punpckhbw %xmm1,%xmm4
    9080:	66 41 0f 60 dd       	punpcklbw %xmm13,%xmm3
    9085:	66 0f 60 c1          	punpcklbw %xmm1,%xmm0
    9089:	41 0f 11 6e 10       	movups %xmm5,0x10(%r14)
    908e:	41 0f 11 46 20       	movups %xmm0,0x20(%r14)
    9093:	66 0f 6f c3          	movdqa %xmm3,%xmm0
    9097:	66 0f 68 de          	punpckhbw %xmm6,%xmm3
    909b:	66 0f 60 c6          	punpcklbw %xmm6,%xmm0
    909f:	41 0f 11 66 30       	movups %xmm4,0x30(%r14)
    90a4:	41 0f 11 46 40       	movups %xmm0,0x40(%r14)
    90a9:	66 41 0f 6f c0       	movdqa %xmm8,%xmm0
    90ae:	66 44 0f 68 c2       	punpckhbw %xmm2,%xmm8
    90b3:	66 0f 60 c2          	punpcklbw %xmm2,%xmm0
    90b7:	41 0f 11 5e 50       	movups %xmm3,0x50(%r14)
    90bc:	41 0f 11 46 60       	movups %xmm0,0x60(%r14)
    90c1:	45 0f 11 46 70       	movups %xmm8,0x70(%r14)
    90c6:	48 89 04 24          	mov    %rax,(%rsp)
    90ca:	48 89 f0             	mov    %rsi,%rax
    90cd:	48 c1 e8 38          	shr    $0x38,%rax
    90d1:	48 c1 e0 08          	shl    $0x8,%rax
    90d5:	4c 09 f8             	or     %r15,%rax
    90d8:	48 c1 e0 08          	shl    $0x8,%rax
    90dc:	4c 09 e8             	or     %r13,%rax
    90df:	49 89 cd             	mov    %rcx,%r13
    90e2:	48 c1 e0 08          	shl    $0x8,%rax
    90e6:	4c 09 e0             	or     %r12,%rax
    90e9:	49 89 cc             	mov    %rcx,%r12
    90ec:	48 c1 e0 08          	shl    $0x8,%rax
    90f0:	48 09 e8             	or     %rbp,%rax
    90f3:	41 0f b6 eb          	movzbl %r11b,%ebp
    90f7:	49 89 c3             	mov    %rax,%r11
    90fa:	48 89 f0             	mov    %rsi,%rax
    90fd:	40 0f b6 f6          	movzbl %sil,%esi
    9101:	49 c1 e3 08          	shl    $0x8,%r11
    9105:	0f b6 c4             	movzbl %ah,%eax
    9108:	49 09 eb             	or     %rbp,%r11
    910b:	48 89 cd             	mov    %rcx,%rbp
    910e:	49 c1 e3 08          	shl    $0x8,%r11
    9112:	49 09 c3             	or     %rax,%r11
    9115:	48 89 d8             	mov    %rbx,%rax
    9118:	48 c1 e8 38          	shr    $0x38,%rax
    911c:	49 c1 e3 08          	shl    $0x8,%r11
    9120:	48 c1 e0 08          	shl    $0x8,%rax
    9124:	4c 09 d0             	or     %r10,%rax
    9127:	49 89 d2             	mov    %rdx,%r10
    912a:	48 c1 e0 08          	shl    $0x8,%rax
    912e:	4c 09 c8             	or     %r9,%rax
    9131:	49 89 d1             	mov    %rdx,%r9
    9134:	48 c1 e0 08          	shl    $0x8,%rax
    9138:	4c 09 c0             	or     %r8,%rax
    913b:	49 89 d0             	mov    %rdx,%r8
    913e:	48 c1 e0 08          	shl    $0x8,%rax
    9142:	49 c1 ed 30          	shr    $0x30,%r13
    9146:	49 09 f3             	or     %rsi,%r11
    9149:	48 89 d6             	mov    %rdx,%rsi
    914c:	49 c1 ec 28          	shr    $0x28,%r12
    9150:	48 09 f8             	or     %rdi,%rax
    9153:	0f b6 3c 24          	movzbl (%rsp),%edi
    9157:	45 0f b6 ed          	movzbl %r13b,%r13d
    915b:	48 c1 e0 08          	shl    $0x8,%rax
    915f:	45 0f b6 e4          	movzbl %r12b,%r12d
    9163:	48 c1 ed 20          	shr    $0x20,%rbp
    9167:	4c 89 1c 24          	mov    %r11,(%rsp)
    916b:	48 09 f8             	or     %rdi,%rax
    916e:	0f b6 ff             	movzbl %bh,%edi
    9171:	0f b6 db             	movzbl %bl,%ebx
    9174:	40 0f b6 ed          	movzbl %bpl,%ebp
    9178:	48 c1 e0 08          	shl    $0x8,%rax
    917c:	49 89 cb             	mov    %rcx,%r11
    917f:	48 c1 ee 10          	shr    $0x10,%rsi
    9183:	49 c1 eb 10          	shr    $0x10,%r11
    9187:	48 09 f8             	or     %rdi,%rax
    918a:	48 89 d7             	mov    %rdx,%rdi
    918d:	49 c1 e8 20          	shr    $0x20,%r8
    9191:	48 c1 e0 08          	shl    $0x8,%rax
    9195:	48 c1 ef 18          	shr    $0x18,%rdi
    9199:	45 0f b6 c0          	movzbl %r8b,%r8d
    919d:	40 0f b6 f6          	movzbl %sil,%esi
    91a1:	49 c1 e9 28          	shr    $0x28,%r9
    91a5:	48 09 d8             	or     %rbx,%rax
    91a8:	48 89 cb             	mov    %rcx,%rbx
    91ab:	49 c1 ea 30          	shr    $0x30,%r10
    91af:	48 c1 eb 18          	shr    $0x18,%rbx
    91b3:	45 0f b6 d2          	movzbl %r10b,%r10d
    91b7:	45 0f b6 c9          	movzbl %r9b,%r9d
    91bb:	40 0f b6 ff          	movzbl %dil,%edi
    91bf:	48 89 44 24 08       	mov    %rax,0x8(%rsp)
    91c4:	48 89 c8             	mov    %rcx,%rax
    91c7:	0f b6 db             	movzbl %bl,%ebx
    91ca:	66 0f 6f 14 24       	movdqa (%rsp),%xmm2
    91cf:	48 c1 e8 38          	shr    $0x38,%rax
    91d3:	48 c1 e0 08          	shl    $0x8,%rax
    91d7:	41 0f 11 96 80 00 00 	movups %xmm2,0x80(%r14)
    91de:	00 
    91df:	4c 09 e8             	or     %r13,%rax
    91e2:	48 c1 e0 08          	shl    $0x8,%rax
    91e6:	4c 09 e0             	or     %r12,%rax
    91e9:	48 c1 e0 08          	shl    $0x8,%rax
    91ed:	48 09 e8             	or     %rbp,%rax
    91f0:	48 c1 e0 08          	shl    $0x8,%rax
    91f4:	48 09 d8             	or     %rbx,%rax
    91f7:	41 0f b6 db          	movzbl %r11b,%ebx
    91fb:	48 c1 e0 08          	shl    $0x8,%rax
    91ff:	49 89 c3             	mov    %rax,%r11
    9202:	0f b6 c5             	movzbl %ch,%eax
    9205:	0f b6 c9             	movzbl %cl,%ecx
    9208:	49 09 db             	or     %rbx,%r11
    920b:	49 c1 e3 08          	shl    $0x8,%r11
    920f:	49 09 c3             	or     %rax,%r11
    9212:	48 89 d0             	mov    %rdx,%rax
    9215:	49 c1 e3 08          	shl    $0x8,%r11
    9219:	48 c1 e8 38          	shr    $0x38,%rax
    921d:	49 81 c6 a8 00 00 00 	add    $0xa8,%r14
    9224:	48 c1 e0 08          	shl    $0x8,%rax
    9228:	49 09 cb             	or     %rcx,%r11
    922b:	4c 09 d0             	or     %r10,%rax
    922e:	4c 89 1c 24          	mov    %r11,(%rsp)
    9232:	48 c1 e0 08          	shl    $0x8,%rax
    9236:	4c 09 c8             	or     %r9,%rax
    9239:	48 c1 e0 08          	shl    $0x8,%rax
    923d:	4c 09 c0             	or     %r8,%rax
    9240:	48 c1 e0 08          	shl    $0x8,%rax
    9244:	48 09 f8             	or     %rdi,%rax
    9247:	48 c1 e0 08          	shl    $0x8,%rax
    924b:	48 09 f0             	or     %rsi,%rax
    924e:	0f b6 f6             	movzbl %dh,%esi
    9251:	0f b6 d2             	movzbl %dl,%edx
    9254:	48 c1 e0 08          	shl    $0x8,%rax
    9258:	48 09 f0             	or     %rsi,%rax
    925b:	48 c1 e0 08          	shl    $0x8,%rax
    925f:	48 09 d0             	or     %rdx,%rax
    9262:	48 89 44 24 08       	mov    %rax,0x8(%rsp)
    9267:	48 8b 84 24 e0 00 00 	mov    0xe0(%rsp),%rax
    926e:	00 
    926f:	66 0f 6f 14 24       	movdqa (%rsp),%xmm2
    9274:	49 89 46 f8          	mov    %rax,-0x8(%r14)
    9278:	41 0f 11 56 e8       	movups %xmm2,-0x18(%r14)
    927d:	48 83 6c 24 20 01    	subq   $0x1,0x20(%rsp)
    9283:	0f 85 6f f8 ff ff    	jne    8af8 <pqcrystals_kyber_fips202_ref_shake128+0x98>
    9289:	48 8b 7c 24 38       	mov    0x38(%rsp),%rdi
    928e:	48 8b 5c 24 30       	mov    0x30(%rsp),%rbx
    9293:	48 b9 31 0c c3 30 0c 	movabs $0xc30c30c30c30c31,%rcx
    929a:	c3 30 0c 
    929d:	41 b8 a8 00 00 00    	mov    $0xa8,%r8d
    92a3:	4c 8b 64 24 18       	mov    0x18(%rsp),%r12
    92a8:	48 89 fa             	mov    %rdi,%rdx
    92ab:	48 c1 ea 03          	shr    $0x3,%rdx
    92af:	48 89 d0             	mov    %rdx,%rax
    92b2:	48 f7 e1             	mul    %rcx
    92b5:	48 8d 04 92          	lea    (%rdx,%rdx,4),%rax
    92b9:	48 8d 04 82          	lea    (%rdx,%rax,4),%rax
    92bd:	48 8d 14 9b          	lea    (%rbx,%rbx,4),%rdx
    92c1:	48 8d 14 93          	lea    (%rbx,%rdx,4),%rdx
    92c5:	48 c1 e0 03          	shl    $0x3,%rax
    92c9:	48 8b 5c 24 28       	mov    0x28(%rsp),%rbx
    92ce:	48 29 c7             	sub    %rax,%rdi
    92d1:	48 8d 1c d3          	lea    (%rbx,%rdx,8),%rbx
    92d5:	48 89 fd             	mov    %rdi,%rbp
    92d8:	0f 84 a4 00 00 00    	je     9382 <pqcrystals_kyber_fips202_ref_shake128+0x922>
    92de:	41 81 f8 a8 00 00 00 	cmp    $0xa8,%r8d
    92e5:	74 7b                	je     9362 <pqcrystals_kyber_fips202_ref_shake128+0x902>
    92e7:	66 0f 1f 84 00 00 00 	nopw   0x0(%rax,%rax,1)
    92ee:	00 00 
    92f0:	44 89 c0             	mov    %r8d,%eax
    92f3:	48 8d 7c 05 00       	lea    0x0(%rbp,%rax,1),%rdi
    92f8:	48 39 f8             	cmp    %rdi,%rax
    92fb:	0f 83 a6 00 00 00    	jae    93a7 <pqcrystals_kyber_fips202_ref_shake128+0x947>
    9301:	48 89 da             	mov    %rbx,%rdx
    9304:	44 89 c0             	mov    %r8d,%eax
    9307:	45 89 c1             	mov    %r8d,%r9d
    930a:	eb 12                	jmp    931e <pqcrystals_kyber_fips202_ref_shake128+0x8be>
    930c:	0f 1f 40 00          	nopl   0x0(%rax)
    9310:	48 89 d1             	mov    %rdx,%rcx
    9313:	48 29 d9             	sub    %rbx,%rcx
    9316:	4c 01 c9             	add    %r9,%rcx
    9319:	48 39 cf             	cmp    %rcx,%rdi
    931c:	76 54                	jbe    9372 <pqcrystals_kyber_fips202_ref_shake128+0x912>
    931e:	89 c6                	mov    %eax,%esi
    9320:	89 c1                	mov    %eax,%ecx
    9322:	48 83 c2 01          	add    $0x1,%rdx
    9326:	83 c0 01             	add    $0x1,%eax
    9329:	c1 ee 03             	shr    $0x3,%esi
    932c:	83 e1 07             	and    $0x7,%ecx
    932f:	48 8b 74 f4 40       	mov    0x40(%rsp,%rsi,8),%rsi
    9334:	c1 e1 03             	shl    $0x3,%ecx
    9337:	48 d3 ee             	shr    %cl,%rsi
    933a:	40 88 72 ff          	mov    %sil,-0x1(%rdx)
    933e:	3d a8 00 00 00       	cmp    $0xa8,%eax
    9343:	75 cb                	jne    9310 <pqcrystals_kyber_fips202_ref_shake128+0x8b0>
    9345:	44 29 c0             	sub    %r8d,%eax
    9348:	41 b8 a8 00 00 00    	mov    $0xa8,%r8d
    934e:	48 29 c5             	sub    %rax,%rbp
    9351:	48 85 ed             	test   %rbp,%rbp
    9354:	74 2c                	je     9382 <pqcrystals_kyber_fips202_ref_shake128+0x922>
    9356:	48 89 d3             	mov    %rdx,%rbx
    9359:	41 81 f8 a8 00 00 00 	cmp    $0xa8,%r8d
    9360:	75 8e                	jne    92f0 <pqcrystals_kyber_fips202_ref_shake128+0x890>
    9362:	4c 89 e7             	mov    %r12,%rdi
    9365:	e8 36 c8 ff ff       	call   5ba0 <KeccakF1600_StatePermute>
    936a:	48 89 ef             	mov    %rbp,%rdi
    936d:	45 31 c0             	xor    %r8d,%r8d
    9370:	eb 8f                	jmp    9301 <pqcrystals_kyber_fips202_ref_shake128+0x8a1>
    9372:	89 c1                	mov    %eax,%ecx
    9374:	44 29 c1             	sub    %r8d,%ecx
    9377:	41 89 c0             	mov    %eax,%r8d
    937a:	48 29 cd             	sub    %rcx,%rbp
    937d:	48 85 ed             	test   %rbp,%rbp
    9380:	75 d4                	jne    9356 <pqcrystals_kyber_fips202_ref_shake128+0x8f6>
    9382:	48 8b 84 24 18 01 00 	mov    0x118(%rsp),%rax
    9389:	00 
    938a:	64 48 2b 04 25 28 00 	sub    %fs:0x28,%rax
    9391:	00 00 
    9393:	75 17                	jne    93ac <pqcrystals_kyber_fips202_ref_shake128+0x94c>
    9395:	48 81 c4 28 01 00 00 	add    $0x128,%rsp
    939c:	5b                   	pop    %rbx
    939d:	5d                   	pop    %rbp
    939e:	41 5c                	pop    %r12
    93a0:	41 5d                	pop    %r13
    93a2:	41 5e                	pop    %r14
    93a4:	41 5f                	pop    %r15
    93a6:	c3                   	ret    
    93a7:	48 89 da             	mov    %rbx,%rdx
    93aa:	eb aa                	jmp    9356 <pqcrystals_kyber_fips202_ref_shake128+0x8f6>
    93ac:	e8 cf 7d ff ff       	call   1180 <__stack_chk_fail@plt>
    93b1:	66 66 2e 0f 1f 84 00 	data16 cs nopw 0x0(%rax,%rax,1)
    93b8:	00 00 00 00 
    93bc:	0f 1f 40 00          	nopl   0x0(%rax)

00000000000093c0 <pqcrystals_kyber_fips202_ref_shake256>:
    93c0:	f3 0f 1e fa          	endbr64 
    93c4:	41 57                	push   %r15
    93c6:	41 b8 1f 00 00 00    	mov    $0x1f,%r8d
    93cc:	49 89 ff             	mov    %rdi,%r15
    93cf:	41 56                	push   %r14
    93d1:	41 55                	push   %r13
    93d3:	49 89 f5             	mov    %rsi,%r13
    93d6:	be 88 00 00 00       	mov    $0x88,%esi
    93db:	41 54                	push   %r12
    93dd:	55                   	push   %rbp
    93de:	53                   	push   %rbx
    93df:	48 81 ec e8 00 00 00 	sub    $0xe8,%rsp
    93e6:	64 48 8b 04 25 28 00 	mov    %fs:0x28,%rax
    93ed:	00 00 
    93ef:	48 89 84 24 d8 00 00 	mov    %rax,0xd8(%rsp)
    93f6:	00 
    93f7:	31 c0                	xor    %eax,%eax
    93f9:	48 89 e5             	mov    %rsp,%rbp
    93fc:	48 89 ef             	mov    %rbp,%rdi
    93ff:	e8 4c d0 ff ff       	call   6450 <keccak_absorb_once.constprop.1>
    9404:	4c 89 e8             	mov    %r13,%rax
    9407:	48 ba f1 f0 f0 f0 f0 	movabs $0xf0f0f0f0f0f0f0f1,%rdx
    940e:	f0 f0 f0 
    9411:	c7 84 24 c8 00 00 00 	movl   $0x88,0xc8(%rsp)
    9418:	88 00 00 00 
    941c:	48 f7 e2             	mul    %rdx
    941f:	48 c1 ea 07          	shr    $0x7,%rdx
    9423:	49 89 d6             	mov    %rdx,%r14
    9426:	49 81 fd 87 00 00 00 	cmp    $0x87,%r13
    942d:	0f 86 50 05 00 00    	jbe    9983 <pqcrystals_kyber_fips202_ref_shake256+0x5c3>
    9433:	66 44 0f 6f 1d 64 1c 	movdqa 0x1c64(%rip),%xmm11        # b0a0 <_IO_stdin_used+0xa0>
    943a:	00 00 
    943c:	49 89 d4             	mov    %rdx,%r12
    943f:	4c 89 fb             	mov    %r15,%rbx
    9442:	66 0f 1f 44 00 00    	nopw   0x0(%rax,%rax,1)
    9448:	48 89 ef             	mov    %rbp,%rdi
    944b:	48 81 c3 88 00 00 00 	add    $0x88,%rbx
    9452:	e8 49 c7 ff ff       	call   5ba0 <KeccakF1600_StatePermute>
    9457:	66 0f 6f 0c 24       	movdqa (%rsp),%xmm1
    945c:	66 44 0f 6f 64 24 10 	movdqa 0x10(%rsp),%xmm12
    9463:	66 44 0f 6f 54 24 20 	movdqa 0x20(%rsp),%xmm10
    946a:	66 0f 6f 5c 24 40    	movdqa 0x40(%rsp),%xmm3
    9470:	66 0f 6f c1          	movdqa %xmm1,%xmm0
    9474:	66 44 0f 6f 4c 24 60 	movdqa 0x60(%rsp),%xmm9
    947b:	48 8b 84 24 80 00 00 	mov    0x80(%rsp),%rax
    9482:	00 
    9483:	41 0f c6 c4 88       	shufps $0x88,%xmm12,%xmm0
    9488:	66 0f 6f d0          	movdqa %xmm0,%xmm2
    948c:	66 45 0f 6f f2       	movdqa %xmm10,%xmm14
    9491:	66 0f 6f e8          	movdqa %xmm0,%xmm5
    9495:	44 0f c6 74 24 30 88 	shufps $0x88,0x30(%rsp),%xmm14
    949c:	66 41 0f 61 d6       	punpcklwd %xmm14,%xmm2
    94a1:	66 41 0f 69 ee       	punpckhwd %xmm14,%xmm5
    94a6:	66 0f 6f e3          	movdqa %xmm3,%xmm4
    94aa:	66 0f 6f f2          	movdqa %xmm2,%xmm6
    94ae:	0f c6 64 24 50 88    	shufps $0x88,0x50(%rsp),%xmm4
    94b4:	66 0f 61 d5          	punpcklwd %xmm5,%xmm2
    94b8:	66 41 0f 6f f9       	movdqa %xmm9,%xmm7
    94bd:	66 0f 69 f5          	punpckhwd %xmm5,%xmm6
    94c1:	66 0f 6f ec          	movdqa %xmm4,%xmm5
    94c5:	0f c6 7c 24 70 88    	shufps $0x88,0x70(%rsp),%xmm7
    94cb:	48 89 43 f8          	mov    %rax,-0x8(%rbx)
    94cf:	66 0f 61 d6          	punpcklwd %xmm6,%xmm2
    94d3:	66 0f 61 ef          	punpcklwd %xmm7,%xmm5
    94d7:	66 0f 6f f4          	movdqa %xmm4,%xmm6
    94db:	66 0f 69 f7          	punpckhwd %xmm7,%xmm6
    94df:	66 44 0f 6f c5       	movdqa %xmm5,%xmm8
    94e4:	66 45 0f 6f ee       	movdqa %xmm14,%xmm13
    94e9:	66 44 0f 69 c6       	punpckhwd %xmm6,%xmm8
    94ee:	66 0f 61 ee          	punpcklwd %xmm6,%xmm5
    94f2:	66 41 0f 6f f3       	movdqa %xmm11,%xmm6
    94f7:	66 41 0f 61 e8       	punpcklwd %xmm8,%xmm5
    94fc:	66 45 0f 6f c3       	movdqa %xmm11,%xmm8
    9501:	66 44 0f 6f ff       	movdqa %xmm7,%xmm15
    9506:	66 0f db f5          	pand   %xmm5,%xmm6
    950a:	66 0f 71 d5 08       	psrlw  $0x8,%xmm5
    950f:	66 44 0f db c2       	pand   %xmm2,%xmm8
    9514:	66 44 0f 67 c6       	packuswb %xmm6,%xmm8
    9519:	66 0f 71 d2 08       	psrlw  $0x8,%xmm2
    951e:	66 0f 6f f0          	movdqa %xmm0,%xmm6
    9522:	66 41 0f 72 d5 10    	psrld  $0x10,%xmm13
    9528:	66 41 0f db eb       	pand   %xmm11,%xmm5
    952d:	66 41 0f db d3       	pand   %xmm11,%xmm2
    9532:	66 0f 72 d6 10       	psrld  $0x10,%xmm6
    9537:	66 41 0f 72 d7 10    	psrld  $0x10,%xmm15
    953d:	66 0f 67 d5          	packuswb %xmm5,%xmm2
    9541:	66 41 0f 72 d6 18    	psrld  $0x18,%xmm14
    9547:	66 0f 72 d0 18       	psrld  $0x18,%xmm0
    954c:	66 0f 6f ee          	movdqa %xmm6,%xmm5
    9550:	66 41 0f 61 f5       	punpcklwd %xmm13,%xmm6
    9555:	66 0f 72 d7 18       	psrld  $0x18,%xmm7
    955a:	66 41 0f 69 ed       	punpckhwd %xmm13,%xmm5
    955f:	66 44 0f 6f ee       	movdqa %xmm6,%xmm13
    9564:	66 0f 61 f5          	punpcklwd %xmm5,%xmm6
    9568:	66 44 0f 69 ed       	punpckhwd %xmm5,%xmm13
    956d:	66 0f 6f ec          	movdqa %xmm4,%xmm5
    9571:	66 0f 72 d5 10       	psrld  $0x10,%xmm5
    9576:	66 0f 72 d4 18       	psrld  $0x18,%xmm4
    957b:	66 41 0f 61 f5       	punpcklwd %xmm13,%xmm6
    9580:	66 44 0f 6f ed       	movdqa %xmm5,%xmm13
    9585:	66 41 0f 61 ef       	punpcklwd %xmm15,%xmm5
    958a:	66 41 0f db f3       	pand   %xmm11,%xmm6
    958f:	66 45 0f 69 ef       	punpckhwd %xmm15,%xmm13
    9594:	66 44 0f 6f fd       	movdqa %xmm5,%xmm15
    9599:	66 45 0f 69 fd       	punpckhwd %xmm13,%xmm15
    959e:	66 41 0f 61 ed       	punpcklwd %xmm13,%xmm5
    95a3:	66 44 0f 6f ee       	movdqa %xmm6,%xmm13
    95a8:	66 41 0f 61 ef       	punpcklwd %xmm15,%xmm5
    95ad:	66 44 0f 6f 7c 24 70 	movdqa 0x70(%rsp),%xmm15
    95b4:	66 41 0f db eb       	pand   %xmm11,%xmm5
    95b9:	66 44 0f 67 ed       	packuswb %xmm5,%xmm13
    95be:	66 41 0f 73 d7 30    	psrlq  $0x30,%xmm15
    95c4:	66 0f 6f e8          	movdqa %xmm0,%xmm5
    95c8:	66 41 0f 61 c6       	punpcklwd %xmm14,%xmm0
    95cd:	66 41 0f 69 ee       	punpckhwd %xmm14,%xmm5
    95d2:	66 44 0f 6f 74 24 70 	movdqa 0x70(%rsp),%xmm14
    95d9:	66 0f 6f f0          	movdqa %xmm0,%xmm6
    95dd:	66 0f 61 c5          	punpcklwd %xmm5,%xmm0
    95e1:	66 0f 69 f5          	punpckhwd %xmm5,%xmm6
    95e5:	66 41 0f 73 d6 28    	psrlq  $0x28,%xmm14
    95eb:	66 0f 6f ec          	movdqa %xmm4,%xmm5
    95ef:	66 0f 61 e7          	punpcklwd %xmm7,%xmm4
    95f3:	66 0f 69 ef          	punpckhwd %xmm7,%xmm5
    95f7:	66 0f 61 c6          	punpcklwd %xmm6,%xmm0
    95fb:	66 0f 6f 7c 24 70    	movdqa 0x70(%rsp),%xmm7
    9601:	66 0f 6f f4          	movdqa %xmm4,%xmm6
    9605:	66 0f 61 e5          	punpcklwd %xmm5,%xmm4
    9609:	66 41 0f db c3       	pand   %xmm11,%xmm0
    960e:	66 0f 69 f5          	punpckhwd %xmm5,%xmm6
    9612:	66 0f 6f 6c 24 30    	movdqa 0x30(%rsp),%xmm5
    9618:	66 0f 73 d7 20       	psrlq  $0x20,%xmm7
    961d:	66 0f 61 e6          	punpcklwd %xmm6,%xmm4
    9621:	66 0f 6f f1          	movdqa %xmm1,%xmm6
    9625:	66 0f 73 d6 20       	psrlq  $0x20,%xmm6
    962a:	66 0f 73 d5 20       	psrlq  $0x20,%xmm5
    962f:	66 41 0f db e3       	pand   %xmm11,%xmm4
    9634:	66 0f 67 c4          	packuswb %xmm4,%xmm0
    9638:	66 41 0f 6f e4       	movdqa %xmm12,%xmm4
    963d:	66 0f 73 d4 20       	psrlq  $0x20,%xmm4
    9642:	0f c6 f4 88          	shufps $0x88,%xmm4,%xmm6
    9646:	66 41 0f 6f e2       	movdqa %xmm10,%xmm4
    964b:	66 0f 73 d4 20       	psrlq  $0x20,%xmm4
    9650:	0f c6 e5 88          	shufps $0x88,%xmm5,%xmm4
    9654:	66 0f 6f ee          	movdqa %xmm6,%xmm5
    9658:	66 0f 61 f4          	punpcklwd %xmm4,%xmm6
    965c:	66 0f 69 ec          	punpckhwd %xmm4,%xmm5
    9660:	66 0f 6f e6          	movdqa %xmm6,%xmm4
    9664:	66 0f 69 e5          	punpckhwd %xmm5,%xmm4
    9668:	66 0f 61 f5          	punpcklwd %xmm5,%xmm6
    966c:	66 0f 6f 6c 24 50    	movdqa 0x50(%rsp),%xmm5
    9672:	66 0f 61 f4          	punpcklwd %xmm4,%xmm6
    9676:	66 0f 6f e3          	movdqa %xmm3,%xmm4
    967a:	66 0f 73 d5 20       	psrlq  $0x20,%xmm5
    967f:	66 0f 73 d4 20       	psrlq  $0x20,%xmm4
    9684:	66 41 0f db f3       	pand   %xmm11,%xmm6
    9689:	0f c6 e5 88          	shufps $0x88,%xmm5,%xmm4
    968d:	66 41 0f 6f e9       	movdqa %xmm9,%xmm5
    9692:	66 0f 73 d5 20       	psrlq  $0x20,%xmm5
    9697:	0f c6 ef 88          	shufps $0x88,%xmm7,%xmm5
    969b:	66 0f 6f fc          	movdqa %xmm4,%xmm7
    969f:	66 0f 61 e5          	punpcklwd %xmm5,%xmm4
    96a3:	66 0f 69 fd          	punpckhwd %xmm5,%xmm7
    96a7:	66 0f 6f ec          	movdqa %xmm4,%xmm5
    96ab:	66 0f 69 ef          	punpckhwd %xmm7,%xmm5
    96af:	66 0f 61 e7          	punpcklwd %xmm7,%xmm4
    96b3:	66 0f 6f 7c 24 30    	movdqa 0x30(%rsp),%xmm7
    96b9:	66 0f 61 e5          	punpcklwd %xmm5,%xmm4
    96bd:	66 0f 6f e9          	movdqa %xmm1,%xmm5
    96c1:	66 0f 73 d5 28       	psrlq  $0x28,%xmm5
    96c6:	66 0f 73 d7 28       	psrlq  $0x28,%xmm7
    96cb:	66 41 0f db e3       	pand   %xmm11,%xmm4
    96d0:	66 0f 67 f4          	packuswb %xmm4,%xmm6
    96d4:	66 41 0f 6f e4       	movdqa %xmm12,%xmm4
    96d9:	66 0f 73 d4 28       	psrlq  $0x28,%xmm4
    96de:	0f c6 ec 88          	shufps $0x88,%xmm4,%xmm5
    96e2:	66 41 0f 6f e2       	movdqa %xmm10,%xmm4
    96e7:	66 0f 73 d4 28       	psrlq  $0x28,%xmm4
    96ec:	0f c6 e7 88          	shufps $0x88,%xmm7,%xmm4
    96f0:	66 0f 6f fd          	movdqa %xmm5,%xmm7
    96f4:	66 0f 61 ec          	punpcklwd %xmm4,%xmm5
    96f8:	66 0f 69 fc          	punpckhwd %xmm4,%xmm7
    96fc:	66 0f 6f e5          	movdqa %xmm5,%xmm4
    9700:	66 0f 69 e7          	punpckhwd %xmm7,%xmm4
    9704:	66 0f 61 ef          	punpcklwd %xmm7,%xmm5
    9708:	66 0f 6f 7c 24 50    	movdqa 0x50(%rsp),%xmm7
    970e:	66 0f 61 ec          	punpcklwd %xmm4,%xmm5
    9712:	66 0f 6f e3          	movdqa %xmm3,%xmm4
    9716:	66 0f 73 d7 28       	psrlq  $0x28,%xmm7
    971b:	66 0f 73 d4 28       	psrlq  $0x28,%xmm4
    9720:	66 41 0f db eb       	pand   %xmm11,%xmm5
    9725:	0f c6 e7 88          	shufps $0x88,%xmm7,%xmm4
    9729:	66 41 0f 6f f9       	movdqa %xmm9,%xmm7
    972e:	66 0f 73 d7 28       	psrlq  $0x28,%xmm7
    9733:	41 0f c6 fe 88       	shufps $0x88,%xmm14,%xmm7
    9738:	66 44 0f 6f f4       	movdqa %xmm4,%xmm14
    973d:	66 0f 61 e7          	punpcklwd %xmm7,%xmm4
    9741:	66 44 0f 69 f7       	punpckhwd %xmm7,%xmm14
    9746:	66 0f 6f fc          	movdqa %xmm4,%xmm7
    974a:	66 41 0f 69 fe       	punpckhwd %xmm14,%xmm7
    974f:	66 41 0f 61 e6       	punpcklwd %xmm14,%xmm4
    9754:	66 44 0f 6f 74 24 30 	movdqa 0x30(%rsp),%xmm14
    975b:	66 0f 61 e7          	punpcklwd %xmm7,%xmm4
    975f:	66 41 0f 6f fc       	movdqa %xmm12,%xmm7
    9764:	66 0f 73 d7 30       	psrlq  $0x30,%xmm7
    9769:	66 41 0f db e3       	pand   %xmm11,%xmm4
    976e:	66 41 0f 73 d6 30    	psrlq  $0x30,%xmm14
    9774:	66 41 0f 73 d4 38    	psrlq  $0x38,%xmm12
    977a:	66 0f 67 ec          	packuswb %xmm4,%xmm5
    977e:	66 0f 6f e1          	movdqa %xmm1,%xmm4
    9782:	66 0f 73 d1 38       	psrlq  $0x38,%xmm1
    9787:	66 0f 73 d4 30       	psrlq  $0x30,%xmm4
    978c:	41 0f c6 cc 88       	shufps $0x88,%xmm12,%xmm1
    9791:	0f c6 e7 88          	shufps $0x88,%xmm7,%xmm4
    9795:	66 41 0f 6f fa       	movdqa %xmm10,%xmm7
    979a:	66 41 0f 73 d2 38    	psrlq  $0x38,%xmm10
    97a0:	66 0f 73 d7 30       	psrlq  $0x30,%xmm7
    97a5:	41 0f c6 fe 88       	shufps $0x88,%xmm14,%xmm7
    97aa:	66 44 0f 6f f4       	movdqa %xmm4,%xmm14
    97af:	66 0f 61 e7          	punpcklwd %xmm7,%xmm4
    97b3:	66 44 0f 69 f7       	punpckhwd %xmm7,%xmm14
    97b8:	66 0f 6f fc          	movdqa %xmm4,%xmm7
    97bc:	66 41 0f 69 fe       	punpckhwd %xmm14,%xmm7
    97c1:	66 41 0f 61 e6       	punpcklwd %xmm14,%xmm4
    97c6:	66 44 0f 6f 74 24 50 	movdqa 0x50(%rsp),%xmm14
    97cd:	66 0f 61 e7          	punpcklwd %xmm7,%xmm4
    97d1:	66 0f 6f fb          	movdqa %xmm3,%xmm7
    97d5:	66 41 0f 73 d6 30    	psrlq  $0x30,%xmm14
    97db:	66 0f 73 d7 30       	psrlq  $0x30,%xmm7
    97e0:	66 41 0f db e3       	pand   %xmm11,%xmm4
    97e5:	41 0f c6 fe 88       	shufps $0x88,%xmm14,%xmm7
    97ea:	66 45 0f 6f f1       	movdqa %xmm9,%xmm14
    97ef:	66 0f 73 d3 38       	psrlq  $0x38,%xmm3
    97f4:	66 41 0f 73 d6 30    	psrlq  $0x30,%xmm14
    97fa:	66 41 0f 73 d1 38    	psrlq  $0x38,%xmm9
    9800:	45 0f c6 f7 88       	shufps $0x88,%xmm15,%xmm14
    9805:	66 44 0f 6f ff       	movdqa %xmm7,%xmm15
    980a:	66 41 0f 61 fe       	punpcklwd %xmm14,%xmm7
    980f:	66 45 0f 69 fe       	punpckhwd %xmm14,%xmm15
    9814:	66 44 0f 6f f7       	movdqa %xmm7,%xmm14
    9819:	66 45 0f 69 f7       	punpckhwd %xmm15,%xmm14
    981e:	66 41 0f 61 ff       	punpcklwd %xmm15,%xmm7
    9823:	66 41 0f 61 fe       	punpcklwd %xmm14,%xmm7
    9828:	66 41 0f db fb       	pand   %xmm11,%xmm7
    982d:	66 0f 67 e7          	packuswb %xmm7,%xmm4
    9831:	66 0f 6f 7c 24 30    	movdqa 0x30(%rsp),%xmm7
    9837:	66 0f 73 d7 38       	psrlq  $0x38,%xmm7
    983c:	44 0f c6 d7 88       	shufps $0x88,%xmm7,%xmm10
    9841:	66 0f 6f f9          	movdqa %xmm1,%xmm7
    9845:	66 41 0f 61 ca       	punpcklwd %xmm10,%xmm1
    984a:	66 41 0f 69 fa       	punpckhwd %xmm10,%xmm7
    984f:	66 44 0f 6f d1       	movdqa %xmm1,%xmm10
    9854:	66 44 0f 69 d7       	punpckhwd %xmm7,%xmm10
    9859:	66 0f 61 cf          	punpcklwd %xmm7,%xmm1
    985d:	66 0f 6f 7c 24 50    	movdqa 0x50(%rsp),%xmm7
    9863:	66 41 0f 61 ca       	punpcklwd %xmm10,%xmm1
    9868:	66 0f 73 d7 38       	psrlq  $0x38,%xmm7
    986d:	66 41 0f db cb       	pand   %xmm11,%xmm1
    9872:	0f c6 df 88          	shufps $0x88,%xmm7,%xmm3
    9876:	66 0f 6f 7c 24 70    	movdqa 0x70(%rsp),%xmm7
    987c:	66 0f 73 d7 38       	psrlq  $0x38,%xmm7
    9881:	44 0f c6 cf 88       	shufps $0x88,%xmm7,%xmm9
    9886:	66 0f 6f fb          	movdqa %xmm3,%xmm7
    988a:	66 41 0f 61 d9       	punpcklwd %xmm9,%xmm3
    988f:	66 41 0f 69 f9       	punpckhwd %xmm9,%xmm7
    9894:	66 44 0f 6f cb       	movdqa %xmm3,%xmm9
    9899:	66 44 0f 69 cf       	punpckhwd %xmm7,%xmm9
    989e:	66 0f 61 df          	punpcklwd %xmm7,%xmm3
    98a2:	66 41 0f 6f fd       	movdqa %xmm13,%xmm7
    98a7:	66 41 0f 61 d9       	punpcklwd %xmm9,%xmm3
    98ac:	66 0f 60 fc          	punpcklbw %xmm4,%xmm7
    98b0:	66 44 0f 6f c8       	movdqa %xmm0,%xmm9
    98b5:	66 41 0f db db       	pand   %xmm11,%xmm3
    98ba:	66 44 0f 68 ec       	punpckhbw %xmm4,%xmm13
    98bf:	66 0f 67 cb          	packuswb %xmm3,%xmm1
    98c3:	66 41 0f 6f d8       	movdqa %xmm8,%xmm3
    98c8:	66 44 0f 68 c6       	punpckhbw %xmm6,%xmm8
    98cd:	66 0f 60 de          	punpcklbw %xmm6,%xmm3
    98d1:	66 0f 6f f2          	movdqa %xmm2,%xmm6
    98d5:	66 0f 68 d5          	punpckhbw %xmm5,%xmm2
    98d9:	66 0f 60 f5          	punpcklbw %xmm5,%xmm6
    98dd:	66 0f 6f eb          	movdqa %xmm3,%xmm5
    98e1:	66 0f 68 c1          	punpckhbw %xmm1,%xmm0
    98e5:	66 44 0f 60 c9       	punpcklbw %xmm1,%xmm9
    98ea:	66 0f 60 ef          	punpcklbw %xmm7,%xmm5
    98ee:	66 0f 68 df          	punpckhbw %xmm7,%xmm3
    98f2:	66 0f 6f ce          	movdqa %xmm6,%xmm1
    98f6:	66 0f 6f fe          	movdqa %xmm6,%xmm7
    98fa:	66 0f 6f f2          	movdqa %xmm2,%xmm6
    98fe:	66 0f 60 f0          	punpcklbw %xmm0,%xmm6
    9902:	66 0f 68 d0          	punpckhbw %xmm0,%xmm2
    9906:	66 41 0f 60 f9       	punpcklbw %xmm9,%xmm7
    990b:	66 0f 6f c5          	movdqa %xmm5,%xmm0
    990f:	66 0f 6f e3          	movdqa %xmm3,%xmm4
    9913:	66 41 0f 68 c9       	punpckhbw %xmm9,%xmm1
    9918:	66 0f 60 c7          	punpcklbw %xmm7,%xmm0
    991c:	66 41 0f 6f d8       	movdqa %xmm8,%xmm3
    9921:	66 45 0f 68 c5       	punpckhbw %xmm13,%xmm8
    9926:	0f 11 83 78 ff ff ff 	movups %xmm0,-0x88(%rbx)
    992d:	66 0f 6f c4          	movdqa %xmm4,%xmm0
    9931:	66 41 0f 60 dd       	punpcklbw %xmm13,%xmm3
    9936:	66 0f 68 ef          	punpckhbw %xmm7,%xmm5
    993a:	66 0f 60 c1          	punpcklbw %xmm1,%xmm0
    993e:	66 0f 68 e1          	punpckhbw %xmm1,%xmm4
    9942:	0f 11 6b 88          	movups %xmm5,-0x78(%rbx)
    9946:	0f 11 43 98          	movups %xmm0,-0x68(%rbx)
    994a:	66 0f 6f c3          	movdqa %xmm3,%xmm0
    994e:	66 0f 68 de          	punpckhbw %xmm6,%xmm3
    9952:	66 0f 60 c6          	punpcklbw %xmm6,%xmm0
    9956:	0f 11 63 a8          	movups %xmm4,-0x58(%rbx)
    995a:	0f 11 43 b8          	movups %xmm0,-0x48(%rbx)
    995e:	66 41 0f 6f c0       	movdqa %xmm8,%xmm0
    9963:	66 44 0f 68 c2       	punpckhbw %xmm2,%xmm8
    9968:	66 0f 60 c2          	punpcklbw %xmm2,%xmm0
    996c:	0f 11 5b c8          	movups %xmm3,-0x38(%rbx)
    9970:	0f 11 43 d8          	movups %xmm0,-0x28(%rbx)
    9974:	44 0f 11 43 e8       	movups %xmm8,-0x18(%rbx)
    9979:	49 83 ec 01          	sub    $0x1,%r12
    997d:	0f 85 c5 fa ff ff    	jne    9448 <pqcrystals_kyber_fips202_ref_shake256+0x88>
    9983:	4c 89 e8             	mov    %r13,%rax
    9986:	41 b9 88 00 00 00    	mov    $0x88,%r9d
    998c:	48 ba f1 f0 f0 f0 f0 	movabs $0xf0f0f0f0f0f0f0f1,%rdx
    9993:	f0 f0 f0 
    9996:	48 f7 e2             	mul    %rdx
    9999:	48 c1 ea 07          	shr    $0x7,%rdx
    999d:	48 89 d0             	mov    %rdx,%rax
    99a0:	48 c1 e0 04          	shl    $0x4,%rax
    99a4:	48 01 d0             	add    %rdx,%rax
    99a7:	4c 89 f2             	mov    %r14,%rdx
    99aa:	48 c1 e2 04          	shl    $0x4,%rdx
    99ae:	48 c1 e0 03          	shl    $0x3,%rax
    99b2:	4c 01 f2             	add    %r14,%rdx
    99b5:	49 29 c5             	sub    %rax,%r13
    99b8:	49 8d 1c d7          	lea    (%r15,%rdx,8),%rbx
    99bc:	4d 89 ec             	mov    %r13,%r12
    99bf:	0f 84 9c 00 00 00    	je     9a61 <pqcrystals_kyber_fips202_ref_shake256+0x6a1>
    99c5:	41 81 f9 88 00 00 00 	cmp    $0x88,%r9d
    99cc:	74 73                	je     9a41 <pqcrystals_kyber_fips202_ref_shake256+0x681>
    99ce:	66 90                	xchg   %ax,%ax
    99d0:	44 89 c8             	mov    %r9d,%eax
    99d3:	49 8d 3c 04          	lea    (%r12,%rax,1),%rdi
    99d7:	48 39 f8             	cmp    %rdi,%rax
    99da:	0f 83 a6 00 00 00    	jae    9a86 <pqcrystals_kyber_fips202_ref_shake256+0x6c6>
    99e0:	48 89 da             	mov    %rbx,%rdx
    99e3:	44 89 c8             	mov    %r9d,%eax
    99e6:	45 89 c8             	mov    %r9d,%r8d
    99e9:	eb 13                	jmp    99fe <pqcrystals_kyber_fips202_ref_shake256+0x63e>
    99eb:	0f 1f 44 00 00       	nopl   0x0(%rax,%rax,1)
    99f0:	48 89 d1             	mov    %rdx,%rcx
    99f3:	48 29 d9             	sub    %rbx,%rcx
    99f6:	4c 01 c1             	add    %r8,%rcx
    99f9:	48 39 cf             	cmp    %rcx,%rdi
    99fc:	76 53                	jbe    9a51 <pqcrystals_kyber_fips202_ref_shake256+0x691>
    99fe:	89 c6                	mov    %eax,%esi
    9a00:	89 c1                	mov    %eax,%ecx
    9a02:	48 83 c2 01          	add    $0x1,%rdx
    9a06:	83 c0 01             	add    $0x1,%eax
    9a09:	c1 ee 03             	shr    $0x3,%esi
    9a0c:	83 e1 07             	and    $0x7,%ecx
    9a0f:	48 8b 34 f4          	mov    (%rsp,%rsi,8),%rsi
    9a13:	c1 e1 03             	shl    $0x3,%ecx
    9a16:	48 d3 ee             	shr    %cl,%rsi
    9a19:	40 88 72 ff          	mov    %sil,-0x1(%rdx)
    9a1d:	3d 88 00 00 00       	cmp    $0x88,%eax
    9a22:	75 cc                	jne    99f0 <pqcrystals_kyber_fips202_ref_shake256+0x630>
    9a24:	44 29 c8             	sub    %r9d,%eax
    9a27:	41 b9 88 00 00 00    	mov    $0x88,%r9d
    9a2d:	49 29 c4             	sub    %rax,%r12
    9a30:	4d 85 e4             	test   %r12,%r12
    9a33:	74 2c                	je     9a61 <pqcrystals_kyber_fips202_ref_shake256+0x6a1>
    9a35:	48 89 d3             	mov    %rdx,%rbx
    9a38:	41 81 f9 88 00 00 00 	cmp    $0x88,%r9d
    9a3f:	75 8f                	jne    99d0 <pqcrystals_kyber_fips202_ref_shake256+0x610>
    9a41:	48 89 ef             	mov    %rbp,%rdi
    9a44:	e8 57 c1 ff ff       	call   5ba0 <KeccakF1600_StatePermute>
    9a49:	4c 89 e7             	mov    %r12,%rdi
    9a4c:	45 31 c9             	xor    %r9d,%r9d
    9a4f:	eb 8f                	jmp    99e0 <pqcrystals_kyber_fips202_ref_shake256+0x620>
    9a51:	89 c1                	mov    %eax,%ecx
    9a53:	44 29 c9             	sub    %r9d,%ecx
    9a56:	41 89 c1             	mov    %eax,%r9d
    9a59:	49 29 cc             	sub    %rcx,%r12
    9a5c:	4d 85 e4             	test   %r12,%r12
    9a5f:	75 d4                	jne    9a35 <pqcrystals_kyber_fips202_ref_shake256+0x675>
    9a61:	48 8b 84 24 d8 00 00 	mov    0xd8(%rsp),%rax
    9a68:	00 
    9a69:	64 48 2b 04 25 28 00 	sub    %fs:0x28,%rax
    9a70:	00 00 
    9a72:	75 17                	jne    9a8b <pqcrystals_kyber_fips202_ref_shake256+0x6cb>
    9a74:	48 81 c4 e8 00 00 00 	add    $0xe8,%rsp
    9a7b:	5b                   	pop    %rbx
    9a7c:	5d                   	pop    %rbp
    9a7d:	41 5c                	pop    %r12
    9a7f:	41 5d                	pop    %r13
    9a81:	41 5e                	pop    %r14
    9a83:	41 5f                	pop    %r15
    9a85:	c3                   	ret    
    9a86:	48 89 da             	mov    %rbx,%rdx
    9a89:	eb aa                	jmp    9a35 <pqcrystals_kyber_fips202_ref_shake256+0x675>
    9a8b:	e8 f0 76 ff ff       	call   1180 <__stack_chk_fail@plt>

0000000000009a90 <pqcrystals_kyber_fips202_ref_sha3_256>:
    9a90:	f3 0f 1e fa          	endbr64 
    9a94:	41 57                	push   %r15
    9a96:	48 89 d1             	mov    %rdx,%rcx
    9a99:	41 b8 06 00 00 00    	mov    $0x6,%r8d
    9a9f:	48 89 f2             	mov    %rsi,%rdx
    9aa2:	41 56                	push   %r14
    9aa4:	be 88 00 00 00       	mov    $0x88,%esi
    9aa9:	41 55                	push   %r13
    9aab:	41 54                	push   %r12
    9aad:	55                   	push   %rbp
    9aae:	48 89 fd             	mov    %rdi,%rbp
    9ab1:	53                   	push   %rbx
    9ab2:	48 81 ec e8 00 00 00 	sub    $0xe8,%rsp
    9ab9:	64 48 8b 04 25 28 00 	mov    %fs:0x28,%rax
    9ac0:	00 00 
    9ac2:	48 89 84 24 d8 00 00 	mov    %rax,0xd8(%rsp)
    9ac9:	00 
    9aca:	31 c0                	xor    %eax,%eax
    9acc:	4c 8d 64 24 10       	lea    0x10(%rsp),%r12
    9ad1:	4c 89 e7             	mov    %r12,%rdi
    9ad4:	e8 77 c9 ff ff       	call   6450 <keccak_absorb_once.constprop.1>
    9ad9:	4c 89 e7             	mov    %r12,%rdi
    9adc:	e8 bf c0 ff ff       	call   5ba0 <KeccakF1600_StatePermute>
    9ae1:	48 8b 5c 24 18       	mov    0x18(%rsp),%rbx
    9ae6:	48 8b 74 24 10       	mov    0x10(%rsp),%rsi
    9aeb:	48 8b 4c 24 20       	mov    0x20(%rsp),%rcx
    9af0:	48 8b 54 24 28       	mov    0x28(%rsp),%rdx
    9af5:	48 89 d8             	mov    %rbx,%rax
    9af8:	49 89 f7             	mov    %rsi,%r15
    9afb:	49 89 f6             	mov    %rsi,%r14
    9afe:	49 89 f5             	mov    %rsi,%r13
    9b01:	48 c1 e8 10          	shr    $0x10,%rax
    9b05:	49 c1 ef 30          	shr    $0x30,%r15
    9b09:	49 89 f4             	mov    %rsi,%r12
    9b0c:	49 89 f3             	mov    %rsi,%r11
    9b0f:	48 89 04 24          	mov    %rax,(%rsp)
    9b13:	48 89 f0             	mov    %rsi,%rax
    9b16:	45 0f b6 ff          	movzbl %r15b,%r15d
    9b1a:	49 c1 ee 28          	shr    $0x28,%r14
    9b1e:	48 c1 e8 38          	shr    $0x38,%rax
    9b22:	45 0f b6 f6          	movzbl %r14b,%r14d
    9b26:	49 c1 ed 20          	shr    $0x20,%r13
    9b2a:	49 89 da             	mov    %rbx,%r10
    9b2d:	48 c1 e0 08          	shl    $0x8,%rax
    9b31:	45 0f b6 ed          	movzbl %r13b,%r13d
    9b35:	49 c1 ec 18          	shr    $0x18,%r12
    9b39:	49 89 d9             	mov    %rbx,%r9
    9b3c:	4c 09 f8             	or     %r15,%rax
    9b3f:	45 0f b6 e4          	movzbl %r12b,%r12d
    9b43:	49 c1 eb 10          	shr    $0x10,%r11
    9b47:	48 89 df             	mov    %rbx,%rdi
    9b4a:	48 c1 e0 08          	shl    $0x8,%rax
    9b4e:	49 c1 ea 30          	shr    $0x30,%r10
    9b52:	49 89 d8             	mov    %rbx,%r8
    9b55:	49 c1 e9 28          	shr    $0x28,%r9
    9b59:	4c 09 f0             	or     %r14,%rax
    9b5c:	45 0f b6 d2          	movzbl %r10b,%r10d
    9b60:	48 c1 ef 18          	shr    $0x18,%rdi
    9b64:	48 c1 e0 08          	shl    $0x8,%rax
    9b68:	45 0f b6 c9          	movzbl %r9b,%r9d
    9b6c:	49 c1 e8 20          	shr    $0x20,%r8
    9b70:	40 0f b6 ff          	movzbl %dil,%edi
    9b74:	4c 09 e8             	or     %r13,%rax
    9b77:	45 0f b6 c0          	movzbl %r8b,%r8d
    9b7b:	49 89 ce             	mov    %rcx,%r14
    9b7e:	49 89 cd             	mov    %rcx,%r13
    9b81:	48 c1 e0 08          	shl    $0x8,%rax
    9b85:	4c 09 e0             	or     %r12,%rax
    9b88:	45 0f b6 e3          	movzbl %r11b,%r12d
    9b8c:	49 89 c3             	mov    %rax,%r11
    9b8f:	48 89 f0             	mov    %rsi,%rax
    9b92:	40 0f b6 f6          	movzbl %sil,%esi
    9b96:	49 c1 e3 08          	shl    $0x8,%r11
    9b9a:	0f b6 c4             	movzbl %ah,%eax
    9b9d:	4d 09 e3             	or     %r12,%r11
    9ba0:	49 89 cc             	mov    %rcx,%r12
    9ba3:	49 c1 e3 08          	shl    $0x8,%r11
    9ba7:	49 09 c3             	or     %rax,%r11
    9baa:	48 89 d8             	mov    %rbx,%rax
    9bad:	48 c1 e8 38          	shr    $0x38,%rax
    9bb1:	49 c1 e3 08          	shl    $0x8,%r11
    9bb5:	48 c1 e0 08          	shl    $0x8,%rax
    9bb9:	4c 09 d0             	or     %r10,%rax
    9bbc:	49 89 d2             	mov    %rdx,%r10
    9bbf:	48 c1 e0 08          	shl    $0x8,%rax
    9bc3:	4c 09 c8             	or     %r9,%rax
    9bc6:	49 09 f3             	or     %rsi,%r11
    9bc9:	48 89 ce             	mov    %rcx,%rsi
    9bcc:	49 c1 ee 30          	shr    $0x30,%r14
    9bd0:	48 c1 e0 08          	shl    $0x8,%rax
    9bd4:	48 c1 ee 38          	shr    $0x38,%rsi
    9bd8:	45 0f b6 f6          	movzbl %r14b,%r14d
    9bdc:	49 89 d1             	mov    %rdx,%r9
    9bdf:	48 c1 e6 08          	shl    $0x8,%rsi
    9be3:	4c 09 c0             	or     %r8,%rax
    9be6:	49 c1 ed 28          	shr    $0x28,%r13
    9bea:	49 89 d0             	mov    %rdx,%r8
    9bed:	48 c1 e0 08          	shl    $0x8,%rax
    9bf1:	4c 09 f6             	or     %r14,%rsi
    9bf4:	45 0f b6 ed          	movzbl %r13b,%r13d
    9bf8:	49 c1 ec 20          	shr    $0x20,%r12
    9bfc:	48 c1 e6 08          	shl    $0x8,%rsi
    9c00:	48 09 f8             	or     %rdi,%rax
    9c03:	0f b6 3c 24          	movzbl (%rsp),%edi
    9c07:	45 0f b6 e4          	movzbl %r12b,%r12d
    9c0b:	48 c1 e0 08          	shl    $0x8,%rax
    9c0f:	4c 09 ee             	or     %r13,%rsi
    9c12:	4c 89 1c 24          	mov    %r11,(%rsp)
    9c16:	49 89 d3             	mov    %rdx,%r11
    9c19:	48 c1 e6 08          	shl    $0x8,%rsi
    9c1d:	48 09 f8             	or     %rdi,%rax
    9c20:	0f b6 ff             	movzbl %bh,%edi
    9c23:	0f b6 db             	movzbl %bl,%ebx
    9c26:	48 c1 e0 08          	shl    $0x8,%rax
    9c2a:	4c 09 e6             	or     %r12,%rsi
    9c2d:	49 c1 e8 18          	shr    $0x18,%r8
    9c31:	48 c1 e6 08          	shl    $0x8,%rsi
    9c35:	48 09 f8             	or     %rdi,%rax
    9c38:	48 89 d7             	mov    %rdx,%rdi
    9c3b:	49 c1 e9 20          	shr    $0x20,%r9
    9c3f:	48 c1 e0 08          	shl    $0x8,%rax
    9c43:	48 c1 ef 10          	shr    $0x10,%rdi
    9c47:	45 0f b6 c9          	movzbl %r9b,%r9d
    9c4b:	45 0f b6 c0          	movzbl %r8b,%r8d
    9c4f:	49 c1 ea 28          	shr    $0x28,%r10
    9c53:	48 09 d8             	or     %rbx,%rax
    9c56:	48 89 cb             	mov    %rcx,%rbx
    9c59:	49 c1 eb 30          	shr    $0x30,%r11
    9c5d:	48 c1 eb 18          	shr    $0x18,%rbx
    9c61:	45 0f b6 db          	movzbl %r11b,%r11d
    9c65:	45 0f b6 d2          	movzbl %r10b,%r10d
    9c69:	40 0f b6 ff          	movzbl %dil,%edi
    9c6d:	48 89 44 24 08       	mov    %rax,0x8(%rsp)
    9c72:	0f b6 db             	movzbl %bl,%ebx
    9c75:	48 89 c8             	mov    %rcx,%rax
    9c78:	66 0f 6f 04 24       	movdqa (%rsp),%xmm0
    9c7d:	48 c1 e8 10          	shr    $0x10,%rax
    9c81:	48 09 de             	or     %rbx,%rsi
    9c84:	0f b6 c0             	movzbl %al,%eax
    9c87:	48 c1 e6 08          	shl    $0x8,%rsi
    9c8b:	0f 11 45 00          	movups %xmm0,0x0(%rbp)
    9c8f:	48 09 c6             	or     %rax,%rsi
    9c92:	0f b6 c5             	movzbl %ch,%eax
    9c95:	0f b6 c9             	movzbl %cl,%ecx
    9c98:	48 c1 e6 08          	shl    $0x8,%rsi
    9c9c:	48 09 c6             	or     %rax,%rsi
    9c9f:	48 89 d0             	mov    %rdx,%rax
    9ca2:	48 c1 e8 38          	shr    $0x38,%rax
    9ca6:	48 c1 e6 08          	shl    $0x8,%rsi
    9caa:	48 c1 e0 08          	shl    $0x8,%rax
    9cae:	48 09 ce             	or     %rcx,%rsi
    9cb1:	4c 09 d8             	or     %r11,%rax
    9cb4:	48 89 34 24          	mov    %rsi,(%rsp)
    9cb8:	48 c1 e0 08          	shl    $0x8,%rax
    9cbc:	4c 09 d0             	or     %r10,%rax
    9cbf:	48 c1 e0 08          	shl    $0x8,%rax
    9cc3:	4c 09 c8             	or     %r9,%rax
    9cc6:	48 c1 e0 08          	shl    $0x8,%rax
    9cca:	4c 09 c0             	or     %r8,%rax
    9ccd:	48 c1 e0 08          	shl    $0x8,%rax
    9cd1:	48 09 f8             	or     %rdi,%rax
    9cd4:	0f b6 fe             	movzbl %dh,%edi
    9cd7:	0f b6 d2             	movzbl %dl,%edx
    9cda:	48 c1 e0 08          	shl    $0x8,%rax
    9cde:	48 09 f8             	or     %rdi,%rax
    9ce1:	48 c1 e0 08          	shl    $0x8,%rax
    9ce5:	48 09 d0             	or     %rdx,%rax
    9ce8:	48 89 44 24 08       	mov    %rax,0x8(%rsp)
    9ced:	66 0f 6f 0c 24       	movdqa (%rsp),%xmm1
    9cf2:	0f 11 4d 10          	movups %xmm1,0x10(%rbp)
    9cf6:	48 8b 84 24 d8 00 00 	mov    0xd8(%rsp),%rax
    9cfd:	00 
    9cfe:	64 48 2b 04 25 28 00 	sub    %fs:0x28,%rax
    9d05:	00 00 
    9d07:	75 12                	jne    9d1b <pqcrystals_kyber_fips202_ref_sha3_256+0x28b>
    9d09:	48 81 c4 e8 00 00 00 	add    $0xe8,%rsp
    9d10:	5b                   	pop    %rbx
    9d11:	5d                   	pop    %rbp
    9d12:	41 5c                	pop    %r12
    9d14:	41 5d                	pop    %r13
    9d16:	41 5e                	pop    %r14
    9d18:	41 5f                	pop    %r15
    9d1a:	c3                   	ret    
    9d1b:	e8 60 74 ff ff       	call   1180 <__stack_chk_fail@plt>

0000000000009d20 <pqcrystals_kyber_fips202_ref_sha3_512>:
    9d20:	f3 0f 1e fa          	endbr64 
    9d24:	41 57                	push   %r15
    9d26:	b9 19 00 00 00       	mov    $0x19,%ecx
    9d2b:	41 56                	push   %r14
    9d2d:	41 55                	push   %r13
    9d2f:	49 89 d5             	mov    %rdx,%r13
    9d32:	41 54                	push   %r12
    9d34:	55                   	push   %rbp
    9d35:	48 89 fd             	mov    %rdi,%rbp
    9d38:	53                   	push   %rbx
    9d39:	48 89 f3             	mov    %rsi,%rbx
    9d3c:	48 81 ec 08 01 00 00 	sub    $0x108,%rsp
    9d43:	64 48 8b 04 25 28 00 	mov    %fs:0x28,%rax
    9d4a:	00 00 
    9d4c:	48 89 84 24 f8 00 00 	mov    %rax,0xf8(%rsp)
    9d53:	00 
    9d54:	31 c0                	xor    %eax,%eax
    9d56:	4c 8d 64 24 30       	lea    0x30(%rsp),%r12
    9d5b:	4c 89 e7             	mov    %r12,%rdi
    9d5e:	f3 48 ab             	rep stos %rax,%es:(%rdi)
    9d61:	48 83 fa 47          	cmp    $0x47,%rdx
    9d65:	0f 86 90 00 00 00    	jbe    9dfb <pqcrystals_kyber_fips202_ref_sha3_512+0xdb>
    9d6b:	4c 8d 74 24 78       	lea    0x78(%rsp),%r14
    9d70:	48 89 d8             	mov    %rbx,%rax
    9d73:	4c 89 e6             	mov    %r12,%rsi
    9d76:	66 2e 0f 1f 84 00 00 	cs nopw 0x0(%rax,%rax,1)
    9d7d:	00 00 00 
    9d80:	0f b6 50 01          	movzbl 0x1(%rax),%edx
    9d84:	0f b6 48 02          	movzbl 0x2(%rax),%ecx
    9d88:	48 83 c0 08          	add    $0x8,%rax
    9d8c:	48 c1 e1 10          	shl    $0x10,%rcx
    9d90:	48 c1 e2 08          	shl    $0x8,%rdx
    9d94:	48 09 ca             	or     %rcx,%rdx
    9d97:	0f b6 48 f8          	movzbl -0x8(%rax),%ecx
    9d9b:	48 09 ca             	or     %rcx,%rdx
    9d9e:	0f b6 48 fb          	movzbl -0x5(%rax),%ecx
    9da2:	48 c1 e1 18          	shl    $0x18,%rcx
    9da6:	48 09 ca             	or     %rcx,%rdx
    9da9:	0f b6 48 fc          	movzbl -0x4(%rax),%ecx
    9dad:	48 c1 e1 20          	shl    $0x20,%rcx
    9db1:	48 09 d1             	or     %rdx,%rcx
    9db4:	0f b6 50 fd          	movzbl -0x3(%rax),%edx
    9db8:	48 c1 e2 28          	shl    $0x28,%rdx
    9dbc:	48 09 ca             	or     %rcx,%rdx
    9dbf:	0f b6 48 fe          	movzbl -0x2(%rax),%ecx
    9dc3:	48 c1 e1 30          	shl    $0x30,%rcx
    9dc7:	48 09 d1             	or     %rdx,%rcx
    9dca:	0f b6 50 ff          	movzbl -0x1(%rax),%edx
    9dce:	48 c1 e2 38          	shl    $0x38,%rdx
    9dd2:	48 09 ca             	or     %rcx,%rdx
    9dd5:	48 31 16             	xor    %rdx,(%rsi)
    9dd8:	48 83 c6 08          	add    $0x8,%rsi
    9ddc:	49 39 f6             	cmp    %rsi,%r14
    9ddf:	75 9f                	jne    9d80 <pqcrystals_kyber_fips202_ref_sha3_512+0x60>
    9de1:	49 83 ed 48          	sub    $0x48,%r13
    9de5:	4c 89 e7             	mov    %r12,%rdi
    9de8:	48 83 c3 48          	add    $0x48,%rbx
    9dec:	e8 af bd ff ff       	call   5ba0 <KeccakF1600_StatePermute>
    9df1:	49 83 fd 47          	cmp    $0x47,%r13
    9df5:	0f 87 75 ff ff ff    	ja     9d70 <pqcrystals_kyber_fips202_ref_sha3_512+0x50>
    9dfb:	4d 85 ed             	test   %r13,%r13
    9dfe:	0f 84 f2 04 00 00    	je     a2f6 <pqcrystals_kyber_fips202_ref_sha3_512+0x5d6>
    9e04:	31 c9                	xor    %ecx,%ecx
    9e06:	31 c0                	xor    %eax,%eax
    9e08:	0f 1f 84 00 00 00 00 	nopl   0x0(%rax,%rax,1)
    9e0f:	00 
    9e10:	0f b6 34 0b          	movzbl (%rbx,%rcx,1),%esi
    9e14:	89 c1                	mov    %eax,%ecx
    9e16:	89 c2                	mov    %eax,%edx
    9e18:	83 e1 07             	and    $0x7,%ecx
    9e1b:	c1 ea 03             	shr    $0x3,%edx
    9e1e:	c1 e1 03             	shl    $0x3,%ecx
    9e21:	48 d3 e6             	shl    %cl,%rsi
    9e24:	8d 48 01             	lea    0x1(%rax),%ecx
    9e27:	49 31 34 d4          	xor    %rsi,(%r12,%rdx,8)
    9e2b:	48 89 c8             	mov    %rcx,%rax
    9e2e:	49 39 cd             	cmp    %rcx,%r13
    9e31:	77 dd                	ja     9e10 <pqcrystals_kyber_fips202_ref_sha3_512+0xf0>
    9e33:	89 ca                	mov    %ecx,%edx
    9e35:	83 e0 07             	and    $0x7,%eax
    9e38:	8d 0c c5 00 00 00 00 	lea    0x0(,%rax,8),%ecx
    9e3f:	c1 ea 03             	shr    $0x3,%edx
    9e42:	b8 06 00 00 00       	mov    $0x6,%eax
    9e47:	49 8d 14 d4          	lea    (%r12,%rdx,8),%rdx
    9e4b:	48 d3 e0             	shl    %cl,%rax
    9e4e:	48 31 02             	xor    %rax,(%rdx)
    9e51:	4c 89 e7             	mov    %r12,%rdi
    9e54:	48 0f ba 7c 24 70 3f 	btcq   $0x3f,0x70(%rsp)
    9e5b:	e8 40 bd ff ff       	call   5ba0 <KeccakF1600_StatePermute>
    9e60:	4c 8b 54 24 30       	mov    0x30(%rsp),%r10
    9e65:	4c 8b 4c 24 38       	mov    0x38(%rsp),%r9
    9e6a:	4c 8b 44 24 40       	mov    0x40(%rsp),%r8
    9e6f:	48 8b 5c 24 48       	mov    0x48(%rsp),%rbx
    9e74:	4c 89 d0             	mov    %r10,%rax
    9e77:	4d 89 d4             	mov    %r10,%r12
    9e7a:	4d 89 d7             	mov    %r10,%r15
    9e7d:	4c 89 d2             	mov    %r10,%rdx
    9e80:	48 c1 e8 20          	shr    $0x20,%rax
    9e84:	49 c1 ec 30          	shr    $0x30,%r12
    9e88:	4d 89 d3             	mov    %r10,%r11
    9e8b:	4d 89 cd             	mov    %r9,%r13
    9e8e:	48 89 04 24          	mov    %rax,(%rsp)
    9e92:	4c 89 c8             	mov    %r9,%rax
    9e95:	49 c1 ef 28          	shr    $0x28,%r15
    9e99:	45 0f b6 e4          	movzbl %r12b,%r12d
    9e9d:	48 c1 e8 28          	shr    $0x28,%rax
    9ea1:	4c 89 7c 24 18       	mov    %r15,0x18(%rsp)
    9ea6:	48 c1 ea 18          	shr    $0x18,%rdx
    9eaa:	4d 89 cf             	mov    %r9,%r15
    9ead:	48 89 44 24 20       	mov    %rax,0x20(%rsp)
    9eb2:	4c 89 c8             	mov    %r9,%rax
    9eb5:	49 c1 eb 10          	shr    $0x10,%r11
    9eb9:	4d 89 ce             	mov    %r9,%r14
    9ebc:	48 c1 e8 30          	shr    $0x30,%rax
    9ec0:	49 c1 ef 20          	shr    $0x20,%r15
    9ec4:	48 8b 7c 24 50       	mov    0x50(%rsp),%rdi
    9ec9:	48 8b 74 24 58       	mov    0x58(%rsp),%rsi
    9ece:	48 89 44 24 28       	mov    %rax,0x28(%rsp)
    9ed3:	49 c1 ed 10          	shr    $0x10,%r13
    9ed7:	4c 89 d0             	mov    %r10,%rax
    9eda:	49 c1 ee 18          	shr    $0x18,%r14
    9ede:	48 c1 e8 38          	shr    $0x38,%rax
    9ee2:	48 8b 4c 24 60       	mov    0x60(%rsp),%rcx
    9ee7:	48 c1 e0 08          	shl    $0x8,%rax
    9eeb:	4c 09 e0             	or     %r12,%rax
    9eee:	44 0f b6 64 24 18    	movzbl 0x18(%rsp),%r12d
    9ef4:	48 c1 e0 08          	shl    $0x8,%rax
    9ef8:	4c 09 e0             	or     %r12,%rax
    9efb:	44 0f b6 24 24       	movzbl (%rsp),%r12d
    9f00:	48 c1 e0 08          	shl    $0x8,%rax
    9f04:	4c 09 e0             	or     %r12,%rax
    9f07:	44 0f b6 e2          	movzbl %dl,%r12d
    9f0b:	4c 89 ca             	mov    %r9,%rdx
    9f0e:	48 c1 e0 08          	shl    $0x8,%rax
    9f12:	48 c1 ea 38          	shr    $0x38,%rdx
    9f16:	4c 09 e0             	or     %r12,%rax
    9f19:	45 0f b6 e3          	movzbl %r11b,%r12d
    9f1d:	48 c1 e0 08          	shl    $0x8,%rax
    9f21:	49 89 c3             	mov    %rax,%r11
    9f24:	4c 89 d0             	mov    %r10,%rax
    9f27:	45 0f b6 d2          	movzbl %r10b,%r10d
    9f2b:	4d 09 e3             	or     %r12,%r11
    9f2e:	0f b6 c4             	movzbl %ah,%eax
    9f31:	44 0f b6 64 24 28    	movzbl 0x28(%rsp),%r12d
    9f37:	49 c1 e3 08          	shl    $0x8,%r11
    9f3b:	49 09 c3             	or     %rax,%r11
    9f3e:	48 89 d0             	mov    %rdx,%rax
    9f41:	4c 89 ca             	mov    %r9,%rdx
    9f44:	45 0f b6 c9          	movzbl %r9b,%r9d
    9f48:	48 c1 e0 08          	shl    $0x8,%rax
    9f4c:	49 c1 e3 08          	shl    $0x8,%r11
    9f50:	0f b6 d6             	movzbl %dh,%edx
    9f53:	4c 09 e0             	or     %r12,%rax
    9f56:	44 0f b6 64 24 20    	movzbl 0x20(%rsp),%r12d
    9f5c:	48 c1 e0 08          	shl    $0x8,%rax
    9f60:	4c 09 e0             	or     %r12,%rax
    9f63:	45 0f b6 e7          	movzbl %r15b,%r12d
    9f67:	49 89 df             	mov    %rbx,%r15
    9f6a:	48 c1 e0 08          	shl    $0x8,%rax
    9f6e:	4d 09 d3             	or     %r10,%r11
    9f71:	49 89 da             	mov    %rbx,%r10
    9f74:	49 c1 ef 18          	shr    $0x18,%r15
    9f78:	4c 09 e0             	or     %r12,%rax
    9f7b:	45 0f b6 e6          	movzbl %r14b,%r12d
    9f7f:	4c 89 1c 24          	mov    %r11,(%rsp)
    9f83:	4d 89 c3             	mov    %r8,%r11
    9f86:	48 c1 e0 08          	shl    $0x8,%rax
    9f8a:	49 c1 eb 10          	shr    $0x10,%r11
    9f8e:	49 89 de             	mov    %rbx,%r14
    9f91:	49 c1 ea 20          	shr    $0x20,%r10
    9f95:	4c 09 e0             	or     %r12,%rax
    9f98:	45 0f b6 e5          	movzbl %r13b,%r12d
    9f9c:	4d 89 c5             	mov    %r8,%r13
    9f9f:	48 c1 e0 08          	shl    $0x8,%rax
    9fa3:	49 c1 ed 30          	shr    $0x30,%r13
    9fa7:	4c 89 54 24 18       	mov    %r10,0x18(%rsp)
    9fac:	49 89 da             	mov    %rbx,%r10
    9faf:	49 c1 ee 10          	shr    $0x10,%r14
    9fb3:	4c 09 e0             	or     %r12,%rax
    9fb6:	45 0f b6 ed          	movzbl %r13b,%r13d
    9fba:	4d 89 c4             	mov    %r8,%r12
    9fbd:	48 c1 e0 08          	shl    $0x8,%rax
    9fc1:	49 c1 ec 18          	shr    $0x18,%r12
    9fc5:	48 09 d0             	or     %rdx,%rax
    9fc8:	4c 89 c2             	mov    %r8,%rdx
    9fcb:	45 0f b6 e4          	movzbl %r12b,%r12d
    9fcf:	49 c1 ea 30          	shr    $0x30,%r10
    9fd3:	48 c1 e0 08          	shl    $0x8,%rax
    9fd7:	48 c1 ea 20          	shr    $0x20,%rdx
    9fdb:	45 0f b6 d2          	movzbl %r10b,%r10d
    9fdf:	4c 09 c8             	or     %r9,%rax
    9fe2:	49 89 d9             	mov    %rbx,%r9
    9fe5:	48 89 44 24 08       	mov    %rax,0x8(%rsp)
    9fea:	4c 89 c0             	mov    %r8,%rax
    9fed:	66 0f 6f 04 24       	movdqa (%rsp),%xmm0
    9ff2:	49 c1 e9 28          	shr    $0x28,%r9
    9ff6:	48 c1 e8 28          	shr    $0x28,%rax
    9ffa:	45 0f b6 c9          	movzbl %r9b,%r9d
    9ffe:	48 89 04 24          	mov    %rax,(%rsp)
    a002:	4c 89 c0             	mov    %r8,%rax
    a005:	48 c1 e8 38          	shr    $0x38,%rax
    a009:	0f 11 45 00          	movups %xmm0,0x0(%rbp)
    a00d:	48 c1 e0 08          	shl    $0x8,%rax
    a011:	4c 09 e8             	or     %r13,%rax
    a014:	44 0f b6 2c 24       	movzbl (%rsp),%r13d
    a019:	48 c1 e0 08          	shl    $0x8,%rax
    a01d:	4c 09 e8             	or     %r13,%rax
    a020:	44 0f b6 ea          	movzbl %dl,%r13d
    a024:	0f b6 d7             	movzbl %bh,%edx
    a027:	48 c1 e0 08          	shl    $0x8,%rax
    a02b:	4c 09 e8             	or     %r13,%rax
    a02e:	49 89 f5             	mov    %rsi,%r13
    a031:	48 c1 e0 08          	shl    $0x8,%rax
    a035:	4c 09 e0             	or     %r12,%rax
    a038:	45 0f b6 e3          	movzbl %r11b,%r12d
    a03c:	48 c1 e0 08          	shl    $0x8,%rax
    a040:	49 89 c3             	mov    %rax,%r11
    a043:	4c 89 c0             	mov    %r8,%rax
    a046:	45 0f b6 c0          	movzbl %r8b,%r8d
    a04a:	4d 09 e3             	or     %r12,%r11
    a04d:	0f b6 c4             	movzbl %ah,%eax
    a050:	49 89 fc             	mov    %rdi,%r12
    a053:	49 c1 e3 08          	shl    $0x8,%r11
    a057:	49 c1 ec 28          	shr    $0x28,%r12
    a05b:	49 09 c3             	or     %rax,%r11
    a05e:	48 89 d8             	mov    %rbx,%rax
    a061:	0f b6 db             	movzbl %bl,%ebx
    a064:	49 c1 ed 30          	shr    $0x30,%r13
    a068:	48 c1 e8 38          	shr    $0x38,%rax
    a06c:	49 c1 e3 08          	shl    $0x8,%r11
    a070:	45 0f b6 e4          	movzbl %r12b,%r12d
    a074:	48 c1 e0 08          	shl    $0x8,%rax
    a078:	4d 09 c3             	or     %r8,%r11
    a07b:	49 89 f0             	mov    %rsi,%r8
    a07e:	4c 09 d0             	or     %r10,%rax
    a081:	4c 89 1c 24          	mov    %r11,(%rsp)
    a085:	49 89 f2             	mov    %rsi,%r10
    a088:	49 89 f3             	mov    %rsi,%r11
    a08b:	48 c1 e0 08          	shl    $0x8,%rax
    a08f:	49 c1 e8 10          	shr    $0x10,%r8
    a093:	49 c1 ea 20          	shr    $0x20,%r10
    a097:	4c 09 c8             	or     %r9,%rax
    a09a:	49 c1 eb 28          	shr    $0x28,%r11
    a09e:	45 0f b6 c0          	movzbl %r8b,%r8d
    a0a2:	44 0f b6 4c 24 18    	movzbl 0x18(%rsp),%r9d
    a0a8:	48 c1 e0 08          	shl    $0x8,%rax
    a0ac:	45 0f b6 db          	movzbl %r11b,%r11d
    a0b0:	45 0f b6 d2          	movzbl %r10b,%r10d
    a0b4:	4c 09 c8             	or     %r9,%rax
    a0b7:	45 0f b6 cf          	movzbl %r15b,%r9d
    a0bb:	49 89 ff             	mov    %rdi,%r15
    a0be:	48 c1 e0 08          	shl    $0x8,%rax
    a0c2:	49 c1 ef 18          	shr    $0x18,%r15
    a0c6:	4c 09 c8             	or     %r9,%rax
    a0c9:	45 0f b6 ce          	movzbl %r14b,%r9d
    a0cd:	49 89 fe             	mov    %rdi,%r14
    a0d0:	48 c1 e0 08          	shl    $0x8,%rax
    a0d4:	49 c1 ee 10          	shr    $0x10,%r14
    a0d8:	4c 09 c8             	or     %r9,%rax
    a0db:	49 89 f1             	mov    %rsi,%r9
    a0de:	48 c1 e0 08          	shl    $0x8,%rax
    a0e2:	49 c1 e9 18          	shr    $0x18,%r9
    a0e6:	48 09 d0             	or     %rdx,%rax
    a0e9:	48 89 fa             	mov    %rdi,%rdx
    a0ec:	45 0f b6 c9          	movzbl %r9b,%r9d
    a0f0:	48 c1 e0 08          	shl    $0x8,%rax
    a0f4:	48 c1 ea 20          	shr    $0x20,%rdx
    a0f8:	48 09 d8             	or     %rbx,%rax
    a0fb:	48 89 fb             	mov    %rdi,%rbx
    a0fe:	48 89 44 24 08       	mov    %rax,0x8(%rsp)
    a103:	48 89 f8             	mov    %rdi,%rax
    a106:	48 c1 eb 30          	shr    $0x30,%rbx
    a10a:	66 0f 6f 0c 24       	movdqa (%rsp),%xmm1
    a10f:	48 c1 e8 38          	shr    $0x38,%rax
    a113:	0f b6 db             	movzbl %bl,%ebx
    a116:	48 c1 e0 08          	shl    $0x8,%rax
    a11a:	0f 11 4d 10          	movups %xmm1,0x10(%rbp)
    a11e:	48 09 d8             	or     %rbx,%rax
    a121:	48 c1 e0 08          	shl    $0x8,%rax
    a125:	4c 09 e0             	or     %r12,%rax
    a128:	45 0f b6 e5          	movzbl %r13b,%r12d
    a12c:	49 89 cd             	mov    %rcx,%r13
    a12f:	48 89 c3             	mov    %rax,%rbx
    a132:	0f b6 c2             	movzbl %dl,%eax
    a135:	48 89 f2             	mov    %rsi,%rdx
    a138:	49 c1 ed 28          	shr    $0x28,%r13
    a13c:	48 c1 e3 08          	shl    $0x8,%rbx
    a140:	0f b6 d6             	movzbl %dh,%edx
    a143:	45 0f b6 ed          	movzbl %r13b,%r13d
    a147:	48 09 c3             	or     %rax,%rbx
    a14a:	41 0f b6 c7          	movzbl %r15b,%eax
    a14e:	48 c1 e3 08          	shl    $0x8,%rbx
    a152:	48 09 c3             	or     %rax,%rbx
    a155:	41 0f b6 c6          	movzbl %r14b,%eax
    a159:	49 89 ce             	mov    %rcx,%r14
    a15c:	48 c1 e3 08          	shl    $0x8,%rbx
    a160:	49 c1 ee 30          	shr    $0x30,%r14
    a164:	48 09 c3             	or     %rax,%rbx
    a167:	48 89 f8             	mov    %rdi,%rax
    a16a:	40 0f b6 ff          	movzbl %dil,%edi
    a16e:	45 0f b6 f6          	movzbl %r14b,%r14d
    a172:	0f b6 c4             	movzbl %ah,%eax
    a175:	48 c1 e3 08          	shl    $0x8,%rbx
    a179:	48 09 c3             	or     %rax,%rbx
    a17c:	48 89 f0             	mov    %rsi,%rax
    a17f:	40 0f b6 f6          	movzbl %sil,%esi
    a183:	48 c1 e8 38          	shr    $0x38,%rax
    a187:	48 c1 e3 08          	shl    $0x8,%rbx
    a18b:	48 c1 e0 08          	shl    $0x8,%rax
    a18f:	48 09 fb             	or     %rdi,%rbx
    a192:	4c 09 e0             	or     %r12,%rax
    a195:	48 89 1c 24          	mov    %rbx,(%rsp)
    a199:	49 89 cc             	mov    %rcx,%r12
    a19c:	48 89 cb             	mov    %rcx,%rbx
    a19f:	48 c1 e0 08          	shl    $0x8,%rax
    a1a3:	48 c1 eb 18          	shr    $0x18,%rbx
    a1a7:	4c 09 d8             	or     %r11,%rax
    a1aa:	49 c1 ec 20          	shr    $0x20,%r12
    a1ae:	0f b6 db             	movzbl %bl,%ebx
    a1b1:	48 c1 e0 08          	shl    $0x8,%rax
    a1b5:	45 0f b6 e4          	movzbl %r12b,%r12d
    a1b9:	4c 09 d0             	or     %r10,%rax
    a1bc:	48 c1 e0 08          	shl    $0x8,%rax
    a1c0:	4c 09 c8             	or     %r9,%rax
    a1c3:	48 c1 e0 08          	shl    $0x8,%rax
    a1c7:	4c 09 c0             	or     %r8,%rax
    a1ca:	48 c1 e0 08          	shl    $0x8,%rax
    a1ce:	48 09 d0             	or     %rdx,%rax
    a1d1:	48 c1 e0 08          	shl    $0x8,%rax
    a1d5:	48 09 f0             	or     %rsi,%rax
    a1d8:	48 89 ce             	mov    %rcx,%rsi
    a1db:	48 89 44 24 08       	mov    %rax,0x8(%rsp)
    a1e0:	66 0f 6f 14 24       	movdqa (%rsp),%xmm2
    a1e5:	48 89 c8             	mov    %rcx,%rax
    a1e8:	48 8b 7c 24 68       	mov    0x68(%rsp),%rdi
    a1ed:	48 c1 e8 10          	shr    $0x10,%rax
    a1f1:	48 8b 54 24 68       	mov    0x68(%rsp),%rdx
    a1f6:	0f b6 c0             	movzbl %al,%eax
    a1f9:	0f 11 55 20          	movups %xmm2,0x20(%rbp)
    a1fd:	48 c1 ef 10          	shr    $0x10,%rdi
    a201:	48 c1 ee 38          	shr    $0x38,%rsi
    a205:	48 c1 e6 08          	shl    $0x8,%rsi
    a209:	48 c1 ea 18          	shr    $0x18,%rdx
    a20d:	40 0f b6 ff          	movzbl %dil,%edi
    a211:	4c 09 f6             	or     %r14,%rsi
    a214:	49 89 d0             	mov    %rdx,%r8
    a217:	48 8b 54 24 68       	mov    0x68(%rsp),%rdx
    a21c:	48 c1 e6 08          	shl    $0x8,%rsi
    a220:	45 0f b6 c0          	movzbl %r8b,%r8d
    a224:	4c 09 ee             	or     %r13,%rsi
    a227:	48 c1 ea 20          	shr    $0x20,%rdx
    a22b:	48 c1 e6 08          	shl    $0x8,%rsi
    a22f:	49 89 d1             	mov    %rdx,%r9
    a232:	48 8b 54 24 68       	mov    0x68(%rsp),%rdx
    a237:	4c 09 e6             	or     %r12,%rsi
    a23a:	45 0f b6 c9          	movzbl %r9b,%r9d
    a23e:	48 c1 e6 08          	shl    $0x8,%rsi
    a242:	48 c1 ea 28          	shr    $0x28,%rdx
    a246:	48 09 de             	or     %rbx,%rsi
    a249:	49 89 d2             	mov    %rdx,%r10
    a24c:	48 8b 54 24 68       	mov    0x68(%rsp),%rdx
    a251:	48 8b 5c 24 68       	mov    0x68(%rsp),%rbx
    a256:	48 c1 e6 08          	shl    $0x8,%rsi
    a25a:	45 0f b6 d2          	movzbl %r10b,%r10d
    a25e:	48 09 c6             	or     %rax,%rsi
    a261:	0f b6 c5             	movzbl %ch,%eax
    a264:	48 c1 ea 30          	shr    $0x30,%rdx
    a268:	0f b6 c9             	movzbl %cl,%ecx
    a26b:	48 c1 e6 08          	shl    $0x8,%rsi
    a26f:	44 0f b6 da          	movzbl %dl,%r11d
    a273:	0f b6 54 24 68       	movzbl 0x68(%rsp),%edx
    a278:	48 09 c6             	or     %rax,%rsi
    a27b:	48 8b 44 24 68       	mov    0x68(%rsp),%rax
    a280:	48 c1 e6 08          	shl    $0x8,%rsi
    a284:	48 c1 e8 38          	shr    $0x38,%rax
    a288:	48 c1 e0 08          	shl    $0x8,%rax
    a28c:	4c 09 d8             	or     %r11,%rax
    a28f:	48 c1 e0 08          	shl    $0x8,%rax
    a293:	4c 09 d0             	or     %r10,%rax
    a296:	48 c1 e0 08          	shl    $0x8,%rax
    a29a:	4c 09 c8             	or     %r9,%rax
    a29d:	48 c1 e0 08          	shl    $0x8,%rax
    a2a1:	4c 09 c0             	or     %r8,%rax
    a2a4:	48 c1 e0 08          	shl    $0x8,%rax
    a2a8:	48 09 f8             	or     %rdi,%rax
    a2ab:	0f b6 ff             	movzbl %bh,%edi
    a2ae:	48 c1 e0 08          	shl    $0x8,%rax
    a2b2:	48 09 f8             	or     %rdi,%rax
    a2b5:	48 c1 e0 08          	shl    $0x8,%rax
    a2b9:	48 09 ce             	or     %rcx,%rsi
    a2bc:	48 09 d0             	or     %rdx,%rax
    a2bf:	48 89 34 24          	mov    %rsi,(%rsp)
    a2c3:	48 89 44 24 08       	mov    %rax,0x8(%rsp)
    a2c8:	66 0f 6f 1c 24       	movdqa (%rsp),%xmm3
    a2cd:	0f 11 5d 30          	movups %xmm3,0x30(%rbp)
    a2d1:	48 8b 84 24 f8 00 00 	mov    0xf8(%rsp),%rax
    a2d8:	00 
    a2d9:	64 48 2b 04 25 28 00 	sub    %fs:0x28,%rax
    a2e0:	00 00 
    a2e2:	75 1f                	jne    a303 <pqcrystals_kyber_fips202_ref_sha3_512+0x5e3>
    a2e4:	48 81 c4 08 01 00 00 	add    $0x108,%rsp
    a2eb:	5b                   	pop    %rbx
    a2ec:	5d                   	pop    %rbp
    a2ed:	41 5c                	pop    %r12
    a2ef:	41 5d                	pop    %r13
    a2f1:	41 5e                	pop    %r14
    a2f3:	41 5f                	pop    %r15
    a2f5:	c3                   	ret    
    a2f6:	b8 06 00 00 00       	mov    $0x6,%eax
    a2fb:	4c 89 e2             	mov    %r12,%rdx
    a2fe:	e9 4b fb ff ff       	jmp    9e4e <pqcrystals_kyber_fips202_ref_sha3_512+0x12e>
    a303:	e8 78 6e ff ff       	call   1180 <__stack_chk_fail@plt>
    a308:	0f 1f 84 00 00 00 00 	nopl   0x0(%rax,%rax,1)
    a30f:	00 

000000000000a310 <pqcrystals_kyber1024_ref_kyber_shake128_absorb>:
    a310:	f3 0f 1e fa          	endbr64 
    a314:	48 83 ec 38          	sub    $0x38,%rsp
    a318:	f3 0f 6f 06          	movdqu (%rsi),%xmm0
    a31c:	f3 0f 6f 4e 10       	movdqu 0x10(%rsi),%xmm1
    a321:	64 48 8b 04 25 28 00 	mov    %fs:0x28,%rax
    a328:	00 00 
    a32a:	48 89 44 24 28       	mov    %rax,0x28(%rsp)
    a32f:	31 c0                	xor    %eax,%eax
    a331:	49 89 e0             	mov    %rsp,%r8
    a334:	4c 89 c6             	mov    %r8,%rsi
    a337:	0f 29 04 24          	movaps %xmm0,(%rsp)
    a33b:	0f 29 4c 24 10       	movaps %xmm1,0x10(%rsp)
    a340:	88 d0                	mov    %dl,%al
    a342:	ba 22 00 00 00       	mov    $0x22,%edx
    a347:	88 cc                	mov    %cl,%ah
    a349:	66 89 44 24 20       	mov    %ax,0x20(%rsp)
    a34e:	e8 ad d7 ff ff       	call   7b00 <pqcrystals_kyber_fips202_ref_shake128_absorb_once>
    a353:	48 8b 44 24 28       	mov    0x28(%rsp),%rax
    a358:	64 48 2b 04 25 28 00 	sub    %fs:0x28,%rax
    a35f:	00 00 
    a361:	75 05                	jne    a368 <pqcrystals_kyber1024_ref_kyber_shake128_absorb+0x58>
    a363:	48 83 c4 38          	add    $0x38,%rsp
    a367:	c3                   	ret    
    a368:	e8 13 6e ff ff       	call   1180 <__stack_chk_fail@plt>
    a36d:	0f 1f 00             	nopl   (%rax)

000000000000a370 <pqcrystals_kyber1024_ref_kyber_shake256_prf>:
    a370:	f3 0f 1e fa          	endbr64 
    a374:	48 83 ec 38          	sub    $0x38,%rsp
    a378:	f3 0f 6f 02          	movdqu (%rdx),%xmm0
    a37c:	f3 0f 6f 4a 10       	movdqu 0x10(%rdx),%xmm1
    a381:	64 48 8b 04 25 28 00 	mov    %fs:0x28,%rax
    a388:	00 00 
    a38a:	48 89 44 24 28       	mov    %rax,0x28(%rsp)
    a38f:	31 c0                	xor    %eax,%eax
    a391:	49 89 e0             	mov    %rsp,%r8
    a394:	88 4c 24 20          	mov    %cl,0x20(%rsp)
    a398:	b9 21 00 00 00       	mov    $0x21,%ecx
    a39d:	4c 89 c2             	mov    %r8,%rdx
    a3a0:	0f 29 04 24          	movaps %xmm0,(%rsp)
    a3a4:	0f 29 4c 24 10       	movaps %xmm1,0x10(%rsp)
    a3a9:	e8 12 f0 ff ff       	call   93c0 <pqcrystals_kyber_fips202_ref_shake256>
    a3ae:	48 8b 44 24 28       	mov    0x28(%rsp),%rax
    a3b3:	64 48 2b 04 25 28 00 	sub    %fs:0x28,%rax
    a3ba:	00 00 
    a3bc:	75 05                	jne    a3c3 <pqcrystals_kyber1024_ref_kyber_shake256_prf+0x53>
    a3be:	48 83 c4 38          	add    $0x38,%rsp
    a3c2:	c3                   	ret    
    a3c3:	e8 b8 6d ff ff       	call   1180 <__stack_chk_fail@plt>
    a3c8:	0f 1f 84 00 00 00 00 	nopl   0x0(%rax,%rax,1)
    a3cf:	00 

000000000000a3d0 <randombytes>:
    a3d0:	f3 0f 1e fa          	endbr64 
    a3d4:	55                   	push   %rbp
    a3d5:	48 89 fd             	mov    %rdi,%rbp
    a3d8:	53                   	push   %rbx
    a3d9:	48 89 f3             	mov    %rsi,%rbx
    a3dc:	48 83 ec 08          	sub    $0x8,%rsp
    a3e0:	48 85 f6             	test   %rsi,%rsi
    a3e3:	75 13                	jne    a3f8 <randombytes+0x28>
    a3e5:	eb 41                	jmp    a428 <randombytes+0x58>
    a3e7:	66 0f 1f 84 00 00 00 	nopw   0x0(%rax,%rax,1)
    a3ee:	00 00 
    a3f0:	48 01 c5             	add    %rax,%rbp
    a3f3:	48 29 c3             	sub    %rax,%rbx
    a3f6:	74 30                	je     a428 <randombytes+0x58>
    a3f8:	31 c9                	xor    %ecx,%ecx
    a3fa:	31 c0                	xor    %eax,%eax
    a3fc:	48 89 da             	mov    %rbx,%rdx
    a3ff:	48 89 ee             	mov    %rbp,%rsi
    a402:	bf 3e 01 00 00       	mov    $0x13e,%edi
    a407:	e8 c4 6d ff ff       	call   11d0 <syscall@plt>
    a40c:	48 83 f8 ff          	cmp    $0xffffffffffffffff,%rax
    a410:	75 de                	jne    a3f0 <randombytes+0x20>
    a412:	e8 39 6d ff ff       	call   1150 <__errno_location@plt>
    a417:	83 38 04             	cmpl   $0x4,(%rax)
    a41a:	74 dc                	je     a3f8 <randombytes+0x28>
    a41c:	e8 1f 6d ff ff       	call   1140 <abort@plt>
    a421:	0f 1f 80 00 00 00 00 	nopl   0x0(%rax)
    a428:	48 83 c4 08          	add    $0x8,%rsp
    a42c:	5b                   	pop    %rbx
    a42d:	5d                   	pop    %rbp
    a42e:	c3                   	ret    
    a42f:	90                   	nop

000000000000a430 <get_physical_addr>:
    a430:	f3 0f 1e fa          	endbr64 
    a434:	55                   	push   %rbp
    a435:	31 f6                	xor    %esi,%esi
    a437:	53                   	push   %rbx
    a438:	48 89 fb             	mov    %rdi,%rbx
    a43b:	48 8d 3d be 0e 00 00 	lea    0xebe(%rip),%rdi        # b300 <KeccakF_RoundConstants+0xc0>
    a442:	48 83 ec 18          	sub    $0x18,%rsp
    a446:	64 48 8b 04 25 28 00 	mov    %fs:0x28,%rax
    a44d:	00 00 
    a44f:	48 89 44 24 08       	mov    %rax,0x8(%rsp)
    a454:	31 c0                	xor    %eax,%eax
    a456:	e8 95 6d ff ff       	call   11f0 <open@plt>
    a45b:	85 c0                	test   %eax,%eax
    a45d:	78 6f                	js     a4ce <get_physical_addr+0x9e>
    a45f:	48 89 de             	mov    %rbx,%rsi
    a462:	31 d2                	xor    %edx,%edx
    a464:	89 c7                	mov    %eax,%edi
    a466:	89 c5                	mov    %eax,%ebp
    a468:	48 c1 ee 0c          	shr    $0xc,%rsi
    a46c:	48 c1 e6 03          	shl    $0x3,%rsi
    a470:	e8 1b 6d ff ff       	call   1190 <lseek@plt>
    a475:	48 85 c0             	test   %rax,%rax
    a478:	0f 88 d1 00 00 00    	js     a54f <get_physical_addr+0x11f>
    a47e:	48 89 e6             	mov    %rsp,%rsi
    a481:	ba 08 00 00 00       	mov    $0x8,%edx
    a486:	89 ef                	mov    %ebp,%edi
    a488:	e8 33 6d ff ff       	call   11c0 <read@plt>
    a48d:	83 f8 08             	cmp    $0x8,%eax
    a490:	0f 85 9a 00 00 00    	jne    a530 <get_physical_addr+0x100>
    a496:	89 ef                	mov    %ebp,%edi
    a498:	e8 13 6d ff ff       	call   11b0 <close@plt>
    a49d:	85 c0                	test   %eax,%eax
    a49f:	75 70                	jne    a511 <get_physical_addr+0xe1>
    a4a1:	48 8b 04 24          	mov    (%rsp),%rax
    a4a5:	48 85 c0             	test   %rax,%rax
    a4a8:	79 48                	jns    a4f2 <get_physical_addr+0xc2>
    a4aa:	48 c1 e0 0c          	shl    $0xc,%rax
    a4ae:	81 e3 ff 0f 00 00    	and    $0xfff,%ebx
    a4b4:	48 09 d8             	or     %rbx,%rax
    a4b7:	48 8b 54 24 08       	mov    0x8(%rsp),%rdx
    a4bc:	64 48 2b 14 25 28 00 	sub    %fs:0x28,%rdx
    a4c3:	00 00 
    a4c5:	75 26                	jne    a4ed <get_physical_addr+0xbd>
    a4c7:	48 83 c4 18          	add    $0x18,%rsp
    a4cb:	5b                   	pop    %rbx
    a4cc:	5d                   	pop    %rbp
    a4cd:	c3                   	ret    
    a4ce:	48 8d 0d 3b 0f 00 00 	lea    0xf3b(%rip),%rcx        # b410 <__PRETTY_FUNCTION__.0>
    a4d5:	ba 1a 00 00 00       	mov    $0x1a,%edx
    a4da:	48 8d 35 32 0e 00 00 	lea    0xe32(%rip),%rsi        # b313 <KeccakF_RoundConstants+0xd3>
    a4e1:	48 8d 3d 38 0e 00 00 	lea    0xe38(%rip),%rdi        # b320 <KeccakF_RoundConstants+0xe0>
    a4e8:	e8 b3 6c ff ff       	call   11a0 <__assert_fail@plt>
    a4ed:	e8 8e 6c ff ff       	call   1180 <__stack_chk_fail@plt>
    a4f2:	48 8d 0d 17 0f 00 00 	lea    0xf17(%rip),%rcx        # b410 <__PRETTY_FUNCTION__.0>
    a4f9:	ba 25 00 00 00       	mov    $0x25,%edx
    a4fe:	48 8d 35 0e 0e 00 00 	lea    0xe0e(%rip),%rsi        # b313 <KeccakF_RoundConstants+0xd3>
    a505:	48 8d 3d 36 0e 00 00 	lea    0xe36(%rip),%rdi        # b342 <KeccakF_RoundConstants+0x102>
    a50c:	e8 8f 6c ff ff       	call   11a0 <__assert_fail@plt>
    a511:	48 8d 0d f8 0e 00 00 	lea    0xef8(%rip),%rcx        # b410 <__PRETTY_FUNCTION__.0>
    a518:	ba 22 00 00 00       	mov    $0x22,%edx
    a51d:	48 8d 35 ef 0d 00 00 	lea    0xdef(%rip),%rsi        # b313 <KeccakF_RoundConstants+0xd3>
    a524:	48 8d 3d 0f 0e 00 00 	lea    0xe0f(%rip),%rdi        # b33a <KeccakF_RoundConstants+0xfa>
    a52b:	e8 70 6c ff ff       	call   11a0 <__assert_fail@plt>
    a530:	48 8d 0d d9 0e 00 00 	lea    0xed9(%rip),%rcx        # b410 <__PRETTY_FUNCTION__.0>
    a537:	ba 20 00 00 00       	mov    $0x20,%edx
    a53c:	48 8d 35 d0 0d 00 00 	lea    0xdd0(%rip),%rsi        # b313 <KeccakF_RoundConstants+0xd3>
    a543:	48 8d 3d e7 0d 00 00 	lea    0xde7(%rip),%rdi        # b331 <KeccakF_RoundConstants+0xf1>
    a54a:	e8 51 6c ff ff       	call   11a0 <__assert_fail@plt>
    a54f:	48 8d 0d ba 0e 00 00 	lea    0xeba(%rip),%rcx        # b410 <__PRETTY_FUNCTION__.0>
    a556:	ba 1d 00 00 00       	mov    $0x1d,%edx
    a55b:	48 8d 35 b1 0d 00 00 	lea    0xdb1(%rip),%rsi        # b313 <KeccakF_RoundConstants+0xd3>
    a562:	48 8d 3d bf 0d 00 00 	lea    0xdbf(%rip),%rdi        # b328 <KeccakF_RoundConstants+0xe8>
    a569:	e8 32 6c ff ff       	call   11a0 <__assert_fail@plt>
    a56e:	66 90                	xchg   %ax,%ax

000000000000a570 <test_keys>:
    a570:	41 57                	push   %r15
    a572:	41 56                	push   %r14
    a574:	41 55                	push   %r13
    a576:	41 54                	push   %r12
    a578:	55                   	push   %rbp
    a579:	53                   	push   %rbx
    a57a:	48 81 ec 00 10 00 00 	sub    $0x1000,%rsp
    a581:	48 83 0c 24 00       	orq    $0x0,(%rsp)
    a586:	48 81 ec f8 08 00 00 	sub    $0x8f8,%rsp
    a58d:	48 8d 2d cc 3c 00 00 	lea    0x3ccc(%rip),%rbp        # e260 <e_copy+0x200>
    a594:	4c 8d 25 c9 0d 00 00 	lea    0xdc9(%rip),%r12        # b364 <KeccakF_RoundConstants+0x124>
    a59b:	4c 8d ad 00 08 00 00 	lea    0x800(%rbp),%r13
    a5a2:	64 48 8b 04 25 28 00 	mov    %fs:0x28,%rax
    a5a9:	00 00 
    a5ab:	48 89 84 24 e8 18 00 	mov    %rax,0x18e8(%rsp)
    a5b2:	00 
    a5b3:	31 c0                	xor    %eax,%eax
    a5b5:	4c 8d b4 24 80 0c 00 	lea    0xc80(%rsp),%r14
    a5bc:	00 
    a5bd:	4c 8d 7c 24 40       	lea    0x40(%rsp),%r15
    a5c2:	4c 89 f6             	mov    %r14,%rsi
    a5c5:	4c 89 ff             	mov    %r15,%rdi
    a5c8:	e8 53 70 ff ff       	call   1620 <pqcrystals_kyber1024_ref_keypair>
    a5cd:	48 8b 3d 6c 3a 00 00 	mov    0x3a6c(%rip),%rdi        # e040 <e_phys>
    a5d4:	e8 57 fe ff ff       	call   a430 <get_physical_addr>
    a5d9:	48 8d 35 77 0d 00 00 	lea    0xd77(%rip),%rsi        # b357 <KeccakF_RoundConstants+0x117>
    a5e0:	bf 01 00 00 00       	mov    $0x1,%edi
    a5e5:	48 89 c2             	mov    %rax,%rdx
    a5e8:	31 c0                	xor    %eax,%eax
    a5ea:	e8 f1 6b ff ff       	call   11e0 <__printf_chk@plt>
    a5ef:	48 8d 3d ea 0d 00 00 	lea    0xdea(%rip),%rdi        # b3e0 <KeccakF_RoundConstants+0x1a0>
    a5f6:	e8 65 6b ff ff       	call   1160 <puts@plt>
    a5fb:	48 8d 9d 00 fe ff ff 	lea    -0x200(%rbp),%rbx
    a602:	66 0f 1f 44 00 00    	nopw   0x0(%rax,%rax,1)
    a608:	0f bf 13             	movswl (%rbx),%edx
    a60b:	4c 89 e6             	mov    %r12,%rsi
    a60e:	bf 01 00 00 00       	mov    $0x1,%edi
    a613:	31 c0                	xor    %eax,%eax
    a615:	48 83 c3 02          	add    $0x2,%rbx
    a619:	e8 c2 6b ff ff       	call   11e0 <__printf_chk@plt>
    a61e:	48 39 eb             	cmp    %rbp,%rbx
    a621:	75 e5                	jne    a608 <test_keys+0x98>
    a623:	bf 0a 00 00 00       	mov    $0xa,%edi
    a628:	48 8d ab 00 02 00 00 	lea    0x200(%rbx),%rbp
    a62f:	e8 fc 6a ff ff       	call   1130 <putchar@plt>
    a634:	4c 39 ed             	cmp    %r13,%rbp
    a637:	75 c2                	jne    a5fb <test_keys+0x8b>
    a639:	48 8d 2d 29 0d 00 00 	lea    0xd29(%rip),%rbp        # b369 <KeccakF_RoundConstants+0x129>
    a640:	48 8d 3d 24 0d 00 00 	lea    0xd24(%rip),%rdi        # b36b <KeccakF_RoundConstants+0x12b>
    a647:	48 89 ee             	mov    %rbp,%rsi
    a64a:	e8 b1 6b ff ff       	call   1200 <fopen@plt>
    a64f:	48 89 ee             	mov    %rbp,%rsi
    a652:	48 8d 3d 1b 0d 00 00 	lea    0xd1b(%rip),%rdi        # b374 <KeccakF_RoundConstants+0x134>
    a659:	49 89 c4             	mov    %rax,%r12
    a65c:	e8 9f 6b ff ff       	call   1200 <fopen@plt>
    a661:	4c 89 e1             	mov    %r12,%rcx
    a664:	ba 20 06 00 00       	mov    $0x620,%edx
    a669:	4c 89 ff             	mov    %r15,%rdi
    a66c:	be 01 00 00 00       	mov    $0x1,%esi
    a671:	48 89 c5             	mov    %rax,%rbp
    a674:	e8 97 6b ff ff       	call   1210 <fwrite@plt>
    a679:	4c 89 e7             	mov    %r12,%rdi
    a67c:	e8 ef 6a ff ff       	call   1170 <fclose@plt>
    a681:	48 89 e9             	mov    %rbp,%rcx
    a684:	ba 60 0c 00 00       	mov    $0xc60,%edx
    a689:	4c 89 f7             	mov    %r14,%rdi
    a68c:	be 01 00 00 00       	mov    $0x1,%esi
    a691:	e8 7a 6b ff ff       	call   1210 <fwrite@plt>
    a696:	48 89 ef             	mov    %rbp,%rdi
    a699:	48 8d ac 24 60 06 00 	lea    0x660(%rsp),%rbp
    a6a0:	00 
    a6a1:	e8 ca 6a ff ff       	call   1170 <fclose@plt>
    a6a6:	48 8d 74 24 20       	lea    0x20(%rsp),%rsi
    a6ab:	4c 89 fa             	mov    %r15,%rdx
    a6ae:	48 89 ef             	mov    %rbp,%rdi
    a6b1:	e8 0a 70 ff ff       	call   16c0 <pqcrystals_kyber1024_ref_enc>
    a6b6:	4c 89 f2             	mov    %r14,%rdx
    a6b9:	48 89 e7             	mov    %rsp,%rdi
    a6bc:	48 89 ee             	mov    %rbp,%rsi
    a6bf:	e8 dc 70 ff ff       	call   17a0 <pqcrystals_kyber1024_ref_dec>
    a6c4:	48 8b 44 24 08       	mov    0x8(%rsp),%rax
    a6c9:	48 8b 14 24          	mov    (%rsp),%rdx
    a6cd:	48 33 44 24 28       	xor    0x28(%rsp),%rax
    a6d2:	48 33 54 24 20       	xor    0x20(%rsp),%rdx
    a6d7:	48 09 d0             	or     %rdx,%rax
    a6da:	75 19                	jne    a6f5 <test_keys+0x185>
    a6dc:	48 8b 44 24 18       	mov    0x18(%rsp),%rax
    a6e1:	48 8b 54 24 10       	mov    0x10(%rsp),%rdx
    a6e6:	48 33 44 24 38       	xor    0x38(%rsp),%rax
    a6eb:	48 33 54 24 30       	xor    0x30(%rsp),%rdx
    a6f0:	48 09 d0             	or     %rdx,%rax
    a6f3:	74 36                	je     a72b <test_keys+0x1bb>
    a6f5:	48 8d 3d 81 0c 00 00 	lea    0xc81(%rip),%rdi        # b37d <KeccakF_RoundConstants+0x13d>
    a6fc:	e8 5f 6a ff ff       	call   1160 <puts@plt>
    a701:	b8 01 00 00 00       	mov    $0x1,%eax
    a706:	48 8b 94 24 e8 18 00 	mov    0x18e8(%rsp),%rdx
    a70d:	00 
    a70e:	64 48 2b 14 25 28 00 	sub    %fs:0x28,%rdx
    a715:	00 00 
    a717:	75 16                	jne    a72f <test_keys+0x1bf>
    a719:	48 81 c4 f8 18 00 00 	add    $0x18f8,%rsp
    a720:	5b                   	pop    %rbx
    a721:	5d                   	pop    %rbp
    a722:	41 5c                	pop    %r12
    a724:	41 5d                	pop    %r13
    a726:	41 5e                	pop    %r14
    a728:	41 5f                	pop    %r15
    a72a:	c3                   	ret    
    a72b:	31 c0                	xor    %eax,%eax
    a72d:	eb d7                	jmp    a706 <test_keys+0x196>
    a72f:	e8 4c 6a ff ff       	call   1180 <__stack_chk_fail@plt>

Disassembly of section .fini:

000000000000a734 <_fini>:
    a734:	f3 0f 1e fa          	endbr64 
    a738:	48 83 ec 08          	sub    $0x8,%rsp
    a73c:	48 83 c4 08          	add    $0x8,%rsp
    a740:	c3                   	ret    
