
test_kyber1024:     file format elf64-x86-64


Disassembly of section .init:

0000000000001000 <_init>:
    1000:	f3 0f 1e fa          	endbr64 
    1004:	48 83 ec 08          	sub    $0x8,%rsp
    1008:	48 8b 05 d9 cf 00 00 	mov    0xcfd9(%rip),%rax        # dfe8 <__gmon_start__@Base>
    100f:	48 85 c0             	test   %rax,%rax
    1012:	74 02                	je     1016 <_init+0x16>
    1014:	ff d0                	call   *%rax
    1016:	48 83 c4 08          	add    $0x8,%rsp
    101a:	c3                   	ret    

Disassembly of section .plt:

0000000000001020 <.plt>:
    1020:	ff 35 2a cf 00 00    	push   0xcf2a(%rip)        # df50 <_GLOBAL_OFFSET_TABLE_+0x8>
    1026:	f2 ff 25 2b cf 00 00 	bnd jmp *0xcf2b(%rip)        # df58 <_GLOBAL_OFFSET_TABLE_+0x10>
    102d:	0f 1f 00             	nopl   (%rax)
    1030:	f3 0f 1e fa          	endbr64 
    1034:	68 00 00 00 00       	push   $0x0
    1039:	f2 e9 e1 ff ff ff    	bnd jmp 1020 <_init+0x20>
    103f:	90                   	nop
    1040:	f3 0f 1e fa          	endbr64 
    1044:	68 01 00 00 00       	push   $0x1
    1049:	f2 e9 d1 ff ff ff    	bnd jmp 1020 <_init+0x20>
    104f:	90                   	nop
    1050:	f3 0f 1e fa          	endbr64 
    1054:	68 02 00 00 00       	push   $0x2
    1059:	f2 e9 c1 ff ff ff    	bnd jmp 1020 <_init+0x20>
    105f:	90                   	nop
    1060:	f3 0f 1e fa          	endbr64 
    1064:	68 03 00 00 00       	push   $0x3
    1069:	f2 e9 b1 ff ff ff    	bnd jmp 1020 <_init+0x20>
    106f:	90                   	nop
    1070:	f3 0f 1e fa          	endbr64 
    1074:	68 04 00 00 00       	push   $0x4
    1079:	f2 e9 a1 ff ff ff    	bnd jmp 1020 <_init+0x20>
    107f:	90                   	nop
    1080:	f3 0f 1e fa          	endbr64 
    1084:	68 05 00 00 00       	push   $0x5
    1089:	f2 e9 91 ff ff ff    	bnd jmp 1020 <_init+0x20>
    108f:	90                   	nop
    1090:	f3 0f 1e fa          	endbr64 
    1094:	68 06 00 00 00       	push   $0x6
    1099:	f2 e9 81 ff ff ff    	bnd jmp 1020 <_init+0x20>
    109f:	90                   	nop
    10a0:	f3 0f 1e fa          	endbr64 
    10a4:	68 07 00 00 00       	push   $0x7
    10a9:	f2 e9 71 ff ff ff    	bnd jmp 1020 <_init+0x20>
    10af:	90                   	nop
    10b0:	f3 0f 1e fa          	endbr64 
    10b4:	68 08 00 00 00       	push   $0x8
    10b9:	f2 e9 61 ff ff ff    	bnd jmp 1020 <_init+0x20>
    10bf:	90                   	nop
    10c0:	f3 0f 1e fa          	endbr64 
    10c4:	68 09 00 00 00       	push   $0x9
    10c9:	f2 e9 51 ff ff ff    	bnd jmp 1020 <_init+0x20>
    10cf:	90                   	nop
    10d0:	f3 0f 1e fa          	endbr64 
    10d4:	68 0a 00 00 00       	push   $0xa
    10d9:	f2 e9 41 ff ff ff    	bnd jmp 1020 <_init+0x20>
    10df:	90                   	nop
    10e0:	f3 0f 1e fa          	endbr64 
    10e4:	68 0b 00 00 00       	push   $0xb
    10e9:	f2 e9 31 ff ff ff    	bnd jmp 1020 <_init+0x20>
    10ef:	90                   	nop
    10f0:	f3 0f 1e fa          	endbr64 
    10f4:	68 0c 00 00 00       	push   $0xc
    10f9:	f2 e9 21 ff ff ff    	bnd jmp 1020 <_init+0x20>
    10ff:	90                   	nop
    1100:	f3 0f 1e fa          	endbr64 
    1104:	68 0d 00 00 00       	push   $0xd
    1109:	f2 e9 11 ff ff ff    	bnd jmp 1020 <_init+0x20>
    110f:	90                   	nop
    1110:	f3 0f 1e fa          	endbr64 
    1114:	68 0e 00 00 00       	push   $0xe
    1119:	f2 e9 01 ff ff ff    	bnd jmp 1020 <_init+0x20>
    111f:	90                   	nop

Disassembly of section .plt.got:

0000000000001120 <__cxa_finalize@plt>:
    1120:	f3 0f 1e fa          	endbr64 
    1124:	f2 ff 25 cd ce 00 00 	bnd jmp *0xcecd(%rip)        # dff8 <__cxa_finalize@GLIBC_2.2.5>
    112b:	0f 1f 44 00 00       	nopl   0x0(%rax,%rax,1)

Disassembly of section .plt.sec:

0000000000001130 <putchar@plt>:
    1130:	f3 0f 1e fa          	endbr64 
    1134:	f2 ff 25 25 ce 00 00 	bnd jmp *0xce25(%rip)        # df60 <putchar@GLIBC_2.2.5>
    113b:	0f 1f 44 00 00       	nopl   0x0(%rax,%rax,1)

0000000000001140 <abort@plt>:
    1140:	f3 0f 1e fa          	endbr64 
    1144:	f2 ff 25 1d ce 00 00 	bnd jmp *0xce1d(%rip)        # df68 <abort@GLIBC_2.2.5>
    114b:	0f 1f 44 00 00       	nopl   0x0(%rax,%rax,1)

0000000000001150 <__errno_location@plt>:
    1150:	f3 0f 1e fa          	endbr64 
    1154:	f2 ff 25 15 ce 00 00 	bnd jmp *0xce15(%rip)        # df70 <__errno_location@GLIBC_2.2.5>
    115b:	0f 1f 44 00 00       	nopl   0x0(%rax,%rax,1)

0000000000001160 <puts@plt>:
    1160:	f3 0f 1e fa          	endbr64 
    1164:	f2 ff 25 0d ce 00 00 	bnd jmp *0xce0d(%rip)        # df78 <puts@GLIBC_2.2.5>
    116b:	0f 1f 44 00 00       	nopl   0x0(%rax,%rax,1)

0000000000001170 <fclose@plt>:
    1170:	f3 0f 1e fa          	endbr64 
    1174:	f2 ff 25 05 ce 00 00 	bnd jmp *0xce05(%rip)        # df80 <fclose@GLIBC_2.2.5>
    117b:	0f 1f 44 00 00       	nopl   0x0(%rax,%rax,1)

0000000000001180 <__stack_chk_fail@plt>:
    1180:	f3 0f 1e fa          	endbr64 
    1184:	f2 ff 25 fd cd 00 00 	bnd jmp *0xcdfd(%rip)        # df88 <__stack_chk_fail@GLIBC_2.4>
    118b:	0f 1f 44 00 00       	nopl   0x0(%rax,%rax,1)

0000000000001190 <lseek@plt>:
    1190:	f3 0f 1e fa          	endbr64 
    1194:	f2 ff 25 f5 cd 00 00 	bnd jmp *0xcdf5(%rip)        # df90 <lseek@GLIBC_2.2.5>
    119b:	0f 1f 44 00 00       	nopl   0x0(%rax,%rax,1)

00000000000011a0 <__assert_fail@plt>:
    11a0:	f3 0f 1e fa          	endbr64 
    11a4:	f2 ff 25 ed cd 00 00 	bnd jmp *0xcded(%rip)        # df98 <__assert_fail@GLIBC_2.2.5>
    11ab:	0f 1f 44 00 00       	nopl   0x0(%rax,%rax,1)

00000000000011b0 <close@plt>:
    11b0:	f3 0f 1e fa          	endbr64 
    11b4:	f2 ff 25 e5 cd 00 00 	bnd jmp *0xcde5(%rip)        # dfa0 <close@GLIBC_2.2.5>
    11bb:	0f 1f 44 00 00       	nopl   0x0(%rax,%rax,1)

00000000000011c0 <read@plt>:
    11c0:	f3 0f 1e fa          	endbr64 
    11c4:	f2 ff 25 dd cd 00 00 	bnd jmp *0xcddd(%rip)        # dfa8 <read@GLIBC_2.2.5>
    11cb:	0f 1f 44 00 00       	nopl   0x0(%rax,%rax,1)

00000000000011d0 <syscall@plt>:
    11d0:	f3 0f 1e fa          	endbr64 
    11d4:	f2 ff 25 d5 cd 00 00 	bnd jmp *0xcdd5(%rip)        # dfb0 <syscall@GLIBC_2.2.5>
    11db:	0f 1f 44 00 00       	nopl   0x0(%rax,%rax,1)

00000000000011e0 <__printf_chk@plt>:
    11e0:	f3 0f 1e fa          	endbr64 
    11e4:	f2 ff 25 cd cd 00 00 	bnd jmp *0xcdcd(%rip)        # dfb8 <__printf_chk@GLIBC_2.3.4>
    11eb:	0f 1f 44 00 00       	nopl   0x0(%rax,%rax,1)

00000000000011f0 <open@plt>:
    11f0:	f3 0f 1e fa          	endbr64 
    11f4:	f2 ff 25 c5 cd 00 00 	bnd jmp *0xcdc5(%rip)        # dfc0 <open@GLIBC_2.2.5>
    11fb:	0f 1f 44 00 00       	nopl   0x0(%rax,%rax,1)

0000000000001200 <fopen@plt>:
    1200:	f3 0f 1e fa          	endbr64 
    1204:	f2 ff 25 bd cd 00 00 	bnd jmp *0xcdbd(%rip)        # dfc8 <fopen@GLIBC_2.2.5>
    120b:	0f 1f 44 00 00       	nopl   0x0(%rax,%rax,1)

0000000000001210 <fwrite@plt>:
    1210:	f3 0f 1e fa          	endbr64 
    1214:	f2 ff 25 b5 cd 00 00 	bnd jmp *0xcdb5(%rip)        # dfd0 <fwrite@GLIBC_2.2.5>
    121b:	0f 1f 44 00 00       	nopl   0x0(%rax,%rax,1)

Disassembly of section .text:

0000000000001220 <main>:
    1220:	f3 0f 1e fa          	endbr64 
    1224:	41 54                	push   %r12
    1226:	41 bc 01 00 00 00    	mov    $0x1,%r12d
    122c:	e8 3f 93 00 00       	call   a570 <test_keys>
    1231:	85 c0                	test   %eax,%eax
    1233:	74 06                	je     123b <main+0x1b>
    1235:	44 89 e0             	mov    %r12d,%eax
    1238:	41 5c                	pop    %r12
    123a:	c3                   	ret    
    123b:	41 89 c4             	mov    %eax,%r12d
    123e:	ba 60 0c 00 00       	mov    $0xc60,%edx
    1243:	48 8d 35 3e a1 00 00 	lea    0xa13e(%rip),%rsi        # b388 <KeccakF_RoundConstants+0x148>
    124a:	31 c0                	xor    %eax,%eax
    124c:	bf 01 00 00 00       	mov    $0x1,%edi
    1251:	e8 8a ff ff ff       	call   11e0 <__printf_chk@plt>
    1256:	ba 20 06 00 00       	mov    $0x620,%edx
    125b:	48 8d 35 42 a1 00 00 	lea    0xa142(%rip),%rsi        # b3a4 <KeccakF_RoundConstants+0x164>
    1262:	31 c0                	xor    %eax,%eax
    1264:	bf 01 00 00 00       	mov    $0x1,%edi
    1269:	e8 72 ff ff ff       	call   11e0 <__printf_chk@plt>
    126e:	ba 20 06 00 00       	mov    $0x620,%edx
    1273:	48 8d 35 46 a1 00 00 	lea    0xa146(%rip),%rsi        # b3c0 <KeccakF_RoundConstants+0x180>
    127a:	31 c0                	xor    %eax,%eax
    127c:	bf 01 00 00 00       	mov    $0x1,%edi
    1281:	e8 5a ff ff ff       	call   11e0 <__printf_chk@plt>
    1286:	eb ad                	jmp    1235 <main+0x15>
    1288:	0f 1f 84 00 00 00 00 	nopl   0x0(%rax,%rax,1)
    128f:	00 

0000000000001290 <_start>:
    1290:	f3 0f 1e fa          	endbr64 
    1294:	31 ed                	xor    %ebp,%ebp
    1296:	49 89 d1             	mov    %rdx,%r9
    1299:	5e                   	pop    %rsi
    129a:	48 89 e2             	mov    %rsp,%rdx
    129d:	48 83 e4 f0          	and    $0xfffffffffffffff0,%rsp
    12a1:	50                   	push   %rax
    12a2:	54                   	push   %rsp
    12a3:	45 31 c0             	xor    %r8d,%r8d
    12a6:	31 c9                	xor    %ecx,%ecx
    12a8:	48 8d 3d 71 ff ff ff 	lea    -0x8f(%rip),%rdi        # 1220 <main>
    12af:	ff 15 23 cd 00 00    	call   *0xcd23(%rip)        # dfd8 <__libc_start_main@GLIBC_2.34>
    12b5:	f4                   	hlt    
    12b6:	66 2e 0f 1f 84 00 00 	cs nopw 0x0(%rax,%rax,1)
    12bd:	00 00 00 

00000000000012c0 <deregister_tm_clones>:
    12c0:	48 8d 3d 49 cd 00 00 	lea    0xcd49(%rip),%rdi        # e010 <__TMC_END__>
    12c7:	48 8d 05 42 cd 00 00 	lea    0xcd42(%rip),%rax        # e010 <__TMC_END__>
    12ce:	48 39 f8             	cmp    %rdi,%rax
    12d1:	74 15                	je     12e8 <deregister_tm_clones+0x28>
    12d3:	48 8b 05 06 cd 00 00 	mov    0xcd06(%rip),%rax        # dfe0 <_ITM_deregisterTMCloneTable@Base>
    12da:	48 85 c0             	test   %rax,%rax
    12dd:	74 09                	je     12e8 <deregister_tm_clones+0x28>
    12df:	ff e0                	jmp    *%rax
    12e1:	0f 1f 80 00 00 00 00 	nopl   0x0(%rax)
    12e8:	c3                   	ret    
    12e9:	0f 1f 80 00 00 00 00 	nopl   0x0(%rax)

00000000000012f0 <register_tm_clones>:
    12f0:	48 8d 3d 19 cd 00 00 	lea    0xcd19(%rip),%rdi        # e010 <__TMC_END__>
    12f7:	48 8d 35 12 cd 00 00 	lea    0xcd12(%rip),%rsi        # e010 <__TMC_END__>
    12fe:	48 29 fe             	sub    %rdi,%rsi
    1301:	48 89 f0             	mov    %rsi,%rax
    1304:	48 c1 ee 3f          	shr    $0x3f,%rsi
    1308:	48 c1 f8 03          	sar    $0x3,%rax
    130c:	48 01 c6             	add    %rax,%rsi
    130f:	48 d1 fe             	sar    %rsi
    1312:	74 14                	je     1328 <register_tm_clones+0x38>
    1314:	48 8b 05 d5 cc 00 00 	mov    0xccd5(%rip),%rax        # dff0 <_ITM_registerTMCloneTable@Base>
    131b:	48 85 c0             	test   %rax,%rax
    131e:	74 08                	je     1328 <register_tm_clones+0x38>
    1320:	ff e0                	jmp    *%rax
    1322:	66 0f 1f 44 00 00    	nopw   0x0(%rax,%rax,1)
    1328:	c3                   	ret    
    1329:	0f 1f 80 00 00 00 00 	nopl   0x0(%rax)

0000000000001330 <__do_global_dtors_aux>:
    1330:	f3 0f 1e fa          	endbr64 
    1334:	80 3d e5 cc 00 00 00 	cmpb   $0x0,0xcce5(%rip)        # e020 <completed.0>
    133b:	75 2b                	jne    1368 <__do_global_dtors_aux+0x38>
    133d:	55                   	push   %rbp
    133e:	48 83 3d b2 cc 00 00 	cmpq   $0x0,0xccb2(%rip)        # dff8 <__cxa_finalize@GLIBC_2.2.5>
    1345:	00 
    1346:	48 89 e5             	mov    %rsp,%rbp
    1349:	74 0c                	je     1357 <__do_global_dtors_aux+0x27>
    134b:	48 8b 3d b6 cc 00 00 	mov    0xccb6(%rip),%rdi        # e008 <__dso_handle>
    1352:	e8 c9 fd ff ff       	call   1120 <__cxa_finalize@plt>
    1357:	e8 64 ff ff ff       	call   12c0 <deregister_tm_clones>
    135c:	c6 05 bd cc 00 00 01 	movb   $0x1,0xccbd(%rip)        # e020 <completed.0>
    1363:	5d                   	pop    %rbp
    1364:	c3                   	ret    
    1365:	0f 1f 00             	nopl   (%rax)
    1368:	c3                   	ret    
    1369:	0f 1f 80 00 00 00 00 	nopl   0x0(%rax)

0000000000001370 <frame_dummy>:
    1370:	f3 0f 1e fa          	endbr64 
    1374:	e9 77 ff ff ff       	jmp    12f0 <register_tm_clones>
    1379:	0f 1f 80 00 00 00 00 	nopl   0x0(%rax)

0000000000001380 <kex_uake_initA>:
    1380:	f3 0f 1e fa          	endbr64 
    1384:	41 54                	push   %r12
    1386:	49 89 cc             	mov    %rcx,%r12
    1389:	55                   	push   %rbp
    138a:	48 89 f5             	mov    %rsi,%rbp
    138d:	48 89 d6             	mov    %rdx,%rsi
    1390:	53                   	push   %rbx
    1391:	48 89 fb             	mov    %rdi,%rbx
    1394:	e8 87 02 00 00       	call   1620 <pqcrystals_kyber1024_ref_keypair>
    1399:	48 8d bb 20 06 00 00 	lea    0x620(%rbx),%rdi
    13a0:	4c 89 e2             	mov    %r12,%rdx
    13a3:	5b                   	pop    %rbx
    13a4:	48 89 ee             	mov    %rbp,%rsi
    13a7:	5d                   	pop    %rbp
    13a8:	41 5c                	pop    %r12
    13aa:	e9 11 03 00 00       	jmp    16c0 <pqcrystals_kyber1024_ref_enc>
    13af:	90                   	nop

00000000000013b0 <kex_uake_sharedB>:
    13b0:	f3 0f 1e fa          	endbr64 
    13b4:	41 55                	push   %r13
    13b6:	41 54                	push   %r12
    13b8:	49 89 cc             	mov    %rcx,%r12
    13bb:	55                   	push   %rbp
    13bc:	48 89 f5             	mov    %rsi,%rbp
    13bf:	53                   	push   %rbx
    13c0:	48 89 d3             	mov    %rdx,%rbx
    13c3:	48 83 ec 58          	sub    $0x58,%rsp
    13c7:	64 48 8b 04 25 28 00 	mov    %fs:0x28,%rax
    13ce:	00 00 
    13d0:	48 89 44 24 48       	mov    %rax,0x48(%rsp)
    13d5:	31 c0                	xor    %eax,%eax
    13d7:	49 89 e5             	mov    %rsp,%r13
    13da:	4c 89 ee             	mov    %r13,%rsi
    13dd:	e8 de 02 00 00       	call   16c0 <pqcrystals_kyber1024_ref_enc>
    13e2:	48 8d b3 20 06 00 00 	lea    0x620(%rbx),%rsi
    13e9:	48 8d 7c 24 20       	lea    0x20(%rsp),%rdi
    13ee:	4c 89 e2             	mov    %r12,%rdx
    13f1:	e8 aa 03 00 00       	call   17a0 <pqcrystals_kyber1024_ref_dec>
    13f6:	b9 40 00 00 00       	mov    $0x40,%ecx
    13fb:	4c 89 ea             	mov    %r13,%rdx
    13fe:	48 89 ef             	mov    %rbp,%rdi
    1401:	be 20 00 00 00       	mov    $0x20,%esi
    1406:	e8 b5 7f 00 00       	call   93c0 <pqcrystals_kyber_fips202_ref_shake256>
    140b:	48 8b 44 24 48       	mov    0x48(%rsp),%rax
    1410:	64 48 2b 04 25 28 00 	sub    %fs:0x28,%rax
    1417:	00 00 
    1419:	75 0b                	jne    1426 <kex_uake_sharedB+0x76>
    141b:	48 83 c4 58          	add    $0x58,%rsp
    141f:	5b                   	pop    %rbx
    1420:	5d                   	pop    %rbp
    1421:	41 5c                	pop    %r12
    1423:	41 5d                	pop    %r13
    1425:	c3                   	ret    
    1426:	e8 55 fd ff ff       	call   1180 <__stack_chk_fail@plt>
    142b:	0f 1f 44 00 00       	nopl   0x0(%rax,%rax,1)

0000000000001430 <kex_uake_sharedA>:
    1430:	f3 0f 1e fa          	endbr64 
    1434:	41 54                	push   %r12
    1436:	55                   	push   %rbp
    1437:	48 89 fd             	mov    %rdi,%rbp
    143a:	53                   	push   %rbx
    143b:	48 89 d3             	mov    %rdx,%rbx
    143e:	48 89 ca             	mov    %rcx,%rdx
    1441:	48 83 ec 50          	sub    $0x50,%rsp
    1445:	64 48 8b 04 25 28 00 	mov    %fs:0x28,%rax
    144c:	00 00 
    144e:	48 89 44 24 48       	mov    %rax,0x48(%rsp)
    1453:	31 c0                	xor    %eax,%eax
    1455:	49 89 e4             	mov    %rsp,%r12
    1458:	4c 89 e7             	mov    %r12,%rdi
    145b:	e8 40 03 00 00       	call   17a0 <pqcrystals_kyber1024_ref_dec>
    1460:	f3 0f 6f 03          	movdqu (%rbx),%xmm0
    1464:	4c 89 e2             	mov    %r12,%rdx
    1467:	48 89 ef             	mov    %rbp,%rdi
    146a:	f3 0f 6f 4b 10       	movdqu 0x10(%rbx),%xmm1
    146f:	b9 40 00 00 00       	mov    $0x40,%ecx
    1474:	be 20 00 00 00       	mov    $0x20,%esi
    1479:	0f 29 44 24 20       	movaps %xmm0,0x20(%rsp)
    147e:	0f 29 4c 24 30       	movaps %xmm1,0x30(%rsp)
    1483:	e8 38 7f 00 00       	call   93c0 <pqcrystals_kyber_fips202_ref_shake256>
    1488:	48 8b 44 24 48       	mov    0x48(%rsp),%rax
    148d:	64 48 2b 04 25 28 00 	sub    %fs:0x28,%rax
    1494:	00 00 
    1496:	75 09                	jne    14a1 <kex_uake_sharedA+0x71>
    1498:	48 83 c4 50          	add    $0x50,%rsp
    149c:	5b                   	pop    %rbx
    149d:	5d                   	pop    %rbp
    149e:	41 5c                	pop    %r12
    14a0:	c3                   	ret    
    14a1:	e8 da fc ff ff       	call   1180 <__stack_chk_fail@plt>
    14a6:	66 2e 0f 1f 84 00 00 	cs nopw 0x0(%rax,%rax,1)
    14ad:	00 00 00 

00000000000014b0 <kex_ake_initA>:
    14b0:	f3 0f 1e fa          	endbr64 
    14b4:	41 54                	push   %r12
    14b6:	49 89 cc             	mov    %rcx,%r12
    14b9:	55                   	push   %rbp
    14ba:	48 89 f5             	mov    %rsi,%rbp
    14bd:	48 89 d6             	mov    %rdx,%rsi
    14c0:	53                   	push   %rbx
    14c1:	48 89 fb             	mov    %rdi,%rbx
    14c4:	e8 57 01 00 00       	call   1620 <pqcrystals_kyber1024_ref_keypair>
    14c9:	48 8d bb 20 06 00 00 	lea    0x620(%rbx),%rdi
    14d0:	4c 89 e2             	mov    %r12,%rdx
    14d3:	5b                   	pop    %rbx
    14d4:	48 89 ee             	mov    %rbp,%rsi
    14d7:	5d                   	pop    %rbp
    14d8:	41 5c                	pop    %r12
    14da:	e9 e1 01 00 00       	jmp    16c0 <pqcrystals_kyber1024_ref_enc>
    14df:	90                   	nop

00000000000014e0 <kex_ake_sharedB>:
    14e0:	f3 0f 1e fa          	endbr64 
    14e4:	41 57                	push   %r15
    14e6:	41 56                	push   %r14
    14e8:	4d 89 c6             	mov    %r8,%r14
    14eb:	41 55                	push   %r13
    14ed:	49 89 cd             	mov    %rcx,%r13
    14f0:	41 54                	push   %r12
    14f2:	49 89 f4             	mov    %rsi,%r12
    14f5:	55                   	push   %rbp
    14f6:	48 89 fd             	mov    %rdi,%rbp
    14f9:	53                   	push   %rbx
    14fa:	48 89 d3             	mov    %rdx,%rbx
    14fd:	48 83 ec 78          	sub    $0x78,%rsp
    1501:	64 48 8b 04 25 28 00 	mov    %fs:0x28,%rax
    1508:	00 00 
    150a:	48 89 44 24 68       	mov    %rax,0x68(%rsp)
    150f:	31 c0                	xor    %eax,%eax
    1511:	49 89 e7             	mov    %rsp,%r15
    1514:	4c 89 fe             	mov    %r15,%rsi
    1517:	e8 a4 01 00 00       	call   16c0 <pqcrystals_kyber1024_ref_enc>
    151c:	48 8d 74 24 20       	lea    0x20(%rsp),%rsi
    1521:	48 8d bd 20 06 00 00 	lea    0x620(%rbp),%rdi
    1528:	4c 89 f2             	mov    %r14,%rdx
    152b:	e8 90 01 00 00       	call   16c0 <pqcrystals_kyber1024_ref_enc>
    1530:	48 8d b3 20 06 00 00 	lea    0x620(%rbx),%rsi
    1537:	48 8d 7c 24 40       	lea    0x40(%rsp),%rdi
    153c:	4c 89 ea             	mov    %r13,%rdx
    153f:	e8 5c 02 00 00       	call   17a0 <pqcrystals_kyber1024_ref_dec>
    1544:	b9 60 00 00 00       	mov    $0x60,%ecx
    1549:	4c 89 fa             	mov    %r15,%rdx
    154c:	4c 89 e7             	mov    %r12,%rdi
    154f:	be 20 00 00 00       	mov    $0x20,%esi
    1554:	e8 67 7e 00 00       	call   93c0 <pqcrystals_kyber_fips202_ref_shake256>
    1559:	48 8b 44 24 68       	mov    0x68(%rsp),%rax
    155e:	64 48 2b 04 25 28 00 	sub    %fs:0x28,%rax
    1565:	00 00 
    1567:	75 0f                	jne    1578 <kex_ake_sharedB+0x98>
    1569:	48 83 c4 78          	add    $0x78,%rsp
    156d:	5b                   	pop    %rbx
    156e:	5d                   	pop    %rbp
    156f:	41 5c                	pop    %r12
    1571:	41 5d                	pop    %r13
    1573:	41 5e                	pop    %r14
    1575:	41 5f                	pop    %r15
    1577:	c3                   	ret    
    1578:	e8 03 fc ff ff       	call   1180 <__stack_chk_fail@plt>
    157d:	0f 1f 00             	nopl   (%rax)

0000000000001580 <kex_ake_sharedA>:
    1580:	f3 0f 1e fa          	endbr64 
    1584:	41 56                	push   %r14
    1586:	41 55                	push   %r13
    1588:	4d 89 c5             	mov    %r8,%r13
    158b:	41 54                	push   %r12
    158d:	49 89 fc             	mov    %rdi,%r12
    1590:	55                   	push   %rbp
    1591:	48 89 d5             	mov    %rdx,%rbp
    1594:	48 89 ca             	mov    %rcx,%rdx
    1597:	53                   	push   %rbx
    1598:	48 89 f3             	mov    %rsi,%rbx
    159b:	48 83 ec 70          	sub    $0x70,%rsp
    159f:	64 48 8b 04 25 28 00 	mov    %fs:0x28,%rax
    15a6:	00 00 
    15a8:	48 89 44 24 68       	mov    %rax,0x68(%rsp)
    15ad:	31 c0                	xor    %eax,%eax
    15af:	49 89 e6             	mov    %rsp,%r14
    15b2:	4c 89 f7             	mov    %r14,%rdi
    15b5:	e8 e6 01 00 00       	call   17a0 <pqcrystals_kyber1024_ref_dec>
    15ba:	48 8d b3 20 06 00 00 	lea    0x620(%rbx),%rsi
    15c1:	48 8d 7c 24 20       	lea    0x20(%rsp),%rdi
    15c6:	4c 89 ea             	mov    %r13,%rdx
    15c9:	e8 d2 01 00 00       	call   17a0 <pqcrystals_kyber1024_ref_dec>
    15ce:	f3 0f 6f 45 00       	movdqu 0x0(%rbp),%xmm0
    15d3:	4c 89 f2             	mov    %r14,%rdx
    15d6:	4c 89 e7             	mov    %r12,%rdi
    15d9:	f3 0f 6f 4d 10       	movdqu 0x10(%rbp),%xmm1
    15de:	b9 60 00 00 00       	mov    $0x60,%ecx
    15e3:	be 20 00 00 00       	mov    $0x20,%esi
    15e8:	0f 29 44 24 40       	movaps %xmm0,0x40(%rsp)
    15ed:	0f 29 4c 24 50       	movaps %xmm1,0x50(%rsp)
    15f2:	e8 c9 7d 00 00       	call   93c0 <pqcrystals_kyber_fips202_ref_shake256>
    15f7:	48 8b 44 24 68       	mov    0x68(%rsp),%rax
    15fc:	64 48 2b 04 25 28 00 	sub    %fs:0x28,%rax
    1603:	00 00 
    1605:	75 0d                	jne    1614 <kex_ake_sharedA+0x94>
    1607:	48 83 c4 70          	add    $0x70,%rsp
    160b:	5b                   	pop    %rbx
    160c:	5d                   	pop    %rbp
    160d:	41 5c                	pop    %r12
    160f:	41 5d                	pop    %r13
    1611:	41 5e                	pop    %r14
    1613:	c3                   	ret    
    1614:	e8 67 fb ff ff       	call   1180 <__stack_chk_fail@plt>
    1619:	0f 1f 80 00 00 00 00 	nopl   0x0(%rax)

0000000000001620 <pqcrystals_kyber1024_ref_keypair>:
    1620:	f3 0f 1e fa          	endbr64 
    1624:	55                   	push   %rbp
    1625:	48 89 fd             	mov    %rdi,%rbp
    1628:	53                   	push   %rbx
    1629:	48 89 f3             	mov    %rsi,%rbx
    162c:	48 83 ec 08          	sub    $0x8,%rsp
    1630:	e8 db 04 00 00       	call   1b10 <pqcrystals_kyber1024_ref_indcpa_keypair>
    1635:	48 89 d8             	mov    %rbx,%rax
    1638:	48 29 e8             	sub    %rbp,%rax
    163b:	48 05 ff 05 00 00    	add    $0x5ff,%rax
    1641:	48 83 f8 0e          	cmp    $0xe,%rax
    1645:	b8 00 00 00 00       	mov    $0x0,%eax
    164a:	76 54                	jbe    16a0 <pqcrystals_kyber1024_ref_keypair+0x80>
    164c:	0f 1f 40 00          	nopl   0x0(%rax)
    1650:	f3 0f 6f 44 05 00    	movdqu 0x0(%rbp,%rax,1),%xmm0
    1656:	0f 11 84 03 00 06 00 	movups %xmm0,0x600(%rbx,%rax,1)
    165d:	00 
    165e:	48 83 c0 10          	add    $0x10,%rax
    1662:	48 3d 20 06 00 00    	cmp    $0x620,%rax
    1668:	75 e6                	jne    1650 <pqcrystals_kyber1024_ref_keypair+0x30>
    166a:	48 8d bb 20 0c 00 00 	lea    0xc20(%rbx),%rdi
    1671:	48 89 ee             	mov    %rbp,%rsi
    1674:	ba 20 06 00 00       	mov    $0x620,%edx
    1679:	e8 12 84 00 00       	call   9a90 <pqcrystals_kyber_fips202_ref_sha3_256>
    167e:	48 8d bb 40 0c 00 00 	lea    0xc40(%rbx),%rdi
    1685:	be 20 00 00 00       	mov    $0x20,%esi
    168a:	e8 41 8d 00 00       	call   a3d0 <randombytes>
    168f:	48 83 c4 08          	add    $0x8,%rsp
    1693:	31 c0                	xor    %eax,%eax
    1695:	5b                   	pop    %rbx
    1696:	5d                   	pop    %rbp
    1697:	c3                   	ret    
    1698:	0f 1f 84 00 00 00 00 	nopl   0x0(%rax,%rax,1)
    169f:	00 
    16a0:	0f b6 54 05 00       	movzbl 0x0(%rbp,%rax,1),%edx
    16a5:	88 94 03 00 06 00 00 	mov    %dl,0x600(%rbx,%rax,1)
    16ac:	48 83 c0 01          	add    $0x1,%rax
    16b0:	48 3d 20 06 00 00    	cmp    $0x620,%rax
    16b6:	75 e8                	jne    16a0 <pqcrystals_kyber1024_ref_keypair+0x80>
    16b8:	eb b0                	jmp    166a <pqcrystals_kyber1024_ref_keypair+0x4a>
    16ba:	66 0f 1f 44 00 00    	nopw   0x0(%rax,%rax,1)

00000000000016c0 <pqcrystals_kyber1024_ref_enc>:
    16c0:	f3 0f 1e fa          	endbr64 
    16c4:	41 57                	push   %r15
    16c6:	41 56                	push   %r14
    16c8:	49 89 f6             	mov    %rsi,%r14
    16cb:	be 20 00 00 00       	mov    $0x20,%esi
    16d0:	41 55                	push   %r13
    16d2:	49 89 d5             	mov    %rdx,%r13
    16d5:	41 54                	push   %r12
    16d7:	49 89 fc             	mov    %rdi,%r12
    16da:	55                   	push   %rbp
    16db:	53                   	push   %rbx
    16dc:	48 81 ec 98 00 00 00 	sub    $0x98,%rsp
    16e3:	64 48 8b 04 25 28 00 	mov    %fs:0x28,%rax
    16ea:	00 00 
    16ec:	48 89 84 24 88 00 00 	mov    %rax,0x88(%rsp)
    16f3:	00 
    16f4:	31 c0                	xor    %eax,%eax
    16f6:	48 89 e5             	mov    %rsp,%rbp
    16f9:	4c 8d 7c 24 40       	lea    0x40(%rsp),%r15
    16fe:	48 8d 5c 24 60       	lea    0x60(%rsp),%rbx
    1703:	48 89 ef             	mov    %rbp,%rdi
    1706:	e8 c5 8c 00 00       	call   a3d0 <randombytes>
    170b:	ba 20 00 00 00       	mov    $0x20,%edx
    1710:	48 89 ee             	mov    %rbp,%rsi
    1713:	48 89 ef             	mov    %rbp,%rdi
    1716:	e8 75 83 00 00       	call   9a90 <pqcrystals_kyber_fips202_ref_sha3_256>
    171b:	48 8d 7c 24 20       	lea    0x20(%rsp),%rdi
    1720:	ba 20 06 00 00       	mov    $0x620,%edx
    1725:	4c 89 ee             	mov    %r13,%rsi
    1728:	e8 63 83 00 00       	call   9a90 <pqcrystals_kyber_fips202_ref_sha3_256>
    172d:	ba 40 00 00 00       	mov    $0x40,%edx
    1732:	48 89 ee             	mov    %rbp,%rsi
    1735:	4c 89 ff             	mov    %r15,%rdi
    1738:	e8 e3 85 00 00       	call   9d20 <pqcrystals_kyber_fips202_ref_sha3_512>
    173d:	48 89 d9             	mov    %rbx,%rcx
    1740:	4c 89 ea             	mov    %r13,%rdx
    1743:	48 89 ee             	mov    %rbp,%rsi
    1746:	4c 89 e7             	mov    %r12,%rdi
    1749:	e8 72 07 00 00       	call   1ec0 <pqcrystals_kyber1024_ref_indcpa_enc>
    174e:	ba 20 06 00 00       	mov    $0x620,%edx
    1753:	4c 89 e6             	mov    %r12,%rsi
    1756:	48 89 df             	mov    %rbx,%rdi
    1759:	e8 32 83 00 00       	call   9a90 <pqcrystals_kyber_fips202_ref_sha3_256>
    175e:	b9 40 00 00 00       	mov    $0x40,%ecx
    1763:	4c 89 fa             	mov    %r15,%rdx
    1766:	4c 89 f7             	mov    %r14,%rdi
    1769:	be 20 00 00 00       	mov    $0x20,%esi
    176e:	e8 4d 7c 00 00       	call   93c0 <pqcrystals_kyber_fips202_ref_shake256>
    1773:	48 8b 84 24 88 00 00 	mov    0x88(%rsp),%rax
    177a:	00 
    177b:	64 48 2b 04 25 28 00 	sub    %fs:0x28,%rax
    1782:	00 00 
    1784:	75 14                	jne    179a <pqcrystals_kyber1024_ref_enc+0xda>
    1786:	48 81 c4 98 00 00 00 	add    $0x98,%rsp
    178d:	31 c0                	xor    %eax,%eax
    178f:	5b                   	pop    %rbx
    1790:	5d                   	pop    %rbp
    1791:	41 5c                	pop    %r12
    1793:	41 5d                	pop    %r13
    1795:	41 5e                	pop    %r14
    1797:	41 5f                	pop    %r15
    1799:	c3                   	ret    
    179a:	e8 e1 f9 ff ff       	call   1180 <__stack_chk_fail@plt>
    179f:	90                   	nop

00000000000017a0 <pqcrystals_kyber1024_ref_dec>:
    17a0:	f3 0f 1e fa          	endbr64 
    17a4:	41 57                	push   %r15
    17a6:	41 56                	push   %r14
    17a8:	41 55                	push   %r13
    17aa:	49 89 fd             	mov    %rdi,%r13
    17ad:	41 54                	push   %r12
    17af:	49 89 f4             	mov    %rsi,%r12
    17b2:	55                   	push   %rbp
    17b3:	53                   	push   %rbx
    17b4:	48 89 d3             	mov    %rdx,%rbx
    17b7:	48 81 ec c8 06 00 00 	sub    $0x6c8,%rsp
    17be:	64 48 8b 04 25 28 00 	mov    %fs:0x28,%rax
    17c5:	00 00 
    17c7:	48 89 84 24 b8 06 00 	mov    %rax,0x6b8(%rsp)
    17ce:	00 
    17cf:	31 c0                	xor    %eax,%eax
    17d1:	48 8d 6c 24 10       	lea    0x10(%rsp),%rbp
    17d6:	4c 8d 74 24 50       	lea    0x50(%rsp),%r14
    17db:	48 89 ef             	mov    %rbp,%rdi
    17de:	4c 8d 7c 24 70       	lea    0x70(%rsp),%r15
    17e3:	e8 b8 0a 00 00       	call   22a0 <pqcrystals_kyber1024_ref_indcpa_dec>
    17e8:	48 89 ee             	mov    %rbp,%rsi
    17eb:	ba 40 00 00 00       	mov    $0x40,%edx
    17f0:	4c 89 f7             	mov    %r14,%rdi
    17f3:	f3 0f 6f 83 20 0c 00 	movdqu 0xc20(%rbx),%xmm0
    17fa:	00 
    17fb:	f3 0f 6f 8b 30 0c 00 	movdqu 0xc30(%rbx),%xmm1
    1802:	00 
    1803:	0f 29 44 24 30       	movaps %xmm0,0x30(%rsp)
    1808:	0f 29 4c 24 40       	movaps %xmm1,0x40(%rsp)
    180d:	e8 0e 85 00 00       	call   9d20 <pqcrystals_kyber_fips202_ref_sha3_512>
    1812:	4c 8d 84 24 90 00 00 	lea    0x90(%rsp),%r8
    1819:	00 
    181a:	4c 89 f9             	mov    %r15,%rcx
    181d:	48 89 ee             	mov    %rbp,%rsi
    1820:	4c 89 c7             	mov    %r8,%rdi
    1823:	48 8d 93 00 06 00 00 	lea    0x600(%rbx),%rdx
    182a:	4c 89 44 24 08       	mov    %r8,0x8(%rsp)
    182f:	e8 8c 06 00 00       	call   1ec0 <pqcrystals_kyber1024_ref_indcpa_enc>
    1834:	48 8b 74 24 08       	mov    0x8(%rsp),%rsi
    1839:	ba 20 06 00 00       	mov    $0x620,%edx
    183e:	4c 89 e7             	mov    %r12,%rdi
    1841:	e8 3a 3f 00 00       	call   5780 <pqcrystals_kyber1024_ref_verify>
    1846:	ba 20 06 00 00       	mov    $0x620,%edx
    184b:	4c 89 e6             	mov    %r12,%rsi
    184e:	4c 89 ff             	mov    %r15,%rdi
    1851:	89 c5                	mov    %eax,%ebp
    1853:	e8 38 82 00 00       	call   9a90 <pqcrystals_kyber_fips202_ref_sha3_256>
    1858:	40 0f b6 cd          	movzbl %bpl,%ecx
    185c:	ba 20 00 00 00       	mov    $0x20,%edx
    1861:	4c 89 f7             	mov    %r14,%rdi
    1864:	48 8d b3 40 0c 00 00 	lea    0xc40(%rbx),%rsi
    186b:	e8 10 41 00 00       	call   5980 <pqcrystals_kyber1024_ref_cmov>
    1870:	b9 40 00 00 00       	mov    $0x40,%ecx
    1875:	4c 89 f2             	mov    %r14,%rdx
    1878:	4c 89 ef             	mov    %r13,%rdi
    187b:	be 20 00 00 00       	mov    $0x20,%esi
    1880:	e8 3b 7b 00 00       	call   93c0 <pqcrystals_kyber_fips202_ref_shake256>
    1885:	48 8b 84 24 b8 06 00 	mov    0x6b8(%rsp),%rax
    188c:	00 
    188d:	64 48 2b 04 25 28 00 	sub    %fs:0x28,%rax
    1894:	00 00 
    1896:	75 14                	jne    18ac <pqcrystals_kyber1024_ref_dec+0x10c>
    1898:	48 81 c4 c8 06 00 00 	add    $0x6c8,%rsp
    189f:	31 c0                	xor    %eax,%eax
    18a1:	5b                   	pop    %rbx
    18a2:	5d                   	pop    %rbp
    18a3:	41 5c                	pop    %r12
    18a5:	41 5d                	pop    %r13
    18a7:	41 5e                	pop    %r14
    18a9:	41 5f                	pop    %r15
    18ab:	c3                   	ret    
    18ac:	e8 cf f8 ff ff       	call   1180 <__stack_chk_fail@plt>
    18b1:	66 2e 0f 1f 84 00 00 	cs nopw 0x0(%rax,%rax,1)
    18b8:	00 00 00 
    18bb:	0f 1f 44 00 00       	nopl   0x0(%rax,%rax,1)

00000000000018c0 <pqcrystals_kyber1024_ref_gen_matrix>:
    18c0:	f3 0f 1e fa          	endbr64 
    18c4:	41 57                	push   %r15
    18c6:	41 56                	push   %r14
    18c8:	41 55                	push   %r13
    18ca:	41 54                	push   %r12
    18cc:	55                   	push   %rbp
    18cd:	53                   	push   %rbx
    18ce:	48 81 ec 18 03 00 00 	sub    $0x318,%rsp
    18d5:	48 89 74 24 18       	mov    %rsi,0x18(%rsp)
    18da:	4c 8d ac 24 00 01 00 	lea    0x100(%rsp),%r13
    18e1:	00 
    18e2:	48 8d 6c 24 30       	lea    0x30(%rsp),%rbp
    18e7:	89 54 24 28          	mov    %edx,0x28(%rsp)
    18eb:	4d 89 ef             	mov    %r13,%r15
    18ee:	64 48 8b 04 25 28 00 	mov    %fs:0x28,%rax
    18f5:	00 00 
    18f7:	48 89 84 24 08 03 00 	mov    %rax,0x308(%rsp)
    18fe:	00 
    18ff:	31 c0                	xor    %eax,%eax
    1901:	48 8d 84 24 f8 02 00 	lea    0x2f8(%rsp),%rax
    1908:	00 
    1909:	48 89 7c 24 20       	mov    %rdi,0x20(%rsp)
    190e:	c7 44 24 2c 04 00 00 	movl   $0x4,0x2c(%rsp)
    1915:	00 
    1916:	48 89 44 24 10       	mov    %rax,0x10(%rsp)
    191b:	b8 04 00 00 00       	mov    $0x4,%eax
    1920:	2b 44 24 2c          	sub    0x2c(%rsp),%eax
    1924:	48 8b 5c 24 20       	mov    0x20(%rsp),%rbx
    1929:	4d 89 fe             	mov    %r15,%r14
    192c:	c7 44 24 08 00 00 00 	movl   $0x0,0x8(%rsp)
    1933:	00 
    1934:	89 44 24 0c          	mov    %eax,0xc(%rsp)
    1938:	8b 44 24 28          	mov    0x28(%rsp),%eax
    193c:	85 c0                	test   %eax,%eax
    193e:	0f 84 f9 00 00 00    	je     1a3d <pqcrystals_kyber1024_ref_gen_matrix+0x17d>
    1944:	8b 4c 24 08          	mov    0x8(%rsp),%ecx
    1948:	8b 54 24 0c          	mov    0xc(%rsp),%edx
    194c:	48 89 ef             	mov    %rbp,%rdi
    194f:	48 8b 74 24 18       	mov    0x18(%rsp),%rsi
    1954:	e8 b7 89 00 00       	call   a310 <pqcrystals_kyber1024_ref_kyber_shake128_absorb>
    1959:	4c 89 f7             	mov    %r14,%rdi
    195c:	48 89 ea             	mov    %rbp,%rdx
    195f:	be 03 00 00 00       	mov    $0x3,%esi
    1964:	45 31 ff             	xor    %r15d,%r15d
    1967:	e8 c4 61 00 00       	call   7b30 <pqcrystals_kyber_fips202_ref_shake128_squeezeblocks>
    196c:	48 8b 7c 24 10       	mov    0x10(%rsp),%rdi
    1971:	4c 89 f1             	mov    %r14,%rcx
    1974:	eb 17                	jmp    198d <pqcrystals_kyber1024_ref_gen_matrix+0xcd>
    1976:	66 2e 0f 1f 84 00 00 	cs nopw 0x0(%rax,%rax,1)
    197d:	00 00 00 
    1980:	48 83 c1 03          	add    $0x3,%rcx
    1984:	48 39 cf             	cmp    %rcx,%rdi
    1987:	0f 84 ca 00 00 00    	je     1a57 <pqcrystals_kyber1024_ref_gen_matrix+0x197>
    198d:	0f b6 41 01          	movzbl 0x1(%rcx),%eax
    1991:	0f b6 31             	movzbl (%rcx),%esi
    1994:	89 c2                	mov    %eax,%edx
    1996:	c0 e8 04             	shr    $0x4,%al
    1999:	c1 e2 08             	shl    $0x8,%edx
    199c:	0f b6 c0             	movzbl %al,%eax
    199f:	09 f2                	or     %esi,%edx
    19a1:	0f b6 71 02          	movzbl 0x2(%rcx),%esi
    19a5:	66 81 e2 ff 0f       	and    $0xfff,%dx
    19aa:	c1 e6 04             	shl    $0x4,%esi
    19ad:	09 f0                	or     %esi,%eax
    19af:	66 81 fa 00 0d       	cmp    $0xd00,%dx
    19b4:	77 0b                	ja     19c1 <pqcrystals_kyber1024_ref_gen_matrix+0x101>
    19b6:	44 89 fe             	mov    %r15d,%esi
    19b9:	41 83 c7 01          	add    $0x1,%r15d
    19bd:	66 89 14 73          	mov    %dx,(%rbx,%rsi,2)
    19c1:	41 81 ff ff 00 00 00 	cmp    $0xff,%r15d
    19c8:	77 11                	ja     19db <pqcrystals_kyber1024_ref_gen_matrix+0x11b>
    19ca:	66 3d 00 0d          	cmp    $0xd00,%ax
    19ce:	77 0b                	ja     19db <pqcrystals_kyber1024_ref_gen_matrix+0x11b>
    19d0:	44 89 fa             	mov    %r15d,%edx
    19d3:	41 83 c7 01          	add    $0x1,%r15d
    19d7:	66 89 04 53          	mov    %ax,(%rbx,%rdx,2)
    19db:	41 81 ff 00 01 00 00 	cmp    $0x100,%r15d
    19e2:	75 9c                	jne    1980 <pqcrystals_kyber1024_ref_gen_matrix+0xc0>
    19e4:	83 44 24 08 01       	addl   $0x1,0x8(%rsp)
    19e9:	8b 44 24 08          	mov    0x8(%rsp),%eax
    19ed:	48 81 c3 00 02 00 00 	add    $0x200,%rbx
    19f4:	83 f8 04             	cmp    $0x4,%eax
    19f7:	0f 85 3b ff ff ff    	jne    1938 <pqcrystals_kyber1024_ref_gen_matrix+0x78>
    19fd:	48 81 44 24 20 00 08 	addq   $0x800,0x20(%rsp)
    1a04:	00 00 
    1a06:	4d 89 f7             	mov    %r14,%r15
    1a09:	83 6c 24 2c 01       	subl   $0x1,0x2c(%rsp)
    1a0e:	0f 85 07 ff ff ff    	jne    191b <pqcrystals_kyber1024_ref_gen_matrix+0x5b>
    1a14:	48 8b 84 24 08 03 00 	mov    0x308(%rsp),%rax
    1a1b:	00 
    1a1c:	64 48 2b 04 25 28 00 	sub    %fs:0x28,%rax
    1a23:	00 00 
    1a25:	0f 85 d4 00 00 00    	jne    1aff <pqcrystals_kyber1024_ref_gen_matrix+0x23f>
    1a2b:	48 81 c4 18 03 00 00 	add    $0x318,%rsp
    1a32:	5b                   	pop    %rbx
    1a33:	5d                   	pop    %rbp
    1a34:	41 5c                	pop    %r12
    1a36:	41 5d                	pop    %r13
    1a38:	41 5e                	pop    %r14
    1a3a:	41 5f                	pop    %r15
    1a3c:	c3                   	ret    
    1a3d:	8b 4c 24 0c          	mov    0xc(%rsp),%ecx
    1a41:	8b 54 24 08          	mov    0x8(%rsp),%edx
    1a45:	48 89 ef             	mov    %rbp,%rdi
    1a48:	48 8b 74 24 18       	mov    0x18(%rsp),%rsi
    1a4d:	e8 be 88 00 00       	call   a310 <pqcrystals_kyber1024_ref_kyber_shake128_absorb>
    1a52:	e9 02 ff ff ff       	jmp    1959 <pqcrystals_kyber1024_ref_gen_matrix+0x99>
    1a57:	4d 8d ae a8 00 00 00 	lea    0xa8(%r14),%r13
    1a5e:	41 bc 00 01 00 00    	mov    $0x100,%r12d
    1a64:	0f 1f 40 00          	nopl   0x0(%rax)
    1a68:	be 01 00 00 00       	mov    $0x1,%esi
    1a6d:	4c 89 f7             	mov    %r14,%rdi
    1a70:	48 89 ea             	mov    %rbp,%rdx
    1a73:	e8 b8 60 00 00       	call   7b30 <pqcrystals_kyber_fips202_ref_shake128_squeezeblocks>
    1a78:	44 89 e7             	mov    %r12d,%edi
    1a7b:	44 89 f8             	mov    %r15d,%eax
    1a7e:	4c 89 f1             	mov    %r14,%rcx
    1a81:	44 29 ff             	sub    %r15d,%edi
    1a84:	4c 8d 04 43          	lea    (%rbx,%rax,2),%r8
    1a88:	31 f6                	xor    %esi,%esi
    1a8a:	eb 21                	jmp    1aad <pqcrystals_kyber1024_ref_gen_matrix+0x1ed>
    1a8c:	0f 1f 40 00          	nopl   0x0(%rax)
    1a90:	66 3d 00 0d          	cmp    $0xd00,%ax
    1a94:	77 0a                	ja     1aa0 <pqcrystals_kyber1024_ref_gen_matrix+0x1e0>
    1a96:	89 f2                	mov    %esi,%edx
    1a98:	83 c6 01             	add    $0x1,%esi
    1a9b:	66 41 89 04 50       	mov    %ax,(%r8,%rdx,2)
    1aa0:	39 f7                	cmp    %esi,%edi
    1aa2:	76 46                	jbe    1aea <pqcrystals_kyber1024_ref_gen_matrix+0x22a>
    1aa4:	48 83 c1 03          	add    $0x3,%rcx
    1aa8:	49 39 cd             	cmp    %rcx,%r13
    1aab:	74 3d                	je     1aea <pqcrystals_kyber1024_ref_gen_matrix+0x22a>
    1aad:	0f b6 41 01          	movzbl 0x1(%rcx),%eax
    1ab1:	44 0f b6 09          	movzbl (%rcx),%r9d
    1ab5:	89 c2                	mov    %eax,%edx
    1ab7:	c0 e8 04             	shr    $0x4,%al
    1aba:	c1 e2 08             	shl    $0x8,%edx
    1abd:	0f b6 c0             	movzbl %al,%eax
    1ac0:	44 09 ca             	or     %r9d,%edx
    1ac3:	44 0f b6 49 02       	movzbl 0x2(%rcx),%r9d
    1ac8:	66 81 e2 ff 0f       	and    $0xfff,%dx
    1acd:	41 c1 e1 04          	shl    $0x4,%r9d
    1ad1:	44 09 c8             	or     %r9d,%eax
    1ad4:	66 81 fa 00 0d       	cmp    $0xd00,%dx
    1ad9:	77 0b                	ja     1ae6 <pqcrystals_kyber1024_ref_gen_matrix+0x226>
    1adb:	41 89 f1             	mov    %esi,%r9d
    1ade:	83 c6 01             	add    $0x1,%esi
    1ae1:	66 43 89 14 48       	mov    %dx,(%r8,%r9,2)
    1ae6:	39 f7                	cmp    %esi,%edi
    1ae8:	77 a6                	ja     1a90 <pqcrystals_kyber1024_ref_gen_matrix+0x1d0>
    1aea:	41 01 f7             	add    %esi,%r15d
    1aed:	41 81 ff ff 00 00 00 	cmp    $0xff,%r15d
    1af4:	0f 86 6e ff ff ff    	jbe    1a68 <pqcrystals_kyber1024_ref_gen_matrix+0x1a8>
    1afa:	e9 e5 fe ff ff       	jmp    19e4 <pqcrystals_kyber1024_ref_gen_matrix+0x124>
    1aff:	e8 7c f6 ff ff       	call   1180 <__stack_chk_fail@plt>
    1b04:	66 66 2e 0f 1f 84 00 	data16 cs nopw 0x0(%rax,%rax,1)
    1b0b:	00 00 00 00 
    1b0f:	90                   	nop

0000000000001b10 <pqcrystals_kyber1024_ref_indcpa_keypair>:
    1b10:	f3 0f 1e fa          	endbr64 
    1b14:	41 57                	push   %r15
    1b16:	41 56                	push   %r14
    1b18:	41 55                	push   %r13
    1b1a:	41 54                	push   %r12
    1b1c:	55                   	push   %rbp
    1b1d:	53                   	push   %rbx
    1b1e:	48 81 ec 00 10 00 00 	sub    $0x1000,%rsp
    1b25:	48 83 0c 24 00       	orq    $0x0,(%rsp)
    1b2a:	48 81 ec 00 10 00 00 	sub    $0x1000,%rsp
    1b31:	48 83 0c 24 00       	orq    $0x0,(%rsp)
    1b36:	48 81 ec 00 10 00 00 	sub    $0x1000,%rsp
    1b3d:	48 83 0c 24 00       	orq    $0x0,(%rsp)
    1b42:	48 81 ec a8 0a 00 00 	sub    $0xaa8,%rsp
    1b49:	48 89 7c 24 40       	mov    %rdi,0x40(%rsp)
    1b4e:	4c 8d ac 24 90 38 00 	lea    0x3890(%rsp),%r13
    1b55:	00 
    1b56:	48 8d ac 24 50 10 00 	lea    0x1050(%rsp),%rbp
    1b5d:	00 
    1b5e:	48 89 74 24 48       	mov    %rsi,0x48(%rsp)
    1b63:	be 20 00 00 00       	mov    $0x20,%esi
    1b68:	4c 8d b4 24 38 39 00 	lea    0x3938(%rsp),%r14
    1b6f:	00 
    1b70:	4d 89 ef             	mov    %r13,%r15
    1b73:	64 48 8b 04 25 28 00 	mov    %fs:0x28,%rax
    1b7a:	00 00 
    1b7c:	48 89 84 24 98 3a 00 	mov    %rax,0x3a98(%rsp)
    1b83:	00 
    1b84:	31 c0                	xor    %eax,%eax
    1b86:	48 8d 44 24 50       	lea    0x50(%rsp),%rax
    1b8b:	48 89 44 24 28       	mov    %rax,0x28(%rsp)
    1b90:	48 89 44 24 38       	mov    %rax,0x38(%rsp)
    1b95:	48 89 05 a4 c4 00 00 	mov    %rax,0xc4a4(%rip)        # e040 <e_phys>
    1b9c:	48 8d 84 24 50 38 00 	lea    0x3850(%rsp),%rax
    1ba3:	00 
    1ba4:	48 89 c3             	mov    %rax,%rbx
    1ba7:	48 89 c7             	mov    %rax,%rdi
    1baa:	48 89 44 24 10       	mov    %rax,0x10(%rsp)
    1baf:	e8 1c 88 00 00       	call   a3d0 <randombytes>
    1bb4:	ba 20 00 00 00       	mov    $0x20,%edx
    1bb9:	48 89 de             	mov    %rbx,%rsi
    1bbc:	48 89 df             	mov    %rbx,%rdi
    1bbf:	e8 5c 81 00 00       	call   9d20 <pqcrystals_kyber_fips202_ref_sha3_512>
    1bc4:	48 8d 84 24 50 18 00 	lea    0x1850(%rsp),%rax
    1bcb:	00 
    1bcc:	c7 44 24 0c 00 00 00 	movl   $0x0,0xc(%rsp)
    1bd3:	00 
    1bd4:	48 89 44 24 30       	mov    %rax,0x30(%rsp)
    1bd9:	48 89 44 24 20       	mov    %rax,0x20(%rsp)
    1bde:	48 8d 84 24 88 3a 00 	lea    0x3a88(%rsp),%rax
    1be5:	00 
    1be6:	48 89 44 24 18       	mov    %rax,0x18(%rsp)
    1beb:	4c 8b 6c 24 20       	mov    0x20(%rsp),%r13
    1bf0:	c7 44 24 08 00 00 00 	movl   $0x0,0x8(%rsp)
    1bf7:	00 
    1bf8:	4c 89 f8             	mov    %r15,%rax
    1bfb:	4d 89 ef             	mov    %r13,%r15
    1bfe:	49 89 c5             	mov    %rax,%r13
    1c01:	8b 4c 24 0c          	mov    0xc(%rsp),%ecx
    1c05:	8b 54 24 08          	mov    0x8(%rsp),%edx
    1c09:	48 89 ef             	mov    %rbp,%rdi
    1c0c:	45 31 e4             	xor    %r12d,%r12d
    1c0f:	48 8b 74 24 10       	mov    0x10(%rsp),%rsi
    1c14:	e8 f7 86 00 00       	call   a310 <pqcrystals_kyber1024_ref_kyber_shake128_absorb>
    1c19:	4c 89 ef             	mov    %r13,%rdi
    1c1c:	48 89 ea             	mov    %rbp,%rdx
    1c1f:	be 03 00 00 00       	mov    $0x3,%esi
    1c24:	e8 07 5f 00 00       	call   7b30 <pqcrystals_kyber_fips202_ref_shake128_squeezeblocks>
    1c29:	48 8b 7c 24 18       	mov    0x18(%rsp),%rdi
    1c2e:	4c 89 e9             	mov    %r13,%rcx
    1c31:	eb 12                	jmp    1c45 <pqcrystals_kyber1024_ref_indcpa_keypair+0x135>
    1c33:	0f 1f 44 00 00       	nopl   0x0(%rax,%rax,1)
    1c38:	48 83 c1 03          	add    $0x3,%rcx
    1c3c:	48 39 cf             	cmp    %rcx,%rdi
    1c3f:	0f 84 cb 01 00 00    	je     1e10 <pqcrystals_kyber1024_ref_indcpa_keypair+0x300>
    1c45:	0f b6 41 01          	movzbl 0x1(%rcx),%eax
    1c49:	0f b6 31             	movzbl (%rcx),%esi
    1c4c:	89 c2                	mov    %eax,%edx
    1c4e:	c0 e8 04             	shr    $0x4,%al
    1c51:	c1 e2 08             	shl    $0x8,%edx
    1c54:	0f b6 c0             	movzbl %al,%eax
    1c57:	09 f2                	or     %esi,%edx
    1c59:	0f b6 71 02          	movzbl 0x2(%rcx),%esi
    1c5d:	66 81 e2 ff 0f       	and    $0xfff,%dx
    1c62:	c1 e6 04             	shl    $0x4,%esi
    1c65:	09 f0                	or     %esi,%eax
    1c67:	66 81 fa 00 0d       	cmp    $0xd00,%dx
    1c6c:	77 0c                	ja     1c7a <pqcrystals_kyber1024_ref_indcpa_keypair+0x16a>
    1c6e:	44 89 e6             	mov    %r12d,%esi
    1c71:	41 83 c4 01          	add    $0x1,%r12d
    1c75:	66 41 89 14 77       	mov    %dx,(%r15,%rsi,2)
    1c7a:	41 81 fc ff 00 00 00 	cmp    $0xff,%r12d
    1c81:	77 12                	ja     1c95 <pqcrystals_kyber1024_ref_indcpa_keypair+0x185>
    1c83:	66 3d 00 0d          	cmp    $0xd00,%ax
    1c87:	77 0c                	ja     1c95 <pqcrystals_kyber1024_ref_indcpa_keypair+0x185>
    1c89:	44 89 e2             	mov    %r12d,%edx
    1c8c:	41 83 c4 01          	add    $0x1,%r12d
    1c90:	66 41 89 04 57       	mov    %ax,(%r15,%rdx,2)
    1c95:	41 81 fc 00 01 00 00 	cmp    $0x100,%r12d
    1c9c:	75 9a                	jne    1c38 <pqcrystals_kyber1024_ref_indcpa_keypair+0x128>
    1c9e:	83 44 24 08 01       	addl   $0x1,0x8(%rsp)
    1ca3:	8b 44 24 08          	mov    0x8(%rsp),%eax
    1ca7:	49 81 c7 00 02 00 00 	add    $0x200,%r15
    1cae:	83 f8 04             	cmp    $0x4,%eax
    1cb1:	0f 85 4a ff ff ff    	jne    1c01 <pqcrystals_kyber1024_ref_indcpa_keypair+0xf1>
    1cb7:	83 44 24 0c 01       	addl   $0x1,0xc(%rsp)
    1cbc:	8b 44 24 0c          	mov    0xc(%rsp),%eax
    1cc0:	4d 89 ef             	mov    %r13,%r15
    1cc3:	48 81 44 24 20 00 08 	addq   $0x800,0x20(%rsp)
    1cca:	00 00 
    1ccc:	83 f8 04             	cmp    $0x4,%eax
    1ccf:	0f 85 16 ff ff ff    	jne    1beb <pqcrystals_kyber1024_ref_indcpa_keypair+0xdb>
    1cd5:	49 89 ed             	mov    %rbp,%r13
    1cd8:	45 31 e4             	xor    %r12d,%r12d
    1cdb:	48 8d 9c 24 70 38 00 	lea    0x3870(%rsp),%rbx
    1ce2:	00 
    1ce3:	44 89 e2             	mov    %r12d,%edx
    1ce6:	4c 89 ef             	mov    %r13,%rdi
    1ce9:	48 89 de             	mov    %rbx,%rsi
    1cec:	41 83 c4 01          	add    $0x1,%r12d
    1cf0:	e8 8b 2e 00 00       	call   4b80 <pqcrystals_kyber1024_ref_poly_getnoise_eta1>
    1cf5:	49 81 c5 00 02 00 00 	add    $0x200,%r13
    1cfc:	41 83 fc 04          	cmp    $0x4,%r12d
    1d00:	75 e1                	jne    1ce3 <pqcrystals_kyber1024_ref_indcpa_keypair+0x1d3>
    1d02:	4c 8b 6c 24 38       	mov    0x38(%rsp),%r13
    1d07:	44 89 e2             	mov    %r12d,%edx
    1d0a:	4c 89 ef             	mov    %r13,%rdi
    1d0d:	48 89 de             	mov    %rbx,%rsi
    1d10:	41 83 c4 01          	add    $0x1,%r12d
    1d14:	e8 67 2e 00 00       	call   4b80 <pqcrystals_kyber1024_ref_poly_getnoise_eta1>
    1d19:	49 81 c5 00 02 00 00 	add    $0x200,%r13
    1d20:	41 83 fc 08          	cmp    $0x8,%r12d
    1d24:	75 e1                	jne    1d07 <pqcrystals_kyber1024_ref_indcpa_keypair+0x1f7>
    1d26:	48 89 ef             	mov    %rbp,%rdi
    1d29:	4c 8d a4 24 50 08 00 	lea    0x850(%rsp),%r12
    1d30:	00 
    1d31:	48 8d ac 24 50 10 00 	lea    0x1050(%rsp),%rbp
    1d38:	00 
    1d39:	e8 12 0c 00 00       	call   2950 <pqcrystals_kyber1024_ref_polyvec_ntt>
    1d3e:	48 8b 74 24 28       	mov    0x28(%rsp),%rsi
    1d43:	b9 00 01 00 00       	mov    $0x100,%ecx
    1d48:	4c 89 e3             	mov    %r12,%rbx
    1d4b:	48 8d 3d 0e c3 00 00 	lea    0xc30e(%rip),%rdi        # e060 <e_copy>
    1d52:	f3 48 a5             	rep movsq %ds:(%rsi),%es:(%rdi)
    1d55:	48 8d 7c 24 50       	lea    0x50(%rsp),%rdi
    1d5a:	48 89 7c 24 28       	mov    %rdi,0x28(%rsp)
    1d5f:	e8 ec 0b 00 00       	call   2950 <pqcrystals_kyber1024_ref_polyvec_ntt>
    1d64:	4c 8b 6c 24 30       	mov    0x30(%rsp),%r13
    1d69:	4c 89 ee             	mov    %r13,%rsi
    1d6c:	48 89 df             	mov    %rbx,%rdi
    1d6f:	48 89 ea             	mov    %rbp,%rdx
    1d72:	49 81 c5 00 08 00 00 	add    $0x800,%r13
    1d79:	e8 52 0c 00 00       	call   29d0 <pqcrystals_kyber1024_ref_polyvec_basemul_acc_montgomery>
    1d7e:	48 89 df             	mov    %rbx,%rdi
    1d81:	48 81 c3 00 02 00 00 	add    $0x200,%rbx
    1d88:	e8 a3 2f 00 00       	call   4d30 <pqcrystals_kyber1024_ref_poly_tomont>
    1d8d:	48 39 dd             	cmp    %rbx,%rbp
    1d90:	75 d7                	jne    1d69 <pqcrystals_kyber1024_ref_indcpa_keypair+0x259>
    1d92:	48 8b 54 24 28       	mov    0x28(%rsp),%rdx
    1d97:	4c 89 e6             	mov    %r12,%rsi
    1d9a:	4c 89 e7             	mov    %r12,%rdi
    1d9d:	e8 0e 0d 00 00       	call   2ab0 <pqcrystals_kyber1024_ref_polyvec_add>
    1da2:	4c 89 e7             	mov    %r12,%rdi
    1da5:	e8 c6 0c 00 00       	call   2a70 <pqcrystals_kyber1024_ref_polyvec_reduce>
    1daa:	48 8b 7c 24 48       	mov    0x48(%rsp),%rdi
    1daf:	48 89 ee             	mov    %rbp,%rsi
    1db2:	e8 19 0b 00 00       	call   28d0 <pqcrystals_kyber1024_ref_polyvec_tobytes>
    1db7:	48 8b 5c 24 40       	mov    0x40(%rsp),%rbx
    1dbc:	4c 89 e6             	mov    %r12,%rsi
    1dbf:	48 89 df             	mov    %rbx,%rdi
    1dc2:	e8 09 0b 00 00       	call   28d0 <pqcrystals_kyber1024_ref_polyvec_tobytes>
    1dc7:	66 0f 6f 84 24 50 38 	movdqa 0x3850(%rsp),%xmm0
    1dce:	00 00 
    1dd0:	0f 11 83 00 06 00 00 	movups %xmm0,0x600(%rbx)
    1dd7:	66 0f 6f 8c 24 60 38 	movdqa 0x3860(%rsp),%xmm1
    1dde:	00 00 
    1de0:	0f 11 8b 10 06 00 00 	movups %xmm1,0x610(%rbx)
    1de7:	48 8b 84 24 98 3a 00 	mov    0x3a98(%rsp),%rax
    1dee:	00 
    1def:	64 48 2b 04 25 28 00 	sub    %fs:0x28,%rax
    1df6:	00 00 
    1df8:	0f 85 b1 00 00 00    	jne    1eaf <pqcrystals_kyber1024_ref_indcpa_keypair+0x39f>
    1dfe:	48 81 c4 a8 3a 00 00 	add    $0x3aa8,%rsp
    1e05:	5b                   	pop    %rbx
    1e06:	5d                   	pop    %rbp
    1e07:	41 5c                	pop    %r12
    1e09:	41 5d                	pop    %r13
    1e0b:	41 5e                	pop    %r14
    1e0d:	41 5f                	pop    %r15
    1e0f:	c3                   	ret    
    1e10:	bb 00 01 00 00       	mov    $0x100,%ebx
    1e15:	0f 1f 00             	nopl   (%rax)
    1e18:	be 01 00 00 00       	mov    $0x1,%esi
    1e1d:	4c 89 ef             	mov    %r13,%rdi
    1e20:	48 89 ea             	mov    %rbp,%rdx
    1e23:	e8 08 5d 00 00       	call   7b30 <pqcrystals_kyber_fips202_ref_shake128_squeezeblocks>
    1e28:	89 df                	mov    %ebx,%edi
    1e2a:	44 89 e0             	mov    %r12d,%eax
    1e2d:	4c 89 e9             	mov    %r13,%rcx
    1e30:	44 29 e7             	sub    %r12d,%edi
    1e33:	4d 8d 04 47          	lea    (%r15,%rax,2),%r8
    1e37:	31 f6                	xor    %esi,%esi
    1e39:	eb 22                	jmp    1e5d <pqcrystals_kyber1024_ref_indcpa_keypair+0x34d>
    1e3b:	0f 1f 44 00 00       	nopl   0x0(%rax,%rax,1)
    1e40:	66 3d 00 0d          	cmp    $0xd00,%ax
    1e44:	77 0a                	ja     1e50 <pqcrystals_kyber1024_ref_indcpa_keypair+0x340>
    1e46:	89 f2                	mov    %esi,%edx
    1e48:	83 c6 01             	add    $0x1,%esi
    1e4b:	66 41 89 04 50       	mov    %ax,(%r8,%rdx,2)
    1e50:	39 f7                	cmp    %esi,%edi
    1e52:	76 46                	jbe    1e9a <pqcrystals_kyber1024_ref_indcpa_keypair+0x38a>
    1e54:	48 83 c1 03          	add    $0x3,%rcx
    1e58:	49 39 ce             	cmp    %rcx,%r14
    1e5b:	74 3d                	je     1e9a <pqcrystals_kyber1024_ref_indcpa_keypair+0x38a>
    1e5d:	0f b6 41 01          	movzbl 0x1(%rcx),%eax
    1e61:	44 0f b6 09          	movzbl (%rcx),%r9d
    1e65:	89 c2                	mov    %eax,%edx
    1e67:	c0 e8 04             	shr    $0x4,%al
    1e6a:	c1 e2 08             	shl    $0x8,%edx
    1e6d:	0f b6 c0             	movzbl %al,%eax
    1e70:	44 09 ca             	or     %r9d,%edx
    1e73:	44 0f b6 49 02       	movzbl 0x2(%rcx),%r9d
    1e78:	66 81 e2 ff 0f       	and    $0xfff,%dx
    1e7d:	41 c1 e1 04          	shl    $0x4,%r9d
    1e81:	44 09 c8             	or     %r9d,%eax
    1e84:	66 81 fa 00 0d       	cmp    $0xd00,%dx
    1e89:	77 0b                	ja     1e96 <pqcrystals_kyber1024_ref_indcpa_keypair+0x386>
    1e8b:	41 89 f1             	mov    %esi,%r9d
    1e8e:	83 c6 01             	add    $0x1,%esi
    1e91:	66 43 89 14 48       	mov    %dx,(%r8,%r9,2)
    1e96:	39 f7                	cmp    %esi,%edi
    1e98:	77 a6                	ja     1e40 <pqcrystals_kyber1024_ref_indcpa_keypair+0x330>
    1e9a:	41 01 f4             	add    %esi,%r12d
    1e9d:	41 81 fc ff 00 00 00 	cmp    $0xff,%r12d
    1ea4:	0f 86 6e ff ff ff    	jbe    1e18 <pqcrystals_kyber1024_ref_indcpa_keypair+0x308>
    1eaa:	e9 ef fd ff ff       	jmp    1c9e <pqcrystals_kyber1024_ref_indcpa_keypair+0x18e>
    1eaf:	e8 cc f2 ff ff       	call   1180 <__stack_chk_fail@plt>
    1eb4:	66 66 2e 0f 1f 84 00 	data16 cs nopw 0x0(%rax,%rax,1)
    1ebb:	00 00 00 00 
    1ebf:	90                   	nop

0000000000001ec0 <pqcrystals_kyber1024_ref_indcpa_enc>:
    1ec0:	f3 0f 1e fa          	endbr64 
    1ec4:	41 57                	push   %r15
    1ec6:	41 56                	push   %r14
    1ec8:	41 55                	push   %r13
    1eca:	41 54                	push   %r12
    1ecc:	55                   	push   %rbp
    1ecd:	53                   	push   %rbx
    1ece:	4c 8d 9c 24 00 c0 ff 	lea    -0x4000(%rsp),%r11
    1ed5:	ff 
    1ed6:	48 81 ec 00 10 00 00 	sub    $0x1000,%rsp
    1edd:	48 83 0c 24 00       	orq    $0x0,(%rsp)
    1ee2:	4c 39 dc             	cmp    %r11,%rsp
    1ee5:	75 ef                	jne    1ed6 <pqcrystals_kyber1024_ref_indcpa_enc+0x16>
    1ee7:	48 81 ec 88 08 00 00 	sub    $0x888,%rsp
    1eee:	48 89 7c 24 38       	mov    %rdi,0x38(%rsp)
    1ef3:	48 89 d3             	mov    %rdx,%rbx
    1ef6:	48 89 f5             	mov    %rsi,%rbp
    1ef9:	48 89 d6             	mov    %rdx,%rsi
    1efc:	48 89 4c 24 20       	mov    %rcx,0x20(%rsp)
    1f01:	4c 8d ac 24 70 46 00 	lea    0x4670(%rsp),%r13
    1f08:	00 
    1f09:	4c 8d b4 24 18 47 00 	lea    0x4718(%rsp),%r14
    1f10:	00 
    1f11:	4d 89 ef             	mov    %r13,%r15
    1f14:	64 48 8b 04 25 28 00 	mov    %fs:0x28,%rax
    1f1b:	00 00 
    1f1d:	48 89 84 24 78 48 00 	mov    %rax,0x4878(%rsp)
    1f24:	00 
    1f25:	31 c0                	xor    %eax,%eax
    1f27:	48 8d 84 24 50 0e 00 	lea    0xe50(%rsp),%rax
    1f2e:	00 
    1f2f:	48 89 c7             	mov    %rax,%rdi
    1f32:	48 89 44 24 40       	mov    %rax,0x40(%rsp)
    1f37:	e8 d4 09 00 00       	call   2910 <pqcrystals_kyber1024_ref_polyvec_frombytes>
    1f3c:	48 8d 84 24 50 02 00 	lea    0x250(%rsp),%rax
    1f43:	00 
    1f44:	f3 0f 6f 83 00 06 00 	movdqu 0x600(%rbx),%xmm0
    1f4b:	00 
    1f4c:	48 89 ee             	mov    %rbp,%rsi
    1f4f:	f3 0f 6f 8b 10 06 00 	movdqu 0x610(%rbx),%xmm1
    1f56:	00 
    1f57:	48 89 c7             	mov    %rax,%rdi
    1f5a:	48 89 44 24 48       	mov    %rax,0x48(%rsp)
    1f5f:	48 8d ac 24 50 1e 00 	lea    0x1e50(%rsp),%rbp
    1f66:	00 
    1f67:	0f 29 84 24 50 46 00 	movaps %xmm0,0x4650(%rsp)
    1f6e:	00 
    1f6f:	0f 29 8c 24 60 46 00 	movaps %xmm1,0x4660(%rsp)
    1f76:	00 
    1f77:	e8 74 0f 00 00       	call   2ef0 <pqcrystals_kyber1024_ref_poly_frommsg>
    1f7c:	48 8d 84 24 50 26 00 	lea    0x2650(%rsp),%rax
    1f83:	00 
    1f84:	c7 44 24 04 00 00 00 	movl   $0x0,0x4(%rsp)
    1f8b:	00 
    1f8c:	48 89 44 24 28       	mov    %rax,0x28(%rsp)
    1f91:	48 89 44 24 30       	mov    %rax,0x30(%rsp)
    1f96:	48 89 44 24 18       	mov    %rax,0x18(%rsp)
    1f9b:	48 8d 84 24 50 46 00 	lea    0x4650(%rsp),%rax
    1fa2:	00 
    1fa3:	48 89 44 24 10       	mov    %rax,0x10(%rsp)
    1fa8:	48 8d 84 24 68 48 00 	lea    0x4868(%rsp),%rax
    1faf:	00 
    1fb0:	48 89 44 24 08       	mov    %rax,0x8(%rsp)
    1fb5:	4c 8b 6c 24 18       	mov    0x18(%rsp),%r13
    1fba:	c7 04 24 00 00 00 00 	movl   $0x0,(%rsp)
    1fc1:	4c 89 f8             	mov    %r15,%rax
    1fc4:	4d 89 ef             	mov    %r13,%r15
    1fc7:	49 89 c5             	mov    %rax,%r13
    1fca:	8b 0c 24             	mov    (%rsp),%ecx
    1fcd:	8b 54 24 04          	mov    0x4(%rsp),%edx
    1fd1:	48 89 ef             	mov    %rbp,%rdi
    1fd4:	45 31 e4             	xor    %r12d,%r12d
    1fd7:	48 8b 74 24 10       	mov    0x10(%rsp),%rsi
    1fdc:	e8 2f 83 00 00       	call   a310 <pqcrystals_kyber1024_ref_kyber_shake128_absorb>
    1fe1:	4c 89 ef             	mov    %r13,%rdi
    1fe4:	48 89 ea             	mov    %rbp,%rdx
    1fe7:	be 03 00 00 00       	mov    $0x3,%esi
    1fec:	e8 3f 5b 00 00       	call   7b30 <pqcrystals_kyber_fips202_ref_shake128_squeezeblocks>
    1ff1:	48 8b 7c 24 08       	mov    0x8(%rsp),%rdi
    1ff6:	4c 89 e9             	mov    %r13,%rcx
    1ff9:	eb 12                	jmp    200d <pqcrystals_kyber1024_ref_indcpa_enc+0x14d>
    1ffb:	0f 1f 44 00 00       	nopl   0x0(%rax,%rax,1)
    2000:	48 83 c1 03          	add    $0x3,%rcx
    2004:	48 39 cf             	cmp    %rcx,%rdi
    2007:	0f 84 e2 01 00 00    	je     21ef <pqcrystals_kyber1024_ref_indcpa_enc+0x32f>
    200d:	0f b6 41 01          	movzbl 0x1(%rcx),%eax
    2011:	0f b6 31             	movzbl (%rcx),%esi
    2014:	89 c2                	mov    %eax,%edx
    2016:	c0 e8 04             	shr    $0x4,%al
    2019:	c1 e2 08             	shl    $0x8,%edx
    201c:	0f b6 c0             	movzbl %al,%eax
    201f:	09 f2                	or     %esi,%edx
    2021:	0f b6 71 02          	movzbl 0x2(%rcx),%esi
    2025:	66 81 e2 ff 0f       	and    $0xfff,%dx
    202a:	c1 e6 04             	shl    $0x4,%esi
    202d:	09 f0                	or     %esi,%eax
    202f:	66 81 fa 00 0d       	cmp    $0xd00,%dx
    2034:	77 0c                	ja     2042 <pqcrystals_kyber1024_ref_indcpa_enc+0x182>
    2036:	44 89 e6             	mov    %r12d,%esi
    2039:	41 83 c4 01          	add    $0x1,%r12d
    203d:	66 41 89 14 77       	mov    %dx,(%r15,%rsi,2)
    2042:	41 81 fc ff 00 00 00 	cmp    $0xff,%r12d
    2049:	77 12                	ja     205d <pqcrystals_kyber1024_ref_indcpa_enc+0x19d>
    204b:	66 3d 00 0d          	cmp    $0xd00,%ax
    204f:	77 0c                	ja     205d <pqcrystals_kyber1024_ref_indcpa_enc+0x19d>
    2051:	44 89 e2             	mov    %r12d,%edx
    2054:	41 83 c4 01          	add    $0x1,%r12d
    2058:	66 41 89 04 57       	mov    %ax,(%r15,%rdx,2)
    205d:	41 81 fc 00 01 00 00 	cmp    $0x100,%r12d
    2064:	75 9a                	jne    2000 <pqcrystals_kyber1024_ref_indcpa_enc+0x140>
    2066:	83 04 24 01          	addl   $0x1,(%rsp)
    206a:	8b 04 24             	mov    (%rsp),%eax
    206d:	49 81 c7 00 02 00 00 	add    $0x200,%r15
    2074:	83 f8 04             	cmp    $0x4,%eax
    2077:	0f 85 4d ff ff ff    	jne    1fca <pqcrystals_kyber1024_ref_indcpa_enc+0x10a>
    207d:	83 44 24 04 01       	addl   $0x1,0x4(%rsp)
    2082:	8b 44 24 04          	mov    0x4(%rsp),%eax
    2086:	4d 89 ef             	mov    %r13,%r15
    2089:	48 81 44 24 18 00 08 	addq   $0x800,0x18(%rsp)
    2090:	00 00 
    2092:	83 f8 04             	cmp    $0x4,%eax
    2095:	0f 85 1a ff ff ff    	jne    1fb5 <pqcrystals_kyber1024_ref_indcpa_enc+0xf5>
    209b:	4c 8b 6c 24 20       	mov    0x20(%rsp),%r13
    20a0:	31 db                	xor    %ebx,%ebx
    20a2:	4c 8d a4 24 50 06 00 	lea    0x650(%rsp),%r12
    20a9:	00 
    20aa:	48 89 df             	mov    %rbx,%rdi
    20ad:	89 da                	mov    %ebx,%edx
    20af:	4c 89 ee             	mov    %r13,%rsi
    20b2:	48 83 c3 01          	add    $0x1,%rbx
    20b6:	48 c1 e7 09          	shl    $0x9,%rdi
    20ba:	4c 01 e7             	add    %r12,%rdi
    20bd:	e8 be 2a 00 00       	call   4b80 <pqcrystals_kyber1024_ref_poly_getnoise_eta1>
    20c2:	48 83 fb 04          	cmp    $0x4,%rbx
    20c6:	75 e2                	jne    20aa <pqcrystals_kyber1024_ref_indcpa_enc+0x1ea>
    20c8:	4c 8b 74 24 20       	mov    0x20(%rsp),%r14
    20cd:	31 db                	xor    %ebx,%ebx
    20cf:	4c 8d ac 24 50 16 00 	lea    0x1650(%rsp),%r13
    20d6:	00 
    20d7:	48 89 df             	mov    %rbx,%rdi
    20da:	8d 53 04             	lea    0x4(%rbx),%edx
    20dd:	4c 89 f6             	mov    %r14,%rsi
    20e0:	48 83 c3 01          	add    $0x1,%rbx
    20e4:	48 c1 e7 09          	shl    $0x9,%rdi
    20e8:	4c 01 ef             	add    %r13,%rdi
    20eb:	e8 00 2b 00 00       	call   4bf0 <pqcrystals_kyber1024_ref_poly_getnoise_eta2>
    20f0:	48 83 fb 04          	cmp    $0x4,%rbx
    20f4:	75 e1                	jne    20d7 <pqcrystals_kyber1024_ref_indcpa_enc+0x217>
    20f6:	48 8b 74 24 20       	mov    0x20(%rsp),%rsi
    20fb:	4c 8d b4 24 50 04 00 	lea    0x450(%rsp),%r14
    2102:	00 
    2103:	ba 08 00 00 00       	mov    $0x8,%edx
    2108:	48 89 eb             	mov    %rbp,%rbx
    210b:	4c 89 f7             	mov    %r14,%rdi
    210e:	e8 dd 2a 00 00       	call   4bf0 <pqcrystals_kyber1024_ref_poly_getnoise_eta2>
    2113:	4c 89 e7             	mov    %r12,%rdi
    2116:	e8 35 08 00 00       	call   2950 <pqcrystals_kyber1024_ref_polyvec_ntt>
    211b:	4c 8b 7c 24 30       	mov    0x30(%rsp),%r15
    2120:	4c 89 fe             	mov    %r15,%rsi
    2123:	48 89 df             	mov    %rbx,%rdi
    2126:	4c 89 e2             	mov    %r12,%rdx
    2129:	48 81 c3 00 02 00 00 	add    $0x200,%rbx
    2130:	e8 9b 08 00 00       	call   29d0 <pqcrystals_kyber1024_ref_polyvec_basemul_acc_montgomery>
    2135:	49 81 c7 00 08 00 00 	add    $0x800,%r15
    213c:	48 39 5c 24 28       	cmp    %rbx,0x28(%rsp)
    2141:	75 dd                	jne    2120 <pqcrystals_kyber1024_ref_indcpa_enc+0x260>
    2143:	4c 8d 7c 24 50       	lea    0x50(%rsp),%r15
    2148:	48 8b 74 24 40       	mov    0x40(%rsp),%rsi
    214d:	4c 89 e2             	mov    %r12,%rdx
    2150:	4c 89 ff             	mov    %r15,%rdi
    2153:	e8 78 08 00 00       	call   29d0 <pqcrystals_kyber1024_ref_polyvec_basemul_acc_montgomery>
    2158:	48 89 ef             	mov    %rbp,%rdi
    215b:	e8 30 08 00 00       	call   2990 <pqcrystals_kyber1024_ref_polyvec_invntt_tomont>
    2160:	4c 89 ff             	mov    %r15,%rdi
    2163:	e8 38 2b 00 00       	call   4ca0 <pqcrystals_kyber1024_ref_poly_invntt_tomont>
    2168:	4c 89 ea             	mov    %r13,%rdx
    216b:	48 89 ee             	mov    %rbp,%rsi
    216e:	48 89 ef             	mov    %rbp,%rdi
    2171:	e8 3a 09 00 00       	call   2ab0 <pqcrystals_kyber1024_ref_polyvec_add>
    2176:	4c 89 f2             	mov    %r14,%rdx
    2179:	4c 89 fe             	mov    %r15,%rsi
    217c:	4c 89 ff             	mov    %r15,%rdi
    217f:	e8 2c 2c 00 00       	call   4db0 <pqcrystals_kyber1024_ref_poly_add>
    2184:	48 8b 54 24 48       	mov    0x48(%rsp),%rdx
    2189:	4c 89 fe             	mov    %r15,%rsi
    218c:	4c 89 ff             	mov    %r15,%rdi
    218f:	e8 1c 2c 00 00       	call   4db0 <pqcrystals_kyber1024_ref_poly_add>
    2194:	48 89 ef             	mov    %rbp,%rdi
    2197:	e8 d4 08 00 00       	call   2a70 <pqcrystals_kyber1024_ref_polyvec_reduce>
    219c:	4c 89 ff             	mov    %r15,%rdi
    219f:	e8 cc 2b 00 00       	call   4d70 <pqcrystals_kyber1024_ref_poly_reduce>
    21a4:	48 8b 5c 24 38       	mov    0x38(%rsp),%rbx
    21a9:	48 89 ee             	mov    %rbp,%rsi
    21ac:	48 89 df             	mov    %rbx,%rdi
    21af:	e8 dc 01 00 00       	call   2390 <pqcrystals_kyber1024_ref_polyvec_compress>
    21b4:	48 89 df             	mov    %rbx,%rdi
    21b7:	4c 89 fe             	mov    %r15,%rsi
    21ba:	48 81 c7 80 05 00 00 	add    $0x580,%rdi
    21c1:	e8 3a 09 00 00       	call   2b00 <pqcrystals_kyber1024_ref_poly_compress>
    21c6:	48 8b 84 24 78 48 00 	mov    0x4878(%rsp),%rax
    21cd:	00 
    21ce:	64 48 2b 04 25 28 00 	sub    %fs:0x28,%rax
    21d5:	00 00 
    21d7:	0f 85 b2 00 00 00    	jne    228f <pqcrystals_kyber1024_ref_indcpa_enc+0x3cf>
    21dd:	48 81 c4 88 48 00 00 	add    $0x4888,%rsp
    21e4:	5b                   	pop    %rbx
    21e5:	5d                   	pop    %rbp
    21e6:	41 5c                	pop    %r12
    21e8:	41 5d                	pop    %r13
    21ea:	41 5e                	pop    %r14
    21ec:	41 5f                	pop    %r15
    21ee:	c3                   	ret    
    21ef:	bb 00 01 00 00       	mov    $0x100,%ebx
    21f4:	0f 1f 40 00          	nopl   0x0(%rax)
    21f8:	be 01 00 00 00       	mov    $0x1,%esi
    21fd:	4c 89 ef             	mov    %r13,%rdi
    2200:	48 89 ea             	mov    %rbp,%rdx
    2203:	e8 28 59 00 00       	call   7b30 <pqcrystals_kyber_fips202_ref_shake128_squeezeblocks>
    2208:	89 df                	mov    %ebx,%edi
    220a:	44 89 e0             	mov    %r12d,%eax
    220d:	4c 89 e9             	mov    %r13,%rcx
    2210:	44 29 e7             	sub    %r12d,%edi
    2213:	4d 8d 04 47          	lea    (%r15,%rax,2),%r8
    2217:	31 f6                	xor    %esi,%esi
    2219:	eb 22                	jmp    223d <pqcrystals_kyber1024_ref_indcpa_enc+0x37d>
    221b:	0f 1f 44 00 00       	nopl   0x0(%rax,%rax,1)
    2220:	66 3d 00 0d          	cmp    $0xd00,%ax
    2224:	77 0a                	ja     2230 <pqcrystals_kyber1024_ref_indcpa_enc+0x370>
    2226:	89 f2                	mov    %esi,%edx
    2228:	83 c6 01             	add    $0x1,%esi
    222b:	66 41 89 04 50       	mov    %ax,(%r8,%rdx,2)
    2230:	39 f7                	cmp    %esi,%edi
    2232:	76 46                	jbe    227a <pqcrystals_kyber1024_ref_indcpa_enc+0x3ba>
    2234:	48 83 c1 03          	add    $0x3,%rcx
    2238:	49 39 ce             	cmp    %rcx,%r14
    223b:	74 3d                	je     227a <pqcrystals_kyber1024_ref_indcpa_enc+0x3ba>
    223d:	0f b6 41 01          	movzbl 0x1(%rcx),%eax
    2241:	44 0f b6 09          	movzbl (%rcx),%r9d
    2245:	89 c2                	mov    %eax,%edx
    2247:	c0 e8 04             	shr    $0x4,%al
    224a:	c1 e2 08             	shl    $0x8,%edx
    224d:	0f b6 c0             	movzbl %al,%eax
    2250:	44 09 ca             	or     %r9d,%edx
    2253:	44 0f b6 49 02       	movzbl 0x2(%rcx),%r9d
    2258:	66 81 e2 ff 0f       	and    $0xfff,%dx
    225d:	41 c1 e1 04          	shl    $0x4,%r9d
    2261:	44 09 c8             	or     %r9d,%eax
    2264:	66 81 fa 00 0d       	cmp    $0xd00,%dx
    2269:	77 0b                	ja     2276 <pqcrystals_kyber1024_ref_indcpa_enc+0x3b6>
    226b:	41 89 f1             	mov    %esi,%r9d
    226e:	83 c6 01             	add    $0x1,%esi
    2271:	66 43 89 14 48       	mov    %dx,(%r8,%r9,2)
    2276:	39 f7                	cmp    %esi,%edi
    2278:	77 a6                	ja     2220 <pqcrystals_kyber1024_ref_indcpa_enc+0x360>
    227a:	41 01 f4             	add    %esi,%r12d
    227d:	41 81 fc ff 00 00 00 	cmp    $0xff,%r12d
    2284:	0f 86 6e ff ff ff    	jbe    21f8 <pqcrystals_kyber1024_ref_indcpa_enc+0x338>
    228a:	e9 d7 fd ff ff       	jmp    2066 <pqcrystals_kyber1024_ref_indcpa_enc+0x1a6>
    228f:	e8 ec ee ff ff       	call   1180 <__stack_chk_fail@plt>
    2294:	66 66 2e 0f 1f 84 00 	data16 cs nopw 0x0(%rax,%rax,1)
    229b:	00 00 00 00 
    229f:	90                   	nop

00000000000022a0 <pqcrystals_kyber1024_ref_indcpa_dec>:
    22a0:	f3 0f 1e fa          	endbr64 
    22a4:	41 57                	push   %r15
    22a6:	41 56                	push   %r14
    22a8:	41 55                	push   %r13
    22aa:	41 54                	push   %r12
    22ac:	55                   	push   %rbp
    22ad:	53                   	push   %rbx
    22ae:	48 81 ec 00 10 00 00 	sub    $0x1000,%rsp
    22b5:	48 83 0c 24 00       	orq    $0x0,(%rsp)
    22ba:	48 81 ec 18 04 00 00 	sub    $0x418,%rsp
    22c1:	48 89 f5             	mov    %rsi,%rbp
    22c4:	49 89 fc             	mov    %rdi,%r12
    22c7:	49 89 e7             	mov    %rsp,%r15
    22ca:	49 89 d6             	mov    %rdx,%r14
    22cd:	4c 8d ac 24 00 04 00 	lea    0x400(%rsp),%r13
    22d4:	00 
    22d5:	48 8d 9c 24 00 0c 00 	lea    0xc00(%rsp),%rbx
    22dc:	00 
    22dd:	64 48 8b 04 25 28 00 	mov    %fs:0x28,%rax
    22e4:	00 00 
    22e6:	48 89 84 24 08 14 00 	mov    %rax,0x1408(%rsp)
    22ed:	00 
    22ee:	31 c0                	xor    %eax,%eax
    22f0:	4c 89 ef             	mov    %r13,%rdi
    22f3:	e8 a8 03 00 00       	call   26a0 <pqcrystals_kyber1024_ref_polyvec_decompress>
    22f8:	48 8d b5 80 05 00 00 	lea    0x580(%rbp),%rsi
    22ff:	4c 89 ff             	mov    %r15,%rdi
    2302:	48 8d ac 24 00 02 00 	lea    0x200(%rsp),%rbp
    2309:	00 
    230a:	e8 c1 09 00 00       	call   2cd0 <pqcrystals_kyber1024_ref_poly_decompress>
    230f:	4c 89 f6             	mov    %r14,%rsi
    2312:	48 89 df             	mov    %rbx,%rdi
    2315:	e8 f6 05 00 00       	call   2910 <pqcrystals_kyber1024_ref_polyvec_frombytes>
    231a:	4c 89 ef             	mov    %r13,%rdi
    231d:	e8 2e 06 00 00       	call   2950 <pqcrystals_kyber1024_ref_polyvec_ntt>
    2322:	4c 89 ea             	mov    %r13,%rdx
    2325:	48 89 de             	mov    %rbx,%rsi
    2328:	48 89 ef             	mov    %rbp,%rdi
    232b:	e8 a0 06 00 00       	call   29d0 <pqcrystals_kyber1024_ref_polyvec_basemul_acc_montgomery>
    2330:	48 89 ef             	mov    %rbp,%rdi
    2333:	e8 68 29 00 00       	call   4ca0 <pqcrystals_kyber1024_ref_poly_invntt_tomont>
    2338:	4c 89 fe             	mov    %r15,%rsi
    233b:	48 89 ea             	mov    %rbp,%rdx
    233e:	48 89 ef             	mov    %rbp,%rdi
    2341:	e8 9a 2a 00 00       	call   4de0 <pqcrystals_kyber1024_ref_poly_sub>
    2346:	48 89 ef             	mov    %rbp,%rdi
    2349:	e8 22 2a 00 00       	call   4d70 <pqcrystals_kyber1024_ref_poly_reduce>
    234e:	48 89 ee             	mov    %rbp,%rsi
    2351:	4c 89 e7             	mov    %r12,%rdi
    2354:	e8 47 14 00 00       	call   37a0 <pqcrystals_kyber1024_ref_poly_tomsg>
    2359:	48 8b 84 24 08 14 00 	mov    0x1408(%rsp),%rax
    2360:	00 
    2361:	64 48 2b 04 25 28 00 	sub    %fs:0x28,%rax
    2368:	00 00 
    236a:	75 12                	jne    237e <pqcrystals_kyber1024_ref_indcpa_dec+0xde>
    236c:	48 81 c4 18 14 00 00 	add    $0x1418,%rsp
    2373:	5b                   	pop    %rbx
    2374:	5d                   	pop    %rbp
    2375:	41 5c                	pop    %r12
    2377:	41 5d                	pop    %r13
    2379:	41 5e                	pop    %r14
    237b:	41 5f                	pop    %r15
    237d:	c3                   	ret    
    237e:	e8 fd ed ff ff       	call   1180 <__stack_chk_fail@plt>
    2383:	66 2e 0f 1f 84 00 00 	cs nopw 0x0(%rax,%rax,1)
    238a:	00 00 00 
    238d:	0f 1f 00             	nopl   (%rax)

0000000000002390 <pqcrystals_kyber1024_ref_polyvec_compress>:
    2390:	f3 0f 1e fa          	endbr64 
    2394:	41 57                	push   %r15
    2396:	48 89 f8             	mov    %rdi,%rax
    2399:	48 81 c7 60 01 00 00 	add    $0x160,%rdi
    23a0:	41 56                	push   %r14
    23a2:	48 05 e0 06 00 00    	add    $0x6e0,%rax
    23a8:	41 55                	push   %r13
    23aa:	41 54                	push   %r12
    23ac:	55                   	push   %rbp
    23ad:	53                   	push   %rbx
    23ae:	48 89 7c 24 e8       	mov    %rdi,-0x18(%rsp)
    23b3:	48 89 74 24 f0       	mov    %rsi,-0x10(%rsp)
    23b8:	48 89 44 24 f8       	mov    %rax,-0x8(%rsp)
    23bd:	48 8b 44 24 e8       	mov    -0x18(%rsp),%rax
    23c2:	4c 8b 7c 24 f0       	mov    -0x10(%rsp),%r15
    23c7:	48 8d a8 a0 fe ff ff 	lea    -0x160(%rax),%rbp
    23ce:	66 90                	xchg   %ax,%ax
    23d0:	41 0f b7 07          	movzwl (%r15),%eax
    23d4:	41 0f b7 57 02       	movzwl 0x2(%r15),%edx
    23d9:	41 0f b7 4f 04       	movzwl 0x4(%r15),%ecx
    23de:	41 0f b7 77 06       	movzwl 0x6(%r15),%esi
    23e3:	41 89 c2             	mov    %eax,%r10d
    23e6:	45 0f b7 47 0a       	movzwl 0xa(%r15),%r8d
    23eb:	45 0f b7 4f 0c       	movzwl 0xc(%r15),%r9d
    23f0:	66 41 c1 fa 0f       	sar    $0xf,%r10w
    23f5:	45 0f b7 67 0e       	movzwl 0xe(%r15),%r12d
    23fa:	66 41 81 e2 01 0d    	and    $0xd01,%r10w
    2400:	41 01 c2             	add    %eax,%r10d
    2403:	89 d0                	mov    %edx,%eax
    2405:	66 c1 f8 0f          	sar    $0xf,%ax
    2409:	45 0f b7 d2          	movzwl %r10w,%r10d
    240d:	66 25 01 0d          	and    $0xd01,%ax
    2411:	49 c1 e2 0b          	shl    $0xb,%r10
    2415:	01 d0                	add    %edx,%eax
    2417:	89 ca                	mov    %ecx,%edx
    2419:	49 81 c2 80 06 00 00 	add    $0x680,%r10
    2420:	66 c1 fa 0f          	sar    $0xf,%dx
    2424:	4d 69 d2 dc d7 09 00 	imul   $0x9d7dc,%r10,%r10
    242b:	0f b7 c0             	movzwl %ax,%eax
    242e:	66 81 e2 01 0d       	and    $0xd01,%dx
    2433:	48 c1 e0 0b          	shl    $0xb,%rax
    2437:	01 ca                	add    %ecx,%edx
    2439:	89 f1                	mov    %esi,%ecx
    243b:	48 05 80 06 00 00    	add    $0x680,%rax
    2441:	66 c1 f9 0f          	sar    $0xf,%cx
    2445:	0f b7 d2             	movzwl %dx,%edx
    2448:	49 c1 ea 1f          	shr    $0x1f,%r10
    244c:	66 81 e1 01 0d       	and    $0xd01,%cx
    2451:	48 c1 e2 0b          	shl    $0xb,%rdx
    2455:	48 69 c0 dc d7 09 00 	imul   $0x9d7dc,%rax,%rax
    245c:	66 41 81 e2 ff 07    	and    $0x7ff,%r10w
    2462:	01 f1                	add    %esi,%ecx
    2464:	48 81 c2 80 06 00 00 	add    $0x680,%rdx
    246b:	0f b7 c9             	movzwl %cx,%ecx
    246e:	48 69 d2 dc d7 09 00 	imul   $0x9d7dc,%rdx,%rdx
    2475:	48 c1 e1 0b          	shl    $0xb,%rcx
    2479:	48 c1 e8 1f          	shr    $0x1f,%rax
    247d:	48 81 c1 80 06 00 00 	add    $0x680,%rcx
    2484:	41 89 c5             	mov    %eax,%r13d
    2487:	48 69 c9 dc d7 09 00 	imul   $0x9d7dc,%rcx,%rcx
    248e:	48 c1 ea 1f          	shr    $0x1f,%rdx
    2492:	66 41 81 e5 ff 07    	and    $0x7ff,%r13w
    2498:	89 d3                	mov    %edx,%ebx
    249a:	66 81 e3 ff 07       	and    $0x7ff,%bx
    249f:	48 c1 e9 1f          	shr    $0x1f,%rcx
    24a3:	89 cf                	mov    %ecx,%edi
    24a5:	66 81 e7 ff 07       	and    $0x7ff,%di
    24aa:	66 89 7c 24 e2       	mov    %di,-0x1e(%rsp)
    24af:	41 0f b7 7f 08       	movzwl 0x8(%r15),%edi
    24b4:	89 fe                	mov    %edi,%esi
    24b6:	66 c1 fe 0f          	sar    $0xf,%si
    24ba:	66 81 e6 01 0d       	and    $0xd01,%si
    24bf:	01 fe                	add    %edi,%esi
    24c1:	44 89 c7             	mov    %r8d,%edi
    24c4:	66 c1 ff 0f          	sar    $0xf,%di
    24c8:	0f b7 f6             	movzwl %si,%esi
    24cb:	66 81 e7 01 0d       	and    $0xd01,%di
    24d0:	48 c1 e6 0b          	shl    $0xb,%rsi
    24d4:	44 01 c7             	add    %r8d,%edi
    24d7:	45 89 c8             	mov    %r9d,%r8d
    24da:	48 81 c6 80 06 00 00 	add    $0x680,%rsi
    24e1:	66 41 c1 f8 0f       	sar    $0xf,%r8w
    24e6:	48 69 f6 dc d7 09 00 	imul   $0x9d7dc,%rsi,%rsi
    24ed:	0f b7 ff             	movzwl %di,%edi
    24f0:	66 41 81 e0 01 0d    	and    $0xd01,%r8w
    24f6:	48 c1 e7 0b          	shl    $0xb,%rdi
    24fa:	45 01 c1             	add    %r8d,%r9d
    24fd:	48 81 c7 80 06 00 00 	add    $0x680,%rdi
    2504:	45 0f b7 c9          	movzwl %r9w,%r9d
    2508:	48 69 ff dc d7 09 00 	imul   $0x9d7dc,%rdi,%rdi
    250f:	48 c1 ee 1f          	shr    $0x1f,%rsi
    2513:	49 c1 e1 0b          	shl    $0xb,%r9
    2517:	41 89 f6             	mov    %esi,%r14d
    251a:	49 81 c1 80 06 00 00 	add    $0x680,%r9
    2521:	66 41 81 e6 ff 07    	and    $0x7ff,%r14w
    2527:	4d 69 c9 dc d7 09 00 	imul   $0x9d7dc,%r9,%r9
    252e:	48 c1 ef 1f          	shr    $0x1f,%rdi
    2532:	66 44 89 74 24 e4    	mov    %r14w,-0x1c(%rsp)
    2538:	45 89 d6             	mov    %r10d,%r14d
    253b:	41 89 fb             	mov    %edi,%r11d
    253e:	66 41 81 e3 ff 07    	and    $0x7ff,%r11w
    2544:	49 c1 e9 1f          	shr    $0x1f,%r9
    2548:	45 89 c8             	mov    %r9d,%r8d
    254b:	66 41 81 e0 ff 07    	and    $0x7ff,%r8w
    2551:	66 44 89 44 24 e6    	mov    %r8w,-0x1a(%rsp)
    2557:	45 89 e0             	mov    %r12d,%r8d
    255a:	66 41 c1 f8 0f       	sar    $0xf,%r8w
    255f:	66 41 81 e0 01 0d    	and    $0xd01,%r8w
    2565:	45 01 e0             	add    %r12d,%r8d
    2568:	45 0f b7 c0          	movzwl %r8w,%r8d
    256c:	49 c1 e0 0b          	shl    $0xb,%r8
    2570:	49 81 c0 80 06 00 00 	add    $0x680,%r8
    2577:	4d 69 c0 dc d7 09 00 	imul   $0x9d7dc,%r8,%r8
    257e:	49 c1 e8 1f          	shr    $0x1f,%r8
    2582:	45 89 c4             	mov    %r8d,%r12d
    2585:	66 41 81 e4 ff 07    	and    $0x7ff,%r12w
    258b:	66 41 c1 ee 08       	shr    $0x8,%r14w
    2590:	01 c9                	add    %ecx,%ecx
    2592:	66 41 c1 ed 05       	shr    $0x5,%r13w
    2597:	c1 e2 06             	shl    $0x6,%edx
    259a:	c1 e6 04             	shl    $0x4,%esi
    259d:	44 09 ea             	or     %r13d,%edx
    25a0:	41 89 dd             	mov    %ebx,%r13d
    25a3:	66 c1 eb 0a          	shr    $0xa,%bx
    25a7:	c1 e7 07             	shl    $0x7,%edi
    25aa:	09 d9                	or     %ebx,%ecx
    25ac:	0f b7 5c 24 e2       	movzwl -0x1e(%rsp),%ebx
    25b1:	66 41 c1 ed 02       	shr    $0x2,%r13w
    25b6:	c1 e0 03             	shl    $0x3,%eax
    25b9:	66 c1 eb 07          	shr    $0x7,%bx
    25bd:	44 09 f0             	or     %r14d,%eax
    25c0:	09 de                	or     %ebx,%esi
    25c2:	0f b7 5c 24 e4       	movzwl -0x1c(%rsp),%ebx
    25c7:	40 0f b6 f6          	movzbl %sil,%esi
    25cb:	66 c1 eb 04          	shr    $0x4,%bx
    25cf:	09 df                	or     %ebx,%edi
    25d1:	44 89 db             	mov    %r11d,%ebx
    25d4:	66 41 c1 eb 09       	shr    $0x9,%r11w
    25d9:	66 d1 eb             	shr    %bx
    25dc:	40 0f b6 ff          	movzbl %dil,%edi
    25e0:	0f b6 db             	movzbl %bl,%ebx
    25e3:	48 c1 e3 08          	shl    $0x8,%rbx
    25e7:	48 09 fb             	or     %rdi,%rbx
    25ea:	48 c1 e3 08          	shl    $0x8,%rbx
    25ee:	48 09 f3             	or     %rsi,%rbx
    25f1:	0f b6 f1             	movzbl %cl,%esi
    25f4:	48 c1 e3 08          	shl    $0x8,%rbx
    25f8:	48 89 d9             	mov    %rbx,%rcx
    25fb:	48 09 f1             	or     %rsi,%rcx
    25fe:	41 0f b6 f5          	movzbl %r13b,%esi
    2602:	48 c1 e1 08          	shl    $0x8,%rcx
    2606:	49 89 cd             	mov    %rcx,%r13
    2609:	0f b6 ca             	movzbl %dl,%ecx
    260c:	49 09 f5             	or     %rsi,%r13
    260f:	4c 89 ea             	mov    %r13,%rdx
    2612:	48 c1 e2 08          	shl    $0x8,%rdx
    2616:	48 09 ca             	or     %rcx,%rdx
    2619:	0f b6 c8             	movzbl %al,%ecx
    261c:	48 c1 e2 08          	shl    $0x8,%rdx
    2620:	48 89 d0             	mov    %rdx,%rax
    2623:	41 0f b6 d2          	movzbl %r10b,%edx
    2627:	48 09 c8             	or     %rcx,%rax
    262a:	49 89 c2             	mov    %rax,%r10
    262d:	0f b7 44 24 e6       	movzwl -0x1a(%rsp),%eax
    2632:	49 c1 e2 08          	shl    $0x8,%r10
    2636:	49 09 d2             	or     %rdx,%r10
    2639:	41 c1 e1 02          	shl    $0x2,%r9d
    263d:	48 83 c5 0b          	add    $0xb,%rbp
    2641:	49 83 c7 10          	add    $0x10,%r15
    2645:	66 c1 e8 06          	shr    $0x6,%ax
    2649:	41 c1 e0 05          	shl    $0x5,%r8d
    264d:	45 09 d9             	or     %r11d,%r9d
    2650:	4c 89 55 f5          	mov    %r10,-0xb(%rbp)
    2654:	41 09 c0             	or     %eax,%r8d
    2657:	66 41 c1 ec 03       	shr    $0x3,%r12w
    265c:	44 88 4d fd          	mov    %r9b,-0x3(%rbp)
    2660:	44 88 45 fe          	mov    %r8b,-0x2(%rbp)
    2664:	44 88 65 ff          	mov    %r12b,-0x1(%rbp)
    2668:	48 3b 6c 24 e8       	cmp    -0x18(%rsp),%rbp
    266d:	0f 85 5d fd ff ff    	jne    23d0 <pqcrystals_kyber1024_ref_polyvec_compress+0x40>
    2673:	48 81 44 24 f0 00 02 	addq   $0x200,-0x10(%rsp)
    267a:	00 00 
    267c:	48 8d 85 60 01 00 00 	lea    0x160(%rbp),%rax
    2683:	48 89 44 24 e8       	mov    %rax,-0x18(%rsp)
    2688:	48 39 44 24 f8       	cmp    %rax,-0x8(%rsp)
    268d:	0f 85 2a fd ff ff    	jne    23bd <pqcrystals_kyber1024_ref_polyvec_compress+0x2d>
    2693:	5b                   	pop    %rbx
    2694:	5d                   	pop    %rbp
    2695:	41 5c                	pop    %r12
    2697:	41 5d                	pop    %r13
    2699:	41 5e                	pop    %r14
    269b:	41 5f                	pop    %r15
    269d:	c3                   	ret    
    269e:	66 90                	xchg   %ax,%ax

00000000000026a0 <pqcrystals_kyber1024_ref_polyvec_decompress>:
    26a0:	f3 0f 1e fa          	endbr64 
    26a4:	41 57                	push   %r15
    26a6:	49 89 ff             	mov    %rdi,%r15
    26a9:	41 56                	push   %r14
    26ab:	4c 8d b6 60 01 00 00 	lea    0x160(%rsi),%r14
    26b2:	41 55                	push   %r13
    26b4:	41 54                	push   %r12
    26b6:	55                   	push   %rbp
    26b7:	53                   	push   %rbx
    26b8:	c7 44 24 ec 00 00 00 	movl   $0x0,-0x14(%rsp)
    26bf:	00 
    26c0:	4c 89 7c 24 f0       	mov    %r15,-0x10(%rsp)
    26c5:	49 8d be a0 fe ff ff 	lea    -0x160(%r14),%rdi
    26cc:	4d 89 fd             	mov    %r15,%r13
    26cf:	90                   	nop
    26d0:	0f b6 6f 01          	movzbl 0x1(%rdi),%ebp
    26d4:	0f b6 57 02          	movzbl 0x2(%rdi),%edx
    26d8:	48 83 c7 0b          	add    $0xb,%rdi
    26dc:	44 0f b6 57 f9       	movzbl -0x7(%rdi),%r10d
    26e1:	0f b6 4f fc          	movzbl -0x4(%rdi),%ecx
    26e5:	40 c0 ed 03          	shr    $0x3,%bpl
    26e9:	89 d0                	mov    %edx,%eax
    26eb:	c1 e2 05             	shl    $0x5,%edx
    26ee:	0f b6 5f fb          	movzbl -0x5(%rdi),%ebx
    26f2:	40 0f b6 ed          	movzbl %bpl,%ebp
    26f6:	45 89 d3             	mov    %r10d,%r11d
    26f9:	c0 e8 06             	shr    $0x6,%al
    26fc:	44 0f b7 67 f5       	movzwl -0xb(%rdi),%r12d
    2701:	09 d5                	or     %edx,%ebp
    2703:	0f b6 57 f8          	movzbl -0x8(%rdi),%edx
    2707:	41 c1 e3 0a          	shl    $0xa,%r11d
    270b:	0f b6 c0             	movzbl %al,%eax
    270e:	01 c9                	add    %ecx,%ecx
    2710:	41 81 e4 ff 07 00 00 	and    $0x7ff,%r12d
    2717:	41 d0 ea             	shr    %r10b
    271a:	0f b6 77 ff          	movzbl -0x1(%rdi),%esi
    271e:	c1 e2 02             	shl    $0x2,%edx
    2721:	81 e5 ff 07 00 00    	and    $0x7ff,%ebp
    2727:	45 0f b6 d2          	movzbl %r10b,%r10d
    272b:	44 0f b6 7f fa       	movzbl -0x6(%rdi),%r15d
    2730:	41 09 d3             	or     %edx,%r11d
    2733:	44 0f b6 47 fe       	movzbl -0x2(%rdi),%r8d
    2738:	45 69 e4 01 0d 00 00 	imul   $0xd01,%r12d,%r12d
    273f:	c1 e6 03             	shl    $0x3,%esi
    2742:	41 09 c3             	or     %eax,%r11d
    2745:	0f b6 47 fd          	movzbl -0x3(%rdi),%eax
    2749:	69 ed 01 0d 00 00    	imul   $0xd01,%ebp,%ebp
    274f:	44 89 fa             	mov    %r15d,%edx
    2752:	41 81 e3 ff 07 00 00 	and    $0x7ff,%r11d
    2759:	41 c1 e7 07          	shl    $0x7,%r15d
    275d:	41 89 c1             	mov    %eax,%r9d
    2760:	45 69 db 01 0d 00 00 	imul   $0xd01,%r11d,%r11d
    2767:	41 81 c4 00 04 00 00 	add    $0x400,%r12d
    276e:	45 09 fa             	or     %r15d,%r10d
    2771:	41 c1 e1 09          	shl    $0x9,%r9d
    2775:	81 c5 00 04 00 00    	add    $0x400,%ebp
    277b:	41 c1 ec 0b          	shr    $0xb,%r12d
    277f:	41 09 c9             	or     %ecx,%r9d
    2782:	89 d9                	mov    %ebx,%ecx
    2784:	c1 ed 0b             	shr    $0xb,%ebp
    2787:	66 41 0f 6e d4       	movd   %r12d,%xmm2
    278c:	c0 e9 07             	shr    $0x7,%cl
    278f:	41 81 c3 00 04 00 00 	add    $0x400,%r11d
    2796:	66 0f 6e ed          	movd   %ebp,%xmm5
    279a:	0f b6 c9             	movzbl %cl,%ecx
    279d:	41 c1 eb 0b          	shr    $0xb,%r11d
    27a1:	66 0f 62 d5          	punpckldq %xmm5,%xmm2
    27a5:	41 09 c9             	or     %ecx,%r9d
    27a8:	44 89 c1             	mov    %r8d,%ecx
    27ab:	66 41 0f 6e c3       	movd   %r11d,%xmm0
    27b0:	c0 e9 05             	shr    $0x5,%cl
    27b3:	83 e1 07             	and    $0x7,%ecx
    27b6:	41 81 e2 ff 07 00 00 	and    $0x7ff,%r10d
    27bd:	c0 ea 04             	shr    $0x4,%dl
    27c0:	41 81 e1 ff 07 00 00 	and    $0x7ff,%r9d
    27c7:	c0 e8 02             	shr    $0x2,%al
    27ca:	0f b6 d2             	movzbl %dl,%edx
    27cd:	c1 e3 04             	shl    $0x4,%ebx
    27d0:	09 f1                	or     %esi,%ecx
    27d2:	0f b6 c0             	movzbl %al,%eax
    27d5:	41 c1 e0 06          	shl    $0x6,%r8d
    27d9:	45 69 d2 01 0d 00 00 	imul   $0xd01,%r10d,%r10d
    27e0:	09 da                	or     %ebx,%edx
    27e2:	44 09 c0             	or     %r8d,%eax
    27e5:	81 e2 ff 07 00 00    	and    $0x7ff,%edx
    27eb:	49 83 c5 10          	add    $0x10,%r13
    27ef:	25 ff 07 00 00       	and    $0x7ff,%eax
    27f4:	69 d2 01 0d 00 00    	imul   $0xd01,%edx,%edx
    27fa:	45 69 c9 01 0d 00 00 	imul   $0xd01,%r9d,%r9d
    2801:	41 81 c2 00 04 00 00 	add    $0x400,%r10d
    2808:	69 c0 01 0d 00 00    	imul   $0xd01,%eax,%eax
    280e:	41 c1 ea 0b          	shr    $0xb,%r10d
    2812:	69 c9 01 0d 00 00    	imul   $0xd01,%ecx,%ecx
    2818:	66 41 0f 6e e2       	movd   %r10d,%xmm4
    281d:	81 c2 00 04 00 00    	add    $0x400,%edx
    2823:	41 81 c1 00 04 00 00 	add    $0x400,%r9d
    282a:	66 0f 62 c4          	punpckldq %xmm4,%xmm0
    282e:	c1 ea 0b             	shr    $0xb,%edx
    2831:	05 00 04 00 00       	add    $0x400,%eax
    2836:	41 c1 e9 0b          	shr    $0xb,%r9d
    283a:	66 0f 6c d0          	punpcklqdq %xmm0,%xmm2
    283e:	66 0f 6e c2          	movd   %edx,%xmm0
    2842:	81 c1 00 04 00 00    	add    $0x400,%ecx
    2848:	c1 e8 0b             	shr    $0xb,%eax
    284b:	66 41 0f 6e f9       	movd   %r9d,%xmm7
    2850:	66 0f 6f da          	movdqa %xmm2,%xmm3
    2854:	c1 e9 0b             	shr    $0xb,%ecx
    2857:	66 0f 6e c8          	movd   %eax,%xmm1
    285b:	66 0f 62 c7          	punpckldq %xmm7,%xmm0
    285f:	66 0f 6e f1          	movd   %ecx,%xmm6
    2863:	66 0f 62 ce          	punpckldq %xmm6,%xmm1
    2867:	66 0f 6c c1          	punpcklqdq %xmm1,%xmm0
    286b:	66 0f 6f ca          	movdqa %xmm2,%xmm1
    286f:	66 0f 61 c8          	punpcklwd %xmm0,%xmm1
    2873:	66 0f 69 d8          	punpckhwd %xmm0,%xmm3
    2877:	66 0f 6f c1          	movdqa %xmm1,%xmm0
    287b:	66 0f 61 cb          	punpcklwd %xmm3,%xmm1
    287f:	66 0f 69 c3          	punpckhwd %xmm3,%xmm0
    2883:	66 0f 61 c8          	punpcklwd %xmm0,%xmm1
    2887:	41 0f 11 4d f0       	movups %xmm1,-0x10(%r13)
    288c:	4c 39 f7             	cmp    %r14,%rdi
    288f:	0f 85 3b fe ff ff    	jne    26d0 <pqcrystals_kyber1024_ref_polyvec_decompress+0x30>
    2895:	83 44 24 ec 01       	addl   $0x1,-0x14(%rsp)
    289a:	4c 8b 7c 24 f0       	mov    -0x10(%rsp),%r15
    289f:	4c 8d b7 60 01 00 00 	lea    0x160(%rdi),%r14
    28a6:	8b 44 24 ec          	mov    -0x14(%rsp),%eax
    28aa:	49 81 c7 00 02 00 00 	add    $0x200,%r15
    28b1:	83 f8 04             	cmp    $0x4,%eax
    28b4:	0f 85 06 fe ff ff    	jne    26c0 <pqcrystals_kyber1024_ref_polyvec_decompress+0x20>
    28ba:	5b                   	pop    %rbx
    28bb:	5d                   	pop    %rbp
    28bc:	41 5c                	pop    %r12
    28be:	41 5d                	pop    %r13
    28c0:	41 5e                	pop    %r14
    28c2:	41 5f                	pop    %r15
    28c4:	c3                   	ret    
    28c5:	66 66 2e 0f 1f 84 00 	data16 cs nopw 0x0(%rax,%rax,1)
    28cc:	00 00 00 00 

00000000000028d0 <pqcrystals_kyber1024_ref_polyvec_tobytes>:
    28d0:	f3 0f 1e fa          	endbr64 
    28d4:	41 54                	push   %r12
    28d6:	4c 8d a7 00 06 00 00 	lea    0x600(%rdi),%r12
    28dd:	55                   	push   %rbp
    28de:	48 89 f5             	mov    %rsi,%rbp
    28e1:	53                   	push   %rbx
    28e2:	48 89 fb             	mov    %rdi,%rbx
    28e5:	48 89 ee             	mov    %rbp,%rsi
    28e8:	48 89 df             	mov    %rbx,%rdi
    28eb:	48 81 c3 80 01 00 00 	add    $0x180,%rbx
    28f2:	48 81 c5 00 02 00 00 	add    $0x200,%rbp
    28f9:	e8 42 05 00 00       	call   2e40 <pqcrystals_kyber1024_ref_poly_tobytes>
    28fe:	4c 39 e3             	cmp    %r12,%rbx
    2901:	75 e2                	jne    28e5 <pqcrystals_kyber1024_ref_polyvec_tobytes+0x15>
    2903:	5b                   	pop    %rbx
    2904:	5d                   	pop    %rbp
    2905:	41 5c                	pop    %r12
    2907:	c3                   	ret    
    2908:	0f 1f 84 00 00 00 00 	nopl   0x0(%rax,%rax,1)
    290f:	00 

0000000000002910 <pqcrystals_kyber1024_ref_polyvec_frombytes>:
    2910:	f3 0f 1e fa          	endbr64 
    2914:	41 54                	push   %r12
    2916:	4c 8d a6 00 06 00 00 	lea    0x600(%rsi),%r12
    291d:	55                   	push   %rbp
    291e:	48 89 fd             	mov    %rdi,%rbp
    2921:	53                   	push   %rbx
    2922:	48 89 f3             	mov    %rsi,%rbx
    2925:	48 89 de             	mov    %rbx,%rsi
    2928:	48 89 ef             	mov    %rbp,%rdi
    292b:	48 81 c3 80 01 00 00 	add    $0x180,%rbx
    2932:	48 81 c5 00 02 00 00 	add    $0x200,%rbp
    2939:	e8 62 05 00 00       	call   2ea0 <pqcrystals_kyber1024_ref_poly_frombytes>
    293e:	4c 39 e3             	cmp    %r12,%rbx
    2941:	75 e2                	jne    2925 <pqcrystals_kyber1024_ref_polyvec_frombytes+0x15>
    2943:	5b                   	pop    %rbx
    2944:	5d                   	pop    %rbp
    2945:	41 5c                	pop    %r12
    2947:	c3                   	ret    
    2948:	0f 1f 84 00 00 00 00 	nopl   0x0(%rax,%rax,1)
    294f:	00 

0000000000002950 <pqcrystals_kyber1024_ref_polyvec_ntt>:
    2950:	f3 0f 1e fa          	endbr64 
    2954:	53                   	push   %rbx
    2955:	48 89 fb             	mov    %rdi,%rbx
    2958:	e8 03 23 00 00       	call   4c60 <pqcrystals_kyber1024_ref_poly_ntt>
    295d:	48 8d bb 00 02 00 00 	lea    0x200(%rbx),%rdi
    2964:	e8 f7 22 00 00       	call   4c60 <pqcrystals_kyber1024_ref_poly_ntt>
    2969:	48 8d bb 00 04 00 00 	lea    0x400(%rbx),%rdi
    2970:	e8 eb 22 00 00       	call   4c60 <pqcrystals_kyber1024_ref_poly_ntt>
    2975:	48 8d bb 00 06 00 00 	lea    0x600(%rbx),%rdi
    297c:	5b                   	pop    %rbx
    297d:	e9 de 22 00 00       	jmp    4c60 <pqcrystals_kyber1024_ref_poly_ntt>
    2982:	66 66 2e 0f 1f 84 00 	data16 cs nopw 0x0(%rax,%rax,1)
    2989:	00 00 00 00 
    298d:	0f 1f 00             	nopl   (%rax)

0000000000002990 <pqcrystals_kyber1024_ref_polyvec_invntt_tomont>:
    2990:	f3 0f 1e fa          	endbr64 
    2994:	53                   	push   %rbx
    2995:	48 89 fb             	mov    %rdi,%rbx
    2998:	e8 03 23 00 00       	call   4ca0 <pqcrystals_kyber1024_ref_poly_invntt_tomont>
    299d:	48 8d bb 00 02 00 00 	lea    0x200(%rbx),%rdi
    29a4:	e8 f7 22 00 00       	call   4ca0 <pqcrystals_kyber1024_ref_poly_invntt_tomont>
    29a9:	48 8d bb 00 04 00 00 	lea    0x400(%rbx),%rdi
    29b0:	e8 eb 22 00 00       	call   4ca0 <pqcrystals_kyber1024_ref_poly_invntt_tomont>
    29b5:	48 8d bb 00 06 00 00 	lea    0x600(%rbx),%rdi
    29bc:	5b                   	pop    %rbx
    29bd:	e9 de 22 00 00       	jmp    4ca0 <pqcrystals_kyber1024_ref_poly_invntt_tomont>
    29c2:	66 66 2e 0f 1f 84 00 	data16 cs nopw 0x0(%rax,%rax,1)
    29c9:	00 00 00 00 
    29cd:	0f 1f 00             	nopl   (%rax)

00000000000029d0 <pqcrystals_kyber1024_ref_polyvec_basemul_acc_montgomery>:
    29d0:	f3 0f 1e fa          	endbr64 
    29d4:	41 56                	push   %r14
    29d6:	49 89 d6             	mov    %rdx,%r14
    29d9:	41 55                	push   %r13
    29db:	49 89 f5             	mov    %rsi,%r13
    29de:	41 54                	push   %r12
    29e0:	55                   	push   %rbp
    29e1:	48 89 fd             	mov    %rdi,%rbp
    29e4:	53                   	push   %rbx
    29e5:	bb 00 02 00 00       	mov    $0x200,%ebx
    29ea:	48 81 ec 10 02 00 00 	sub    $0x210,%rsp
    29f1:	64 48 8b 04 25 28 00 	mov    %fs:0x28,%rax
    29f8:	00 00 
    29fa:	48 89 84 24 08 02 00 	mov    %rax,0x208(%rsp)
    2a01:	00 
    2a02:	31 c0                	xor    %eax,%eax
    2a04:	49 89 e4             	mov    %rsp,%r12
    2a07:	e8 a4 22 00 00       	call   4cb0 <pqcrystals_kyber1024_ref_poly_basemul_montgomery>
    2a0c:	49 8d 14 1e          	lea    (%r14,%rbx,1),%rdx
    2a10:	49 8d 74 1d 00       	lea    0x0(%r13,%rbx,1),%rsi
    2a15:	4c 89 e7             	mov    %r12,%rdi
    2a18:	48 81 c3 00 02 00 00 	add    $0x200,%rbx
    2a1f:	e8 8c 22 00 00       	call   4cb0 <pqcrystals_kyber1024_ref_poly_basemul_montgomery>
    2a24:	4c 89 e2             	mov    %r12,%rdx
    2a27:	48 89 ee             	mov    %rbp,%rsi
    2a2a:	48 89 ef             	mov    %rbp,%rdi
    2a2d:	e8 7e 23 00 00       	call   4db0 <pqcrystals_kyber1024_ref_poly_add>
    2a32:	48 81 fb 00 08 00 00 	cmp    $0x800,%rbx
    2a39:	75 d1                	jne    2a0c <pqcrystals_kyber1024_ref_polyvec_basemul_acc_montgomery+0x3c>
    2a3b:	48 89 ef             	mov    %rbp,%rdi
    2a3e:	e8 2d 23 00 00       	call   4d70 <pqcrystals_kyber1024_ref_poly_reduce>
    2a43:	48 8b 84 24 08 02 00 	mov    0x208(%rsp),%rax
    2a4a:	00 
    2a4b:	64 48 2b 04 25 28 00 	sub    %fs:0x28,%rax
    2a52:	00 00 
    2a54:	75 10                	jne    2a66 <pqcrystals_kyber1024_ref_polyvec_basemul_acc_montgomery+0x96>
    2a56:	48 81 c4 10 02 00 00 	add    $0x210,%rsp
    2a5d:	5b                   	pop    %rbx
    2a5e:	5d                   	pop    %rbp
    2a5f:	41 5c                	pop    %r12
    2a61:	41 5d                	pop    %r13
    2a63:	41 5e                	pop    %r14
    2a65:	c3                   	ret    
    2a66:	e8 15 e7 ff ff       	call   1180 <__stack_chk_fail@plt>
    2a6b:	0f 1f 44 00 00       	nopl   0x0(%rax,%rax,1)

0000000000002a70 <pqcrystals_kyber1024_ref_polyvec_reduce>:
    2a70:	f3 0f 1e fa          	endbr64 
    2a74:	53                   	push   %rbx
    2a75:	48 89 fb             	mov    %rdi,%rbx
    2a78:	e8 f3 22 00 00       	call   4d70 <pqcrystals_kyber1024_ref_poly_reduce>
    2a7d:	48 8d bb 00 02 00 00 	lea    0x200(%rbx),%rdi
    2a84:	e8 e7 22 00 00       	call   4d70 <pqcrystals_kyber1024_ref_poly_reduce>
    2a89:	48 8d bb 00 04 00 00 	lea    0x400(%rbx),%rdi
    2a90:	e8 db 22 00 00       	call   4d70 <pqcrystals_kyber1024_ref_poly_reduce>
    2a95:	48 8d bb 00 06 00 00 	lea    0x600(%rbx),%rdi
    2a9c:	5b                   	pop    %rbx
    2a9d:	e9 ce 22 00 00       	jmp    4d70 <pqcrystals_kyber1024_ref_poly_reduce>
    2aa2:	66 66 2e 0f 1f 84 00 	data16 cs nopw 0x0(%rax,%rax,1)
    2aa9:	00 00 00 00 
    2aad:	0f 1f 00             	nopl   (%rax)

0000000000002ab0 <pqcrystals_kyber1024_ref_polyvec_add>:
    2ab0:	f3 0f 1e fa          	endbr64 
    2ab4:	41 55                	push   %r13
    2ab6:	49 89 fd             	mov    %rdi,%r13
    2ab9:	41 54                	push   %r12
    2abb:	49 89 f4             	mov    %rsi,%r12
    2abe:	55                   	push   %rbp
    2abf:	48 89 d5             	mov    %rdx,%rbp
    2ac2:	53                   	push   %rbx
    2ac3:	31 db                	xor    %ebx,%ebx
    2ac5:	48 83 ec 08          	sub    $0x8,%rsp
    2ac9:	48 8d 54 1d 00       	lea    0x0(%rbp,%rbx,1),%rdx
    2ace:	49 8d 34 1c          	lea    (%r12,%rbx,1),%rsi
    2ad2:	49 8d 7c 1d 00       	lea    0x0(%r13,%rbx,1),%rdi
    2ad7:	48 81 c3 00 02 00 00 	add    $0x200,%rbx
    2ade:	e8 cd 22 00 00       	call   4db0 <pqcrystals_kyber1024_ref_poly_add>
    2ae3:	48 81 fb 00 08 00 00 	cmp    $0x800,%rbx
    2aea:	75 dd                	jne    2ac9 <pqcrystals_kyber1024_ref_polyvec_add+0x19>
    2aec:	48 83 c4 08          	add    $0x8,%rsp
    2af0:	5b                   	pop    %rbx
    2af1:	5d                   	pop    %rbp
    2af2:	41 5c                	pop    %r12
    2af4:	41 5d                	pop    %r13
    2af6:	c3                   	ret    
    2af7:	66 0f 1f 84 00 00 00 	nopw   0x0(%rax,%rax,1)
    2afe:	00 00 

0000000000002b00 <pqcrystals_kyber1024_ref_poly_compress>:
    2b00:	f3 0f 1e fa          	endbr64 
    2b04:	41 54                	push   %r12
    2b06:	49 89 f3             	mov    %rsi,%r11
    2b09:	55                   	push   %rbp
    2b0a:	48 8d af a0 00 00 00 	lea    0xa0(%rdi),%rbp
    2b11:	53                   	push   %rbx
    2b12:	48 89 fb             	mov    %rdi,%rbx
    2b15:	0f 1f 00             	nopl   (%rax)
    2b18:	41 0f b7 03          	movzwl (%r11),%eax
    2b1c:	41 0f b7 4b 08       	movzwl 0x8(%r11),%ecx
    2b21:	41 0f b7 73 0c       	movzwl 0xc(%r11),%esi
    2b26:	45 0f b7 63 0e       	movzwl 0xe(%r11),%r12d
    2b2b:	41 89 c2             	mov    %eax,%r10d
    2b2e:	66 41 c1 fa 0f       	sar    $0xf,%r10w
    2b33:	66 41 81 e2 01 0d    	and    $0xd01,%r10w
    2b39:	41 01 c2             	add    %eax,%r10d
    2b3c:	41 0f b7 43 02       	movzwl 0x2(%r11),%eax
    2b41:	45 0f bf d2          	movswl %r10w,%r10d
    2b45:	89 c2                	mov    %eax,%edx
    2b47:	41 c1 e2 05          	shl    $0x5,%r10d
    2b4b:	66 c1 fa 0f          	sar    $0xf,%dx
    2b4f:	41 81 c2 80 06 00 00 	add    $0x680,%r10d
    2b56:	66 81 e2 01 0d       	and    $0xd01,%dx
    2b5b:	45 69 d2 7e 9d 00 00 	imul   $0x9d7e,%r10d,%r10d
    2b62:	01 c2                	add    %eax,%edx
    2b64:	41 0f b7 43 04       	movzwl 0x4(%r11),%eax
    2b69:	0f bf d2             	movswl %dx,%edx
    2b6c:	41 89 c1             	mov    %eax,%r9d
    2b6f:	c1 e2 05             	shl    $0x5,%edx
    2b72:	66 41 c1 f9 0f       	sar    $0xf,%r9w
    2b77:	81 c2 80 06 00 00    	add    $0x680,%edx
    2b7d:	66 41 81 e1 01 0d    	and    $0xd01,%r9w
    2b83:	69 d2 7e 9d 00 00    	imul   $0x9d7e,%edx,%edx
    2b89:	41 01 c1             	add    %eax,%r9d
    2b8c:	41 0f b7 43 06       	movzwl 0x6(%r11),%eax
    2b91:	45 0f bf c9          	movswl %r9w,%r9d
    2b95:	41 c1 e1 05          	shl    $0x5,%r9d
    2b99:	89 c7                	mov    %eax,%edi
    2b9b:	c1 ea 1b             	shr    $0x1b,%edx
    2b9e:	66 c1 ff 0f          	sar    $0xf,%di
    2ba2:	41 81 c1 80 06 00 00 	add    $0x680,%r9d
    2ba9:	66 81 e7 01 0d       	and    $0xd01,%di
    2bae:	45 69 c9 7e 9d 00 00 	imul   $0x9d7e,%r9d,%r9d
    2bb5:	01 c7                	add    %eax,%edi
    2bb7:	89 c8                	mov    %ecx,%eax
    2bb9:	66 c1 f8 0f          	sar    $0xf,%ax
    2bbd:	0f bf ff             	movswl %di,%edi
    2bc0:	66 25 01 0d          	and    $0xd01,%ax
    2bc4:	c1 e7 05             	shl    $0x5,%edi
    2bc7:	01 c8                	add    %ecx,%eax
    2bc9:	81 c7 80 06 00 00    	add    $0x680,%edi
    2bcf:	41 0f b7 4b 0a       	movzwl 0xa(%r11),%ecx
    2bd4:	98                   	cwtl   
    2bd5:	69 ff 7e 9d 00 00    	imul   $0x9d7e,%edi,%edi
    2bdb:	c1 e0 05             	shl    $0x5,%eax
    2bde:	41 89 c8             	mov    %ecx,%r8d
    2be1:	05 80 06 00 00       	add    $0x680,%eax
    2be6:	69 c0 7e 9d 00 00    	imul   $0x9d7e,%eax,%eax
    2bec:	c1 ef 1b             	shr    $0x1b,%edi
    2bef:	c1 e8 1b             	shr    $0x1b,%eax
    2bf2:	66 41 c1 f8 0f       	sar    $0xf,%r8w
    2bf7:	41 c1 e9 1b          	shr    $0x1b,%r9d
    2bfb:	66 41 81 e0 01 0d    	and    $0xd01,%r8w
    2c01:	41 c1 ea 1b          	shr    $0x1b,%r10d
    2c05:	41 01 c8             	add    %ecx,%r8d
    2c08:	89 f1                	mov    %esi,%ecx
    2c0a:	41 c1 e1 02          	shl    $0x2,%r9d
    2c0e:	66 c1 f9 0f          	sar    $0xf,%cx
    2c12:	45 0f bf c0          	movswl %r8w,%r8d
    2c16:	66 81 e1 01 0d       	and    $0xd01,%cx
    2c1b:	41 c1 e0 05          	shl    $0x5,%r8d
    2c1f:	01 f1                	add    %esi,%ecx
    2c21:	44 89 e6             	mov    %r12d,%esi
    2c24:	41 81 c0 80 06 00 00 	add    $0x680,%r8d
    2c2b:	66 c1 fe 0f          	sar    $0xf,%si
    2c2f:	45 69 c0 7e 9d 00 00 	imul   $0x9d7e,%r8d,%r8d
    2c36:	0f bf c9             	movswl %cx,%ecx
    2c39:	66 81 e6 01 0d       	and    $0xd01,%si
    2c3e:	c1 e1 05             	shl    $0x5,%ecx
    2c41:	44 01 e6             	add    %r12d,%esi
    2c44:	41 89 d4             	mov    %edx,%r12d
    2c47:	c0 ea 03             	shr    $0x3,%dl
    2c4a:	81 c1 80 06 00 00    	add    $0x680,%ecx
    2c50:	44 09 ca             	or     %r9d,%edx
    2c53:	0f bf f6             	movswl %si,%esi
    2c56:	41 89 f9             	mov    %edi,%r9d
    2c59:	41 c1 e4 05          	shl    $0x5,%r12d
    2c5d:	c1 e6 05             	shl    $0x5,%esi
    2c60:	41 c1 e1 07          	shl    $0x7,%r9d
    2c64:	69 c9 7e 9d 00 00    	imul   $0x9d7e,%ecx,%ecx
    2c6a:	45 09 e2             	or     %r12d,%r10d
    2c6d:	44 09 ca             	or     %r9d,%edx
    2c70:	81 c6 80 06 00 00    	add    $0x680,%esi
    2c76:	40 d0 ef             	shr    %dil
    2c79:	44 88 13             	mov    %r10b,(%rbx)
    2c7c:	69 f6 7e 9d 00 00    	imul   $0x9d7e,%esi,%esi
    2c82:	88 53 01             	mov    %dl,0x1(%rbx)
    2c85:	89 c2                	mov    %eax,%edx
    2c87:	c1 e2 04             	shl    $0x4,%edx
    2c8a:	c1 e9 1b             	shr    $0x1b,%ecx
    2c8d:	09 d7                	or     %edx,%edi
    2c8f:	41 c1 e8 1b          	shr    $0x1b,%r8d
    2c93:	89 ca                	mov    %ecx,%edx
    2c95:	48 83 c3 05          	add    $0x5,%rbx
    2c99:	45 01 c0             	add    %r8d,%r8d
    2c9c:	c0 e8 04             	shr    $0x4,%al
    2c9f:	40 88 7b fd          	mov    %dil,-0x3(%rbx)
    2ca3:	49 83 c3 10          	add    $0x10,%r11
    2ca7:	c1 ee 1b             	shr    $0x1b,%esi
    2caa:	44 09 c0             	or     %r8d,%eax
    2cad:	c1 e2 06             	shl    $0x6,%edx
    2cb0:	c1 e6 03             	shl    $0x3,%esi
    2cb3:	c0 e9 02             	shr    $0x2,%cl
    2cb6:	09 d0                	or     %edx,%eax
    2cb8:	09 f1                	or     %esi,%ecx
    2cba:	88 43 fe             	mov    %al,-0x2(%rbx)
    2cbd:	88 4b ff             	mov    %cl,-0x1(%rbx)
    2cc0:	48 39 eb             	cmp    %rbp,%rbx
    2cc3:	0f 85 4f fe ff ff    	jne    2b18 <pqcrystals_kyber1024_ref_poly_compress+0x18>
    2cc9:	5b                   	pop    %rbx
    2cca:	5d                   	pop    %rbp
    2ccb:	41 5c                	pop    %r12
    2ccd:	c3                   	ret    
    2cce:	66 90                	xchg   %ax,%ax

0000000000002cd0 <pqcrystals_kyber1024_ref_poly_decompress>:
    2cd0:	f3 0f 1e fa          	endbr64 
    2cd4:	53                   	push   %rbx
    2cd5:	48 89 f1             	mov    %rsi,%rcx
    2cd8:	48 89 fe             	mov    %rdi,%rsi
    2cdb:	48 8d b9 a0 00 00 00 	lea    0xa0(%rcx),%rdi
    2ce2:	66 0f 1f 44 00 00    	nopw   0x0(%rax,%rax,1)
    2ce8:	44 0f b6 19          	movzbl (%rcx),%r11d
    2cec:	44 0f b6 51 01       	movzbl 0x1(%rcx),%r10d
    2cf1:	48 83 c1 05          	add    $0x5,%rcx
    2cf5:	44 0f b6 49 fd       	movzbl -0x3(%rcx),%r9d
    2cfa:	44 0f b6 41 fe       	movzbl -0x2(%rcx),%r8d
    2cff:	44 89 d8             	mov    %r11d,%eax
    2d02:	41 c0 eb 05          	shr    $0x5,%r11b
    2d06:	44 89 d3             	mov    %r10d,%ebx
    2d09:	0f b6 51 ff          	movzbl -0x1(%rcx),%edx
    2d0d:	83 e0 1f             	and    $0x1f,%eax
    2d10:	c0 eb 07             	shr    $0x7,%bl
    2d13:	69 c0 01 0d 00 00    	imul   $0xd01,%eax,%eax
    2d19:	83 c0 10             	add    $0x10,%eax
    2d1c:	c1 e8 05             	shr    $0x5,%eax
    2d1f:	66 0f 6e c0          	movd   %eax,%xmm0
    2d23:	42 8d 04 d5 00 00 00 	lea    0x0(,%r10,8),%eax
    2d2a:	00 
    2d2b:	44 09 d8             	or     %r11d,%eax
    2d2e:	83 e0 1f             	and    $0x1f,%eax
    2d31:	69 c0 01 0d 00 00    	imul   $0xd01,%eax,%eax
    2d37:	83 c0 10             	add    $0x10,%eax
    2d3a:	c1 e8 05             	shr    $0x5,%eax
    2d3d:	41 89 c3             	mov    %eax,%r11d
    2d40:	44 89 d0             	mov    %r10d,%eax
    2d43:	47 8d 14 09          	lea    (%r9,%r9,1),%r10d
    2d47:	41 c0 e9 04          	shr    $0x4,%r9b
    2d4b:	c0 e8 02             	shr    $0x2,%al
    2d4e:	41 09 da             	or     %ebx,%r10d
    2d51:	66 41 0f 6e e3       	movd   %r11d,%xmm4
    2d56:	83 e0 1f             	and    $0x1f,%eax
    2d59:	41 83 e2 1f          	and    $0x1f,%r10d
    2d5d:	66 0f 62 c4          	punpckldq %xmm4,%xmm0
    2d61:	69 c0 01 0d 00 00    	imul   $0xd01,%eax,%eax
    2d67:	45 69 d2 01 0d 00 00 	imul   $0xd01,%r10d,%r10d
    2d6e:	83 c0 10             	add    $0x10,%eax
    2d71:	c1 e8 05             	shr    $0x5,%eax
    2d74:	41 83 c2 10          	add    $0x10,%r10d
    2d78:	66 0f 6e c8          	movd   %eax,%xmm1
    2d7c:	44 89 c0             	mov    %r8d,%eax
    2d7f:	41 c1 ea 05          	shr    $0x5,%r10d
    2d83:	c1 e0 04             	shl    $0x4,%eax
    2d86:	66 41 0f 6e da       	movd   %r10d,%xmm3
    2d8b:	44 09 c8             	or     %r9d,%eax
    2d8e:	66 0f 62 cb          	punpckldq %xmm3,%xmm1
    2d92:	83 e0 1f             	and    $0x1f,%eax
    2d95:	66 0f 6c c1          	punpcklqdq %xmm1,%xmm0
    2d99:	69 c0 01 0d 00 00    	imul   $0xd01,%eax,%eax
    2d9f:	83 c0 10             	add    $0x10,%eax
    2da2:	c1 e8 05             	shr    $0x5,%eax
    2da5:	66 0f 6e c8          	movd   %eax,%xmm1
    2da9:	44 89 c0             	mov    %r8d,%eax
    2dac:	d0 e8                	shr    %al
    2dae:	83 e0 1f             	and    $0x1f,%eax
    2db1:	69 c0 01 0d 00 00    	imul   $0xd01,%eax,%eax
    2db7:	83 c0 10             	add    $0x10,%eax
    2dba:	41 c0 e8 06          	shr    $0x6,%r8b
    2dbe:	48 83 c6 10          	add    $0x10,%rsi
    2dc2:	c1 e8 05             	shr    $0x5,%eax
    2dc5:	41 89 c1             	mov    %eax,%r9d
    2dc8:	8d 04 95 00 00 00 00 	lea    0x0(,%rdx,4),%eax
    2dcf:	c0 ea 03             	shr    $0x3,%dl
    2dd2:	44 09 c0             	or     %r8d,%eax
    2dd5:	0f b6 d2             	movzbl %dl,%edx
    2dd8:	66 41 0f 6e f1       	movd   %r9d,%xmm6
    2ddd:	83 e0 1f             	and    $0x1f,%eax
    2de0:	69 d2 01 0d 00 00    	imul   $0xd01,%edx,%edx
    2de6:	66 0f 62 ce          	punpckldq %xmm6,%xmm1
    2dea:	69 c0 01 0d 00 00    	imul   $0xd01,%eax,%eax
    2df0:	83 c2 10             	add    $0x10,%edx
    2df3:	83 c0 10             	add    $0x10,%eax
    2df6:	c1 ea 05             	shr    $0x5,%edx
    2df9:	c1 e8 05             	shr    $0x5,%eax
    2dfc:	66 0f 6e ea          	movd   %edx,%xmm5
    2e00:	66 0f 6e d0          	movd   %eax,%xmm2
    2e04:	66 0f 62 d5          	punpckldq %xmm5,%xmm2
    2e08:	66 0f 6c ca          	punpcklqdq %xmm2,%xmm1
    2e0c:	66 0f 6f d0          	movdqa %xmm0,%xmm2
    2e10:	66 0f 61 c1          	punpcklwd %xmm1,%xmm0
    2e14:	66 0f 69 d1          	punpckhwd %xmm1,%xmm2
    2e18:	66 0f 6f c8          	movdqa %xmm0,%xmm1
    2e1c:	66 0f 61 c2          	punpcklwd %xmm2,%xmm0
    2e20:	66 0f 69 ca          	punpckhwd %xmm2,%xmm1
    2e24:	66 0f 61 c1          	punpcklwd %xmm1,%xmm0
    2e28:	0f 11 46 f0          	movups %xmm0,-0x10(%rsi)
    2e2c:	48 39 f9             	cmp    %rdi,%rcx
    2e2f:	0f 85 b3 fe ff ff    	jne    2ce8 <pqcrystals_kyber1024_ref_poly_decompress+0x18>
    2e35:	5b                   	pop    %rbx
    2e36:	c3                   	ret    
    2e37:	66 0f 1f 84 00 00 00 	nopw   0x0(%rax,%rax,1)
    2e3e:	00 00 

0000000000002e40 <pqcrystals_kyber1024_ref_poly_tobytes>:
    2e40:	f3 0f 1e fa          	endbr64 
    2e44:	48 89 f1             	mov    %rsi,%rcx
    2e47:	4c 8d 87 80 01 00 00 	lea    0x180(%rdi),%r8
    2e4e:	66 90                	xchg   %ax,%ax
    2e50:	0f b7 01             	movzwl (%rcx),%eax
    2e53:	0f b7 71 02          	movzwl 0x2(%rcx),%esi
    2e57:	48 83 c7 03          	add    $0x3,%rdi
    2e5b:	48 83 c1 04          	add    $0x4,%rcx
    2e5f:	89 c2                	mov    %eax,%edx
    2e61:	66 c1 fa 0f          	sar    $0xf,%dx
    2e65:	66 81 e2 01 0d       	and    $0xd01,%dx
    2e6a:	01 c2                	add    %eax,%edx
    2e6c:	89 f0                	mov    %esi,%eax
    2e6e:	66 c1 f8 0f          	sar    $0xf,%ax
    2e72:	88 57 fd             	mov    %dl,-0x3(%rdi)
    2e75:	66 c1 ea 08          	shr    $0x8,%dx
    2e79:	66 25 01 0d          	and    $0xd01,%ax
    2e7d:	01 f0                	add    %esi,%eax
    2e7f:	89 c6                	mov    %eax,%esi
    2e81:	66 c1 e8 04          	shr    $0x4,%ax
    2e85:	c1 e6 04             	shl    $0x4,%esi
    2e88:	88 47 ff             	mov    %al,-0x1(%rdi)
    2e8b:	09 f2                	or     %esi,%edx
    2e8d:	88 57 fe             	mov    %dl,-0x2(%rdi)
    2e90:	49 39 f8             	cmp    %rdi,%r8
    2e93:	75 bb                	jne    2e50 <pqcrystals_kyber1024_ref_poly_tobytes+0x10>
    2e95:	c3                   	ret    
    2e96:	66 2e 0f 1f 84 00 00 	cs nopw 0x0(%rax,%rax,1)
    2e9d:	00 00 00 

0000000000002ea0 <pqcrystals_kyber1024_ref_poly_frombytes>:
    2ea0:	f3 0f 1e fa          	endbr64 
    2ea4:	48 8d 8e 80 01 00 00 	lea    0x180(%rsi),%rcx
    2eab:	0f 1f 44 00 00       	nopl   0x0(%rax,%rax,1)
    2eb0:	0f b6 56 01          	movzbl 0x1(%rsi),%edx
    2eb4:	0f b6 06             	movzbl (%rsi),%eax
    2eb7:	48 83 c6 03          	add    $0x3,%rsi
    2ebb:	48 83 c7 04          	add    $0x4,%rdi
    2ebf:	c1 e2 08             	shl    $0x8,%edx
    2ec2:	09 d0                	or     %edx,%eax
    2ec4:	66 25 ff 0f          	and    $0xfff,%ax
    2ec8:	66 89 47 fc          	mov    %ax,-0x4(%rdi)
    2ecc:	0f b6 46 fe          	movzbl -0x2(%rsi),%eax
    2ed0:	0f b6 56 ff          	movzbl -0x1(%rsi),%edx
    2ed4:	c0 e8 04             	shr    $0x4,%al
    2ed7:	0f b6 c0             	movzbl %al,%eax
    2eda:	c1 e2 04             	shl    $0x4,%edx
    2edd:	09 d0                	or     %edx,%eax
    2edf:	66 89 47 fe          	mov    %ax,-0x2(%rdi)
    2ee3:	48 39 f1             	cmp    %rsi,%rcx
    2ee6:	75 c8                	jne    2eb0 <pqcrystals_kyber1024_ref_poly_frombytes+0x10>
    2ee8:	c3                   	ret    
    2ee9:	0f 1f 80 00 00 00 00 	nopl   0x0(%rax)

0000000000002ef0 <pqcrystals_kyber1024_ref_poly_frommsg>:
    2ef0:	f3 0f 1e fa          	endbr64 
    2ef4:	48 8d 4e 20          	lea    0x20(%rsi),%rcx
    2ef8:	48 89 f8             	mov    %rdi,%rax
    2efb:	48 89 f2             	mov    %rsi,%rdx
    2efe:	48 39 cf             	cmp    %rcx,%rdi
    2f01:	73 10                	jae    2f13 <pqcrystals_kyber1024_ref_poly_frommsg+0x23>
    2f03:	48 8d bf 00 02 00 00 	lea    0x200(%rdi),%rdi
    2f0a:	48 39 fe             	cmp    %rdi,%rsi
    2f0d:	0f 82 cd 07 00 00    	jb     36e0 <pqcrystals_kyber1024_ref_poly_frommsg+0x7f0>
    2f13:	66 0f 6f 2d 05 81 00 	movdqa 0x8105(%rip),%xmm5        # b020 <_IO_stdin_used+0x20>
    2f1a:	00 
    2f1b:	66 0f ef e4          	pxor   %xmm4,%xmm4
    2f1f:	66 0f ef c9          	pxor   %xmm1,%xmm1
    2f23:	f3 0f 6f 02          	movdqu (%rdx),%xmm0
    2f27:	66 44 0f 6f d9       	movdqa %xmm1,%xmm11
    2f2c:	66 44 0f 6f e1       	movdqa %xmm1,%xmm12
    2f31:	66 0f 6f 15 d7 80 00 	movdqa 0x80d7(%rip),%xmm2        # b010 <_IO_stdin_used+0x10>
    2f38:	00 
    2f39:	66 44 0f 6f c9       	movdqa %xmm1,%xmm9
    2f3e:	66 44 0f 6f d1       	movdqa %xmm1,%xmm10
    2f43:	66 0f 6f f9          	movdqa %xmm1,%xmm7
    2f47:	48 83 c2 10          	add    $0x10,%rdx
    2f4b:	66 0f db d0          	pand   %xmm0,%xmm2
    2f4f:	66 44 0f 6f e8       	movdqa %xmm0,%xmm13
    2f54:	66 44 0f 6f c1       	movdqa %xmm1,%xmm8
    2f59:	48 05 00 01 00 00    	add    $0x100,%rax
    2f5f:	66 0f 6f da          	movdqa %xmm2,%xmm3
    2f63:	66 0f 68 d4          	punpckhbw %xmm4,%xmm2
    2f67:	66 0f 6f f1          	movdqa %xmm1,%xmm6
    2f6b:	66 44 0f f9 da       	psubw  %xmm2,%xmm11
    2f70:	66 0f 6f d0          	movdqa %xmm0,%xmm2
    2f74:	66 0f 60 dc          	punpcklbw %xmm4,%xmm3
    2f78:	66 0f 71 d2 01       	psrlw  $0x1,%xmm2
    2f7d:	66 44 0f f9 e3       	psubw  %xmm3,%xmm12
    2f82:	66 44 0f db dd       	pand   %xmm5,%xmm11
    2f87:	66 0f db 15 a1 80 00 	pand   0x80a1(%rip),%xmm2        # b030 <_IO_stdin_used+0x30>
    2f8e:	00 
    2f8f:	66 0f db 15 79 80 00 	pand   0x8079(%rip),%xmm2        # b010 <_IO_stdin_used+0x10>
    2f96:	00 
    2f97:	66 44 0f db e5       	pand   %xmm5,%xmm12
    2f9c:	66 41 0f c5 f4 00    	pextrw $0x0,%xmm12,%esi
    2fa2:	66 41 0f 71 d5 04    	psrlw  $0x4,%xmm13
    2fa8:	66 44 0f db 2d af 80 	pand   0x80af(%rip),%xmm13        # b060 <_IO_stdin_used+0x60>
    2faf:	00 00 
    2fb1:	66 0f 6f da          	movdqa %xmm2,%xmm3
    2fb5:	66 0f 68 d4          	punpckhbw %xmm4,%xmm2
    2fb9:	66 89 b0 00 ff ff ff 	mov    %si,-0x100(%rax)
    2fc0:	66 41 0f c5 f4 01    	pextrw $0x1,%xmm12,%esi
    2fc6:	66 44 0f f9 ca       	psubw  %xmm2,%xmm9
    2fcb:	66 0f 6f d0          	movdqa %xmm0,%xmm2
    2fcf:	66 0f 60 dc          	punpcklbw %xmm4,%xmm3
    2fd3:	66 89 b0 10 ff ff ff 	mov    %si,-0xf0(%rax)
    2fda:	66 0f 71 d2 02       	psrlw  $0x2,%xmm2
    2fdf:	66 44 0f f9 d3       	psubw  %xmm3,%xmm10
    2fe4:	66 0f db 15 54 80 00 	pand   0x8054(%rip),%xmm2        # b040 <_IO_stdin_used+0x40>
    2feb:	00 
    2fec:	66 41 0f c5 f4 02    	pextrw $0x2,%xmm12,%esi
    2ff2:	66 44 0f db d5       	pand   %xmm5,%xmm10
    2ff7:	66 44 0f db cd       	pand   %xmm5,%xmm9
    2ffc:	66 0f db 15 0c 80 00 	pand   0x800c(%rip),%xmm2        # b010 <_IO_stdin_used+0x10>
    3003:	00 
    3004:	66 89 b0 20 ff ff ff 	mov    %si,-0xe0(%rax)
    300b:	66 41 0f c5 f4 03    	pextrw $0x3,%xmm12,%esi
    3011:	66 44 0f db 2d f6 7f 	pand   0x7ff6(%rip),%xmm13        # b010 <_IO_stdin_used+0x10>
    3018:	00 00 
    301a:	66 89 b0 30 ff ff ff 	mov    %si,-0xd0(%rax)
    3021:	66 41 0f c5 f4 04    	pextrw $0x4,%xmm12,%esi
    3027:	66 0f 6f da          	movdqa %xmm2,%xmm3
    302b:	66 0f 68 d4          	punpckhbw %xmm4,%xmm2
    302f:	66 89 b0 40 ff ff ff 	mov    %si,-0xc0(%rax)
    3036:	66 41 0f c5 f4 05    	pextrw $0x5,%xmm12,%esi
    303c:	66 0f f9 fa          	psubw  %xmm2,%xmm7
    3040:	66 0f 6f d0          	movdqa %xmm0,%xmm2
    3044:	66 0f 60 dc          	punpcklbw %xmm4,%xmm3
    3048:	66 89 b0 50 ff ff ff 	mov    %si,-0xb0(%rax)
    304f:	66 0f 71 d2 03       	psrlw  $0x3,%xmm2
    3054:	66 44 0f f9 c3       	psubw  %xmm3,%xmm8
    3059:	66 0f db fd          	pand   %xmm5,%xmm7
    305d:	66 45 0f 6f f5       	movdqa %xmm13,%xmm14
    3062:	66 41 0f c5 f4 06    	pextrw $0x6,%xmm12,%esi
    3068:	66 44 0f 68 ec       	punpckhbw %xmm4,%xmm13
    306d:	66 0f db 15 db 7f 00 	pand   0x7fdb(%rip),%xmm2        # b050 <_IO_stdin_used+0x50>
    3074:	00 
    3075:	66 44 0f 60 f4       	punpcklbw %xmm4,%xmm14
    307a:	66 44 0f db c5       	pand   %xmm5,%xmm8
    307f:	66 89 b0 60 ff ff ff 	mov    %si,-0xa0(%rax)
    3086:	66 0f db 15 82 7f 00 	pand   0x7f82(%rip),%xmm2        # b010 <_IO_stdin_used+0x10>
    308d:	00 
    308e:	66 41 0f c5 f4 07    	pextrw $0x7,%xmm12,%esi
    3094:	66 89 b0 70 ff ff ff 	mov    %si,-0x90(%rax)
    309b:	66 41 0f c5 f3 00    	pextrw $0x0,%xmm11,%esi
    30a1:	66 0f 6f da          	movdqa %xmm2,%xmm3
    30a5:	66 0f 68 d4          	punpckhbw %xmm4,%xmm2
    30a9:	66 89 70 80          	mov    %si,-0x80(%rax)
    30ad:	66 41 0f c5 f3 01    	pextrw $0x1,%xmm11,%esi
    30b3:	66 0f 60 dc          	punpcklbw %xmm4,%xmm3
    30b7:	66 89 70 90          	mov    %si,-0x70(%rax)
    30bb:	66 41 0f c5 f3 02    	pextrw $0x2,%xmm11,%esi
    30c1:	66 0f f9 f3          	psubw  %xmm3,%xmm6
    30c5:	66 0f 6f d9          	movdqa %xmm1,%xmm3
    30c9:	66 89 70 a0          	mov    %si,-0x60(%rax)
    30cd:	66 41 0f c5 f3 03    	pextrw $0x3,%xmm11,%esi
    30d3:	66 0f f9 da          	psubw  %xmm2,%xmm3
    30d7:	66 0f 6f d1          	movdqa %xmm1,%xmm2
    30db:	66 89 70 b0          	mov    %si,-0x50(%rax)
    30df:	66 0f db f5          	pand   %xmm5,%xmm6
    30e3:	66 41 0f f9 d6       	psubw  %xmm14,%xmm2
    30e8:	66 44 0f 6f f1       	movdqa %xmm1,%xmm14
    30ed:	66 41 0f c5 f3 04    	pextrw $0x4,%xmm11,%esi
    30f3:	66 45 0f f9 f5       	psubw  %xmm13,%xmm14
    30f8:	66 89 70 c0          	mov    %si,-0x40(%rax)
    30fc:	66 0f db dd          	pand   %xmm5,%xmm3
    3100:	66 0f db d5          	pand   %xmm5,%xmm2
    3104:	66 44 0f 6f e8       	movdqa %xmm0,%xmm13
    3109:	66 44 0f db f5       	pand   %xmm5,%xmm14
    310e:	66 41 0f c5 f3 05    	pextrw $0x5,%xmm11,%esi
    3114:	66 41 0f 71 d5 05    	psrlw  $0x5,%xmm13
    311a:	44 0f 29 74 24 d8    	movaps %xmm14,-0x28(%rsp)
    3120:	66 44 0f 6f f1       	movdqa %xmm1,%xmm14
    3125:	66 44 0f db 2d 42 7f 	pand   0x7f42(%rip),%xmm13        # b070 <_IO_stdin_used+0x70>
    312c:	00 00 
    312e:	66 44 0f db 2d d9 7e 	pand   0x7ed9(%rip),%xmm13        # b010 <_IO_stdin_used+0x10>
    3135:	00 00 
    3137:	66 89 70 d0          	mov    %si,-0x30(%rax)
    313b:	66 41 0f c5 f3 06    	pextrw $0x6,%xmm11,%esi
    3141:	66 89 70 e0          	mov    %si,-0x20(%rax)
    3145:	66 41 0f c5 f3 07    	pextrw $0x7,%xmm11,%esi
    314b:	66 0f 71 d0 06       	psrlw  $0x6,%xmm0
    3150:	66 0f db 05 28 7f 00 	pand   0x7f28(%rip),%xmm0        # b080 <_IO_stdin_used+0x80>
    3157:	00 
    3158:	66 45 0f 6f fd       	movdqa %xmm13,%xmm15
    315d:	66 44 0f 68 ec       	punpckhbw %xmm4,%xmm13
    3162:	66 89 70 f0          	mov    %si,-0x10(%rax)
    3166:	66 41 0f c5 f2 00    	pextrw $0x0,%xmm10,%esi
    316c:	66 44 0f 60 fc       	punpcklbw %xmm4,%xmm15
    3171:	66 0f db 05 97 7e 00 	pand   0x7e97(%rip),%xmm0        # b010 <_IO_stdin_used+0x10>
    3178:	00 
    3179:	66 45 0f f9 f7       	psubw  %xmm15,%xmm14
    317e:	66 45 0f 6f fe       	movdqa %xmm14,%xmm15
    3183:	66 44 0f 6f f1       	movdqa %xmm1,%xmm14
    3188:	66 45 0f f9 f5       	psubw  %xmm13,%xmm14
    318d:	66 44 0f db fd       	pand   %xmm5,%xmm15
    3192:	66 44 0f 6f e8       	movdqa %xmm0,%xmm13
    3197:	66 44 0f db f5       	pand   %xmm5,%xmm14
    319c:	66 44 0f 60 ec       	punpcklbw %xmm4,%xmm13
    31a1:	66 0f 68 c4          	punpckhbw %xmm4,%xmm0
    31a5:	44 0f 29 74 24 e8    	movaps %xmm14,-0x18(%rsp)
    31ab:	66 44 0f 6f f1       	movdqa %xmm1,%xmm14
    31b0:	66 89 b0 02 ff ff ff 	mov    %si,-0xfe(%rax)
    31b7:	66 41 0f c5 f2 01    	pextrw $0x1,%xmm10,%esi
    31bd:	66 45 0f f9 f5       	psubw  %xmm13,%xmm14
    31c2:	66 44 0f 6f e9       	movdqa %xmm1,%xmm13
    31c7:	66 89 b0 12 ff ff ff 	mov    %si,-0xee(%rax)
    31ce:	66 41 0f c5 f2 02    	pextrw $0x2,%xmm10,%esi
    31d4:	66 44 0f db f5       	pand   %xmm5,%xmm14
    31d9:	66 44 0f f9 e8       	psubw  %xmm0,%xmm13
    31de:	66 89 b0 22 ff ff ff 	mov    %si,-0xde(%rax)
    31e5:	66 41 0f c5 f2 03    	pextrw $0x3,%xmm10,%esi
    31eb:	66 44 0f db ed       	pand   %xmm5,%xmm13
    31f0:	66 89 b0 32 ff ff ff 	mov    %si,-0xce(%rax)
    31f7:	66 41 0f c5 f2 04    	pextrw $0x4,%xmm10,%esi
    31fd:	66 89 b0 42 ff ff ff 	mov    %si,-0xbe(%rax)
    3204:	66 41 0f c5 f2 05    	pextrw $0x5,%xmm10,%esi
    320a:	66 89 b0 52 ff ff ff 	mov    %si,-0xae(%rax)
    3211:	66 41 0f c5 f2 06    	pextrw $0x6,%xmm10,%esi
    3217:	66 89 b0 62 ff ff ff 	mov    %si,-0x9e(%rax)
    321e:	66 41 0f c5 f2 07    	pextrw $0x7,%xmm10,%esi
    3224:	66 89 b0 72 ff ff ff 	mov    %si,-0x8e(%rax)
    322b:	66 41 0f c5 f1 00    	pextrw $0x0,%xmm9,%esi
    3231:	66 89 70 82          	mov    %si,-0x7e(%rax)
    3235:	66 41 0f c5 f1 01    	pextrw $0x1,%xmm9,%esi
    323b:	66 89 70 92          	mov    %si,-0x6e(%rax)
    323f:	66 41 0f c5 f1 02    	pextrw $0x2,%xmm9,%esi
    3245:	66 89 70 a2          	mov    %si,-0x5e(%rax)
    3249:	66 41 0f c5 f1 03    	pextrw $0x3,%xmm9,%esi
    324f:	66 89 70 b2          	mov    %si,-0x4e(%rax)
    3253:	66 41 0f c5 f1 04    	pextrw $0x4,%xmm9,%esi
    3259:	66 89 70 c2          	mov    %si,-0x3e(%rax)
    325d:	66 41 0f c5 f1 05    	pextrw $0x5,%xmm9,%esi
    3263:	66 89 70 d2          	mov    %si,-0x2e(%rax)
    3267:	66 41 0f c5 f1 06    	pextrw $0x6,%xmm9,%esi
    326d:	66 89 70 e2          	mov    %si,-0x1e(%rax)
    3271:	66 41 0f c5 f1 07    	pextrw $0x7,%xmm9,%esi
    3277:	66 89 70 f2          	mov    %si,-0xe(%rax)
    327b:	66 41 0f c5 f0 00    	pextrw $0x0,%xmm8,%esi
    3281:	66 89 b0 04 ff ff ff 	mov    %si,-0xfc(%rax)
    3288:	66 41 0f c5 f0 01    	pextrw $0x1,%xmm8,%esi
    328e:	66 89 b0 14 ff ff ff 	mov    %si,-0xec(%rax)
    3295:	66 41 0f c5 f0 02    	pextrw $0x2,%xmm8,%esi
    329b:	66 89 b0 24 ff ff ff 	mov    %si,-0xdc(%rax)
    32a2:	66 41 0f c5 f0 03    	pextrw $0x3,%xmm8,%esi
    32a8:	66 89 b0 34 ff ff ff 	mov    %si,-0xcc(%rax)
    32af:	66 41 0f c5 f0 04    	pextrw $0x4,%xmm8,%esi
    32b5:	66 89 b0 44 ff ff ff 	mov    %si,-0xbc(%rax)
    32bc:	66 41 0f c5 f0 05    	pextrw $0x5,%xmm8,%esi
    32c2:	66 89 b0 54 ff ff ff 	mov    %si,-0xac(%rax)
    32c9:	66 41 0f c5 f0 06    	pextrw $0x6,%xmm8,%esi
    32cf:	66 89 b0 64 ff ff ff 	mov    %si,-0x9c(%rax)
    32d6:	66 41 0f c5 f0 07    	pextrw $0x7,%xmm8,%esi
    32dc:	66 89 b0 74 ff ff ff 	mov    %si,-0x8c(%rax)
    32e3:	66 0f c5 f7 00       	pextrw $0x0,%xmm7,%esi
    32e8:	66 89 70 84          	mov    %si,-0x7c(%rax)
    32ec:	66 0f c5 f7 01       	pextrw $0x1,%xmm7,%esi
    32f1:	66 89 70 94          	mov    %si,-0x6c(%rax)
    32f5:	66 0f c5 f7 02       	pextrw $0x2,%xmm7,%esi
    32fa:	66 89 70 a4          	mov    %si,-0x5c(%rax)
    32fe:	66 0f c5 f7 03       	pextrw $0x3,%xmm7,%esi
    3303:	66 89 70 b4          	mov    %si,-0x4c(%rax)
    3307:	66 0f c5 f7 04       	pextrw $0x4,%xmm7,%esi
    330c:	66 89 70 c4          	mov    %si,-0x3c(%rax)
    3310:	66 0f c5 f7 05       	pextrw $0x5,%xmm7,%esi
    3315:	66 89 70 d4          	mov    %si,-0x2c(%rax)
    3319:	66 0f c5 f7 06       	pextrw $0x6,%xmm7,%esi
    331e:	66 89 70 e4          	mov    %si,-0x1c(%rax)
    3322:	66 0f c5 f7 07       	pextrw $0x7,%xmm7,%esi
    3327:	66 89 70 f4          	mov    %si,-0xc(%rax)
    332b:	66 0f c5 f6 00       	pextrw $0x0,%xmm6,%esi
    3330:	66 89 b0 06 ff ff ff 	mov    %si,-0xfa(%rax)
    3337:	66 0f c5 f6 01       	pextrw $0x1,%xmm6,%esi
    333c:	66 89 b0 16 ff ff ff 	mov    %si,-0xea(%rax)
    3343:	66 0f c5 f6 02       	pextrw $0x2,%xmm6,%esi
    3348:	66 89 b0 26 ff ff ff 	mov    %si,-0xda(%rax)
    334f:	66 0f c5 f6 03       	pextrw $0x3,%xmm6,%esi
    3354:	66 89 b0 36 ff ff ff 	mov    %si,-0xca(%rax)
    335b:	66 0f c5 f6 04       	pextrw $0x4,%xmm6,%esi
    3360:	66 89 b0 46 ff ff ff 	mov    %si,-0xba(%rax)
    3367:	66 0f c5 f6 05       	pextrw $0x5,%xmm6,%esi
    336c:	66 89 b0 56 ff ff ff 	mov    %si,-0xaa(%rax)
    3373:	66 0f c5 f6 06       	pextrw $0x6,%xmm6,%esi
    3378:	66 89 b0 66 ff ff ff 	mov    %si,-0x9a(%rax)
    337f:	66 0f c5 f6 07       	pextrw $0x7,%xmm6,%esi
    3384:	66 0f 6f 74 24 d8    	movdqa -0x28(%rsp),%xmm6
    338a:	66 89 b0 76 ff ff ff 	mov    %si,-0x8a(%rax)
    3391:	66 0f c5 f3 00       	pextrw $0x0,%xmm3,%esi
    3396:	66 89 70 86          	mov    %si,-0x7a(%rax)
    339a:	66 0f c5 f3 01       	pextrw $0x1,%xmm3,%esi
    339f:	66 89 70 96          	mov    %si,-0x6a(%rax)
    33a3:	66 0f c5 f3 02       	pextrw $0x2,%xmm3,%esi
    33a8:	66 89 70 a6          	mov    %si,-0x5a(%rax)
    33ac:	66 0f c5 f3 03       	pextrw $0x3,%xmm3,%esi
    33b1:	66 89 70 b6          	mov    %si,-0x4a(%rax)
    33b5:	66 0f c5 f3 04       	pextrw $0x4,%xmm3,%esi
    33ba:	66 89 70 c6          	mov    %si,-0x3a(%rax)
    33be:	66 0f c5 f3 05       	pextrw $0x5,%xmm3,%esi
    33c3:	66 89 70 d6          	mov    %si,-0x2a(%rax)
    33c7:	66 0f c5 f3 06       	pextrw $0x6,%xmm3,%esi
    33cc:	66 89 70 e6          	mov    %si,-0x1a(%rax)
    33d0:	66 0f c5 f3 07       	pextrw $0x7,%xmm3,%esi
    33d5:	66 89 70 f6          	mov    %si,-0xa(%rax)
    33d9:	66 0f c5 f2 00       	pextrw $0x0,%xmm2,%esi
    33de:	66 89 b0 08 ff ff ff 	mov    %si,-0xf8(%rax)
    33e5:	66 0f c5 f2 01       	pextrw $0x1,%xmm2,%esi
    33ea:	66 89 b0 18 ff ff ff 	mov    %si,-0xe8(%rax)
    33f1:	66 0f c5 f2 02       	pextrw $0x2,%xmm2,%esi
    33f6:	66 89 b0 28 ff ff ff 	mov    %si,-0xd8(%rax)
    33fd:	66 0f c5 f2 03       	pextrw $0x3,%xmm2,%esi
    3402:	66 89 b0 38 ff ff ff 	mov    %si,-0xc8(%rax)
    3409:	66 0f c5 f2 04       	pextrw $0x4,%xmm2,%esi
    340e:	66 89 b0 48 ff ff ff 	mov    %si,-0xb8(%rax)
    3415:	66 0f c5 f2 05       	pextrw $0x5,%xmm2,%esi
    341a:	66 89 b0 58 ff ff ff 	mov    %si,-0xa8(%rax)
    3421:	66 0f c5 f2 06       	pextrw $0x6,%xmm2,%esi
    3426:	66 89 b0 68 ff ff ff 	mov    %si,-0x98(%rax)
    342d:	66 0f c5 f2 07       	pextrw $0x7,%xmm2,%esi
    3432:	66 0f 6f d1          	movdqa %xmm1,%xmm2
    3436:	66 89 b0 78 ff ff ff 	mov    %si,-0x88(%rax)
    343d:	66 0f c5 f6 00       	pextrw $0x0,%xmm6,%esi
    3442:	66 89 70 88          	mov    %si,-0x78(%rax)
    3446:	66 0f c5 f6 01       	pextrw $0x1,%xmm6,%esi
    344b:	66 89 70 98          	mov    %si,-0x68(%rax)
    344f:	66 0f c5 f6 02       	pextrw $0x2,%xmm6,%esi
    3454:	66 89 70 a8          	mov    %si,-0x58(%rax)
    3458:	66 0f c5 f6 03       	pextrw $0x3,%xmm6,%esi
    345d:	66 89 70 b8          	mov    %si,-0x48(%rax)
    3461:	66 0f c5 f6 04       	pextrw $0x4,%xmm6,%esi
    3466:	66 89 70 c8          	mov    %si,-0x38(%rax)
    346a:	66 0f c5 f6 05       	pextrw $0x5,%xmm6,%esi
    346f:	66 89 70 d8          	mov    %si,-0x28(%rax)
    3473:	66 0f c5 f6 06       	pextrw $0x6,%xmm6,%esi
    3478:	66 89 70 e8          	mov    %si,-0x18(%rax)
    347c:	66 0f c5 f6 07       	pextrw $0x7,%xmm6,%esi
    3481:	66 89 70 f8          	mov    %si,-0x8(%rax)
    3485:	66 41 0f c5 f7 00    	pextrw $0x0,%xmm15,%esi
    348b:	66 89 b0 0a ff ff ff 	mov    %si,-0xf6(%rax)
    3492:	66 41 0f c5 f7 01    	pextrw $0x1,%xmm15,%esi
    3498:	66 89 b0 1a ff ff ff 	mov    %si,-0xe6(%rax)
    349f:	66 41 0f c5 f7 02    	pextrw $0x2,%xmm15,%esi
    34a5:	66 0f 6f 7c 24 e8    	movdqa -0x18(%rsp),%xmm7
    34ab:	66 89 b0 2a ff ff ff 	mov    %si,-0xd6(%rax)
    34b2:	66 41 0f c5 f7 03    	pextrw $0x3,%xmm15,%esi
    34b8:	66 89 b0 3a ff ff ff 	mov    %si,-0xc6(%rax)
    34bf:	66 41 0f c5 f7 04    	pextrw $0x4,%xmm15,%esi
    34c5:	66 89 b0 4a ff ff ff 	mov    %si,-0xb6(%rax)
    34cc:	66 41 0f c5 f7 05    	pextrw $0x5,%xmm15,%esi
    34d2:	66 89 b0 5a ff ff ff 	mov    %si,-0xa6(%rax)
    34d9:	66 41 0f c5 f7 06    	pextrw $0x6,%xmm15,%esi
    34df:	66 89 b0 6a ff ff ff 	mov    %si,-0x96(%rax)
    34e6:	66 41 0f c5 f7 07    	pextrw $0x7,%xmm15,%esi
    34ec:	66 89 b0 7a ff ff ff 	mov    %si,-0x86(%rax)
    34f3:	66 0f c5 f7 00       	pextrw $0x0,%xmm7,%esi
    34f8:	66 89 70 8a          	mov    %si,-0x76(%rax)
    34fc:	66 0f c5 f7 01       	pextrw $0x1,%xmm7,%esi
    3501:	66 89 70 9a          	mov    %si,-0x66(%rax)
    3505:	66 0f c5 f7 02       	pextrw $0x2,%xmm7,%esi
    350a:	66 89 70 aa          	mov    %si,-0x56(%rax)
    350e:	66 0f c5 f7 03       	pextrw $0x3,%xmm7,%esi
    3513:	66 89 70 ba          	mov    %si,-0x46(%rax)
    3517:	66 0f c5 f7 04       	pextrw $0x4,%xmm7,%esi
    351c:	66 89 70 ca          	mov    %si,-0x36(%rax)
    3520:	66 0f c5 f7 05       	pextrw $0x5,%xmm7,%esi
    3525:	66 89 70 da          	mov    %si,-0x26(%rax)
    3529:	66 0f c5 f7 06       	pextrw $0x6,%xmm7,%esi
    352e:	66 89 70 ea          	mov    %si,-0x16(%rax)
    3532:	66 0f c5 f7 07       	pextrw $0x7,%xmm7,%esi
    3537:	66 89 70 fa          	mov    %si,-0x6(%rax)
    353b:	66 41 0f c5 f6 00    	pextrw $0x0,%xmm14,%esi
    3541:	66 89 b0 0c ff ff ff 	mov    %si,-0xf4(%rax)
    3548:	66 41 0f c5 f6 01    	pextrw $0x1,%xmm14,%esi
    354e:	66 89 b0 1c ff ff ff 	mov    %si,-0xe4(%rax)
    3555:	66 41 0f c5 f6 02    	pextrw $0x2,%xmm14,%esi
    355b:	66 89 b0 2c ff ff ff 	mov    %si,-0xd4(%rax)
    3562:	66 41 0f c5 f6 03    	pextrw $0x3,%xmm14,%esi
    3568:	66 89 b0 3c ff ff ff 	mov    %si,-0xc4(%rax)
    356f:	66 41 0f c5 f6 04    	pextrw $0x4,%xmm14,%esi
    3575:	66 89 b0 4c ff ff ff 	mov    %si,-0xb4(%rax)
    357c:	66 41 0f c5 f6 05    	pextrw $0x5,%xmm14,%esi
    3582:	66 89 b0 5c ff ff ff 	mov    %si,-0xa4(%rax)
    3589:	66 41 0f c5 f6 06    	pextrw $0x6,%xmm14,%esi
    358f:	66 89 b0 6c ff ff ff 	mov    %si,-0x94(%rax)
    3596:	66 41 0f c5 f6 07    	pextrw $0x7,%xmm14,%esi
    359c:	66 89 b0 7c ff ff ff 	mov    %si,-0x84(%rax)
    35a3:	66 41 0f c5 f5 00    	pextrw $0x0,%xmm13,%esi
    35a9:	66 89 70 8c          	mov    %si,-0x74(%rax)
    35ad:	66 41 0f c5 f5 01    	pextrw $0x1,%xmm13,%esi
    35b3:	66 89 70 9c          	mov    %si,-0x64(%rax)
    35b7:	66 41 0f c5 f5 02    	pextrw $0x2,%xmm13,%esi
    35bd:	66 89 70 ac          	mov    %si,-0x54(%rax)
    35c1:	66 41 0f c5 f5 03    	pextrw $0x3,%xmm13,%esi
    35c7:	66 89 70 bc          	mov    %si,-0x44(%rax)
    35cb:	66 41 0f c5 f5 04    	pextrw $0x4,%xmm13,%esi
    35d1:	66 89 70 cc          	mov    %si,-0x34(%rax)
    35d5:	66 41 0f c5 f5 05    	pextrw $0x5,%xmm13,%esi
    35db:	66 89 70 dc          	mov    %si,-0x24(%rax)
    35df:	66 41 0f c5 f5 06    	pextrw $0x6,%xmm13,%esi
    35e5:	66 89 70 ec          	mov    %si,-0x14(%rax)
    35e9:	66 41 0f c5 f5 07    	pextrw $0x7,%xmm13,%esi
    35ef:	66 89 70 fc          	mov    %si,-0x4(%rax)
    35f3:	f3 0f 6f 42 f0       	movdqu -0x10(%rdx),%xmm0
    35f8:	66 0f 71 d0 07       	psrlw  $0x7,%xmm0
    35fd:	66 0f db 05 0b 7a 00 	pand   0x7a0b(%rip),%xmm0        # b010 <_IO_stdin_used+0x10>
    3604:	00 
    3605:	66 0f 6f d8          	movdqa %xmm0,%xmm3
    3609:	66 0f 68 c4          	punpckhbw %xmm4,%xmm0
    360d:	66 0f 60 dc          	punpcklbw %xmm4,%xmm3
    3611:	66 0f f9 d3          	psubw  %xmm3,%xmm2
    3615:	66 0f 6f d8          	movdqa %xmm0,%xmm3
    3619:	66 0f 6f c1          	movdqa %xmm1,%xmm0
    361d:	66 0f db d5          	pand   %xmm5,%xmm2
    3621:	66 0f f9 c3          	psubw  %xmm3,%xmm0
    3625:	66 0f c5 f2 00       	pextrw $0x0,%xmm2,%esi
    362a:	66 0f db c5          	pand   %xmm5,%xmm0
    362e:	66 89 b0 0e ff ff ff 	mov    %si,-0xf2(%rax)
    3635:	66 0f c5 f2 01       	pextrw $0x1,%xmm2,%esi
    363a:	66 89 b0 1e ff ff ff 	mov    %si,-0xe2(%rax)
    3641:	66 0f c5 f2 02       	pextrw $0x2,%xmm2,%esi
    3646:	66 89 b0 2e ff ff ff 	mov    %si,-0xd2(%rax)
    364d:	66 0f c5 f2 03       	pextrw $0x3,%xmm2,%esi
    3652:	66 89 b0 3e ff ff ff 	mov    %si,-0xc2(%rax)
    3659:	66 0f c5 f2 04       	pextrw $0x4,%xmm2,%esi
    365e:	66 89 b0 4e ff ff ff 	mov    %si,-0xb2(%rax)
    3665:	66 0f c5 f2 05       	pextrw $0x5,%xmm2,%esi
    366a:	66 89 b0 5e ff ff ff 	mov    %si,-0xa2(%rax)
    3671:	66 0f c5 f2 06       	pextrw $0x6,%xmm2,%esi
    3676:	66 89 b0 6e ff ff ff 	mov    %si,-0x92(%rax)
    367d:	66 0f c5 f2 07       	pextrw $0x7,%xmm2,%esi
    3682:	66 89 b0 7e ff ff ff 	mov    %si,-0x82(%rax)
    3689:	66 0f c5 f0 00       	pextrw $0x0,%xmm0,%esi
    368e:	66 89 70 8e          	mov    %si,-0x72(%rax)
    3692:	66 0f c5 f0 01       	pextrw $0x1,%xmm0,%esi
    3697:	66 89 70 9e          	mov    %si,-0x62(%rax)
    369b:	66 0f c5 f0 02       	pextrw $0x2,%xmm0,%esi
    36a0:	66 89 70 ae          	mov    %si,-0x52(%rax)
    36a4:	66 0f c5 f0 03       	pextrw $0x3,%xmm0,%esi
    36a9:	66 89 70 be          	mov    %si,-0x42(%rax)
    36ad:	66 0f c5 f0 04       	pextrw $0x4,%xmm0,%esi
    36b2:	66 89 70 ce          	mov    %si,-0x32(%rax)
    36b6:	66 0f c5 f0 05       	pextrw $0x5,%xmm0,%esi
    36bb:	66 89 70 de          	mov    %si,-0x22(%rax)
    36bf:	66 0f c5 f0 06       	pextrw $0x6,%xmm0,%esi
    36c4:	66 89 70 ee          	mov    %si,-0x12(%rax)
    36c8:	66 0f c5 f0 07       	pextrw $0x7,%xmm0,%esi
    36cd:	66 89 70 fe          	mov    %si,-0x2(%rax)
    36d1:	48 39 ca             	cmp    %rcx,%rdx
    36d4:	0f 85 49 f8 ff ff    	jne    2f23 <pqcrystals_kyber1024_ref_poly_frommsg+0x33>
    36da:	c3                   	ret    
    36db:	0f 1f 44 00 00       	nopl   0x0(%rax,%rax,1)
    36e0:	0f b6 0a             	movzbl (%rdx),%ecx
    36e3:	48 83 c0 10          	add    $0x10,%rax
    36e7:	48 83 c2 01          	add    $0x1,%rdx
    36eb:	83 e1 01             	and    $0x1,%ecx
    36ee:	f7 d9                	neg    %ecx
    36f0:	66 81 e1 81 06       	and    $0x681,%cx
    36f5:	66 89 48 f0          	mov    %cx,-0x10(%rax)
    36f9:	0f b6 4a ff          	movzbl -0x1(%rdx),%ecx
    36fd:	d1 f9                	sar    %ecx
    36ff:	83 e1 01             	and    $0x1,%ecx
    3702:	f7 d9                	neg    %ecx
    3704:	66 81 e1 81 06       	and    $0x681,%cx
    3709:	66 89 48 f2          	mov    %cx,-0xe(%rax)
    370d:	0f b6 4a ff          	movzbl -0x1(%rdx),%ecx
    3711:	c1 f9 02             	sar    $0x2,%ecx
    3714:	83 e1 01             	and    $0x1,%ecx
    3717:	f7 d9                	neg    %ecx
    3719:	66 81 e1 81 06       	and    $0x681,%cx
    371e:	66 89 48 f4          	mov    %cx,-0xc(%rax)
    3722:	0f b6 4a ff          	movzbl -0x1(%rdx),%ecx
    3726:	c1 f9 03             	sar    $0x3,%ecx
    3729:	83 e1 01             	and    $0x1,%ecx
    372c:	f7 d9                	neg    %ecx
    372e:	66 81 e1 81 06       	and    $0x681,%cx
    3733:	66 89 48 f6          	mov    %cx,-0xa(%rax)
    3737:	0f b6 4a ff          	movzbl -0x1(%rdx),%ecx
    373b:	c1 f9 04             	sar    $0x4,%ecx
    373e:	83 e1 01             	and    $0x1,%ecx
    3741:	f7 d9                	neg    %ecx
    3743:	66 81 e1 81 06       	and    $0x681,%cx
    3748:	66 89 48 f8          	mov    %cx,-0x8(%rax)
    374c:	0f b6 4a ff          	movzbl -0x1(%rdx),%ecx
    3750:	c1 f9 05             	sar    $0x5,%ecx
    3753:	83 e1 01             	and    $0x1,%ecx
    3756:	f7 d9                	neg    %ecx
    3758:	66 81 e1 81 06       	and    $0x681,%cx
    375d:	66 89 48 fa          	mov    %cx,-0x6(%rax)
    3761:	0f b6 4a ff          	movzbl -0x1(%rdx),%ecx
    3765:	c1 f9 06             	sar    $0x6,%ecx
    3768:	83 e1 01             	and    $0x1,%ecx
    376b:	f7 d9                	neg    %ecx
    376d:	66 81 e1 81 06       	and    $0x681,%cx
    3772:	66 89 48 fc          	mov    %cx,-0x4(%rax)
    3776:	0f b6 4a ff          	movzbl -0x1(%rdx),%ecx
    377a:	c1 f9 07             	sar    $0x7,%ecx
    377d:	f7 d9                	neg    %ecx
    377f:	66 81 e1 81 06       	and    $0x681,%cx
    3784:	66 89 48 fe          	mov    %cx,-0x2(%rax)
    3788:	48 39 c7             	cmp    %rax,%rdi
    378b:	0f 85 4f ff ff ff    	jne    36e0 <pqcrystals_kyber1024_ref_poly_frommsg+0x7f0>
    3791:	c3                   	ret    
    3792:	66 66 2e 0f 1f 84 00 	data16 cs nopw 0x0(%rax,%rax,1)
    3799:	00 00 00 00 
    379d:	0f 1f 00             	nopl   (%rax)

00000000000037a0 <pqcrystals_kyber1024_ref_poly_tomsg>:
    37a0:	f3 0f 1e fa          	endbr64 
    37a4:	48 8d 47 20          	lea    0x20(%rdi),%rax
    37a8:	48 89 f9             	mov    %rdi,%rcx
    37ab:	48 89 f2             	mov    %rsi,%rdx
    37ae:	48 39 c6             	cmp    %rax,%rsi
    37b1:	73 10                	jae    37c3 <pqcrystals_kyber1024_ref_poly_tomsg+0x23>
    37b3:	4c 8d 86 00 02 00 00 	lea    0x200(%rsi),%r8
    37ba:	4c 39 c7             	cmp    %r8,%rdi
    37bd:	0f 82 c5 12 00 00    	jb     4a88 <pqcrystals_kyber1024_ref_poly_tomsg+0x12e8>
    37c3:	66 0f ef ff          	pxor   %xmm7,%xmm7
    37c7:	48 83 c1 10          	add    $0x10,%rcx
    37cb:	48 81 c2 00 01 00 00 	add    $0x100,%rdx
    37d2:	0f 11 79 f0          	movups %xmm7,-0x10(%rcx)
    37d6:	f3 0f 6f aa 00 ff ff 	movdqu -0x100(%rdx),%xmm5
    37dd:	ff 
    37de:	f3 44 0f 6f 82 10 ff 	movdqu -0xf0(%rdx),%xmm8
    37e5:	ff ff 
    37e7:	f3 0f 6f b2 20 ff ff 	movdqu -0xe0(%rdx),%xmm6
    37ee:	ff 
    37ef:	f3 0f 6f ba 30 ff ff 	movdqu -0xd0(%rdx),%xmm7
    37f6:	ff 
    37f7:	66 0f 6f c5          	movdqa %xmm5,%xmm0
    37fb:	66 0f 6f d5          	movdqa %xmm5,%xmm2
    37ff:	f3 0f 6f 8a 40 ff ff 	movdqu -0xc0(%rdx),%xmm1
    3806:	ff 
    3807:	66 41 0f 61 e8       	punpcklwd %xmm8,%xmm5
    380c:	66 41 0f 61 c0       	punpcklwd %xmm8,%xmm0
    3811:	66 41 0f 69 d0       	punpckhwd %xmm8,%xmm2
    3816:	66 44 0f 6f c6       	movdqa %xmm6,%xmm8
    381b:	f3 0f 6f a2 50 ff ff 	movdqu -0xb0(%rdx),%xmm4
    3822:	ff 
    3823:	66 44 0f 6f d0       	movdqa %xmm0,%xmm10
    3828:	66 0f 61 ea          	punpcklwd %xmm2,%xmm5
    382c:	66 44 0f 61 c7       	punpcklwd %xmm7,%xmm8
    3831:	f3 0f 6f 9a 60 ff ff 	movdqu -0xa0(%rdx),%xmm3
    3838:	ff 
    3839:	66 44 0f 69 d2       	punpckhwd %xmm2,%xmm10
    383e:	66 0f 61 c2          	punpcklwd %xmm2,%xmm0
    3842:	66 0f 6f d6          	movdqa %xmm6,%xmm2
    3846:	f3 44 0f 6f 8a 70 ff 	movdqu -0x90(%rdx),%xmm9
    384d:	ff ff 
    384f:	66 0f 69 d7          	punpckhwd %xmm7,%xmm2
    3853:	66 41 0f 61 c2       	punpcklwd %xmm10,%xmm0
    3858:	66 41 0f 69 ea       	punpckhwd %xmm10,%xmm5
    385d:	f3 44 0f 6f 62 b0    	movdqu -0x50(%rdx),%xmm12
    3863:	66 45 0f 6f d0       	movdqa %xmm8,%xmm10
    3868:	66 0f 61 f7          	punpcklwd %xmm7,%xmm6
    386c:	66 0f 6f f9          	movdqa %xmm1,%xmm7
    3870:	66 44 0f 69 d2       	punpckhwd %xmm2,%xmm10
    3875:	66 0f 61 fc          	punpcklwd %xmm4,%xmm7
    3879:	66 44 0f 61 c2       	punpcklwd %xmm2,%xmm8
    387e:	66 0f 61 f2          	punpcklwd %xmm2,%xmm6
    3882:	66 0f 6f d1          	movdqa %xmm1,%xmm2
    3886:	66 45 0f 61 c2       	punpcklwd %xmm10,%xmm8
    388b:	66 41 0f 69 f2       	punpckhwd %xmm10,%xmm6
    3890:	66 0f 69 d4          	punpckhwd %xmm4,%xmm2
    3894:	66 44 0f 6f d7       	movdqa %xmm7,%xmm10
    3899:	66 0f 61 cc          	punpcklwd %xmm4,%xmm1
    389d:	66 44 0f 69 d2       	punpckhwd %xmm2,%xmm10
    38a2:	66 0f 61 fa          	punpcklwd %xmm2,%xmm7
    38a6:	66 0f 61 ca          	punpcklwd %xmm2,%xmm1
    38aa:	66 0f 6f d3          	movdqa %xmm3,%xmm2
    38ae:	66 0f 6f e3          	movdqa %xmm3,%xmm4
    38b2:	66 41 0f 61 d1       	punpcklwd %xmm9,%xmm2
    38b7:	66 41 0f 69 e1       	punpckhwd %xmm9,%xmm4
    38bc:	66 41 0f 61 fa       	punpcklwd %xmm10,%xmm7
    38c1:	66 41 0f 69 ca       	punpckhwd %xmm10,%xmm1
    38c6:	66 41 0f 61 d9       	punpcklwd %xmm9,%xmm3
    38cb:	66 44 0f 6f d2       	movdqa %xmm2,%xmm10
    38d0:	66 44 0f 69 d4       	punpckhwd %xmm4,%xmm10
    38d5:	66 0f 61 d4          	punpcklwd %xmm4,%xmm2
    38d9:	66 0f 61 dc          	punpcklwd %xmm4,%xmm3
    38dd:	66 0f 6f e0          	movdqa %xmm0,%xmm4
    38e1:	66 44 0f 6f c8       	movdqa %xmm0,%xmm9
    38e6:	66 41 0f 61 d2       	punpcklwd %xmm10,%xmm2
    38eb:	66 41 0f 61 e0       	punpcklwd %xmm8,%xmm4
    38f0:	66 41 0f 69 da       	punpckhwd %xmm10,%xmm3
    38f5:	66 45 0f 69 c8       	punpckhwd %xmm8,%xmm9
    38fa:	66 44 0f 6f d4       	movdqa %xmm4,%xmm10
    38ff:	66 41 0f 61 c0       	punpcklwd %xmm8,%xmm0
    3904:	66 44 0f 6f c7       	movdqa %xmm7,%xmm8
    3909:	66 45 0f 69 d1       	punpckhwd %xmm9,%xmm10
    390e:	66 44 0f 61 c2       	punpcklwd %xmm2,%xmm8
    3913:	66 41 0f 61 e1       	punpcklwd %xmm9,%xmm4
    3918:	66 41 0f 61 c1       	punpcklwd %xmm9,%xmm0
    391d:	66 44 0f 6f cf       	movdqa %xmm7,%xmm9
    3922:	66 41 0f 61 e2       	punpcklwd %xmm10,%xmm4
    3927:	66 44 0f 69 ca       	punpckhwd %xmm2,%xmm9
    392c:	66 41 0f 69 c2       	punpckhwd %xmm10,%xmm0
    3931:	66 0f 61 fa          	punpcklwd %xmm2,%xmm7
    3935:	66 45 0f 6f d0       	movdqa %xmm8,%xmm10
    393a:	66 0f 6f d5          	movdqa %xmm5,%xmm2
    393e:	66 45 0f 61 c1       	punpcklwd %xmm9,%xmm8
    3943:	66 45 0f 69 d1       	punpckhwd %xmm9,%xmm10
    3948:	66 0f 61 d6          	punpcklwd %xmm6,%xmm2
    394c:	66 41 0f 61 f9       	punpcklwd %xmm9,%xmm7
    3951:	66 44 0f 6f cd       	movdqa %xmm5,%xmm9
    3956:	66 45 0f 61 c2       	punpcklwd %xmm10,%xmm8
    395b:	66 41 0f 69 fa       	punpckhwd %xmm10,%xmm7
    3960:	66 44 0f 69 ce       	punpckhwd %xmm6,%xmm9
    3965:	66 44 0f 6f d2       	movdqa %xmm2,%xmm10
    396a:	66 0f 61 ee          	punpcklwd %xmm6,%xmm5
    396e:	66 0f 6f f1          	movdqa %xmm1,%xmm6
    3972:	66 45 0f 69 d1       	punpckhwd %xmm9,%xmm10
    3977:	66 41 0f 61 d1       	punpcklwd %xmm9,%xmm2
    397c:	66 0f 61 f3          	punpcklwd %xmm3,%xmm6
    3980:	66 41 0f 61 e9       	punpcklwd %xmm9,%xmm5
    3985:	66 44 0f 6f c9       	movdqa %xmm1,%xmm9
    398a:	66 44 0f 69 cb       	punpckhwd %xmm3,%xmm9
    398f:	66 41 0f 61 d2       	punpcklwd %xmm10,%xmm2
    3994:	66 41 0f 69 ea       	punpckhwd %xmm10,%xmm5
    3999:	66 44 0f 6f dc       	movdqa %xmm4,%xmm11
    399e:	66 44 0f 6f d6       	movdqa %xmm6,%xmm10
    39a3:	66 0f 61 cb          	punpcklwd %xmm3,%xmm1
    39a7:	66 45 0f 69 d1       	punpckhwd %xmm9,%xmm10
    39ac:	66 45 0f 61 d8       	punpcklwd %xmm8,%xmm11
    39b1:	66 41 0f 61 f1       	punpcklwd %xmm9,%xmm6
    39b6:	66 0f 6f dc          	movdqa %xmm4,%xmm3
    39ba:	66 41 0f 61 f2       	punpcklwd %xmm10,%xmm6
    39bf:	66 41 0f 61 c9       	punpcklwd %xmm9,%xmm1
    39c4:	66 41 0f 69 d8       	punpckhwd %xmm8,%xmm3
    39c9:	66 45 0f 6f cb       	movdqa %xmm11,%xmm9
    39ce:	66 41 0f 61 e0       	punpcklwd %xmm8,%xmm4
    39d3:	66 44 0f 6f ea       	movdqa %xmm2,%xmm13
    39d8:	66 44 0f 69 cb       	punpckhwd %xmm3,%xmm9
    39dd:	66 44 0f 61 db       	punpcklwd %xmm3,%xmm11
    39e2:	66 44 0f 61 ee       	punpcklwd %xmm6,%xmm13
    39e7:	66 0f 61 e3          	punpcklwd %xmm3,%xmm4
    39eb:	66 0f 6f da          	movdqa %xmm2,%xmm3
    39ef:	66 0f 69 de          	punpckhwd %xmm6,%xmm3
    39f3:	66 45 0f 61 d9       	punpcklwd %xmm9,%xmm11
    39f8:	66 41 0f 69 e1       	punpckhwd %xmm9,%xmm4
    39fd:	66 45 0f 6f c5       	movdqa %xmm13,%xmm8
    3a02:	66 0f 61 d6          	punpcklwd %xmm6,%xmm2
    3a06:	66 44 0f 6f c8       	movdqa %xmm0,%xmm9
    3a0b:	66 44 0f 69 c3       	punpckhwd %xmm3,%xmm8
    3a10:	66 44 0f 61 cf       	punpcklwd %xmm7,%xmm9
    3a15:	66 44 0f 61 eb       	punpcklwd %xmm3,%xmm13
    3a1a:	66 0f 61 d3          	punpcklwd %xmm3,%xmm2
    3a1e:	66 0f 6f d8          	movdqa %xmm0,%xmm3
    3a22:	66 0f 61 c7          	punpcklwd %xmm7,%xmm0
    3a26:	66 0f 69 df          	punpckhwd %xmm7,%xmm3
    3a2a:	66 41 0f 6f f1       	movdqa %xmm9,%xmm6
    3a2f:	66 0f 6f f8          	movdqa %xmm0,%xmm7
    3a33:	f3 0f 6f 42 d0       	movdqu -0x30(%rdx),%xmm0
    3a38:	66 0f 69 f3          	punpckhwd %xmm3,%xmm6
    3a3c:	66 0f 61 fb          	punpcklwd %xmm3,%xmm7
    3a40:	66 41 0f 69 ca       	punpckhwd %xmm10,%xmm1
    3a45:	f3 44 0f 6f 52 c0    	movdqu -0x40(%rdx),%xmm10
    3a4b:	66 0f 69 fe          	punpckhwd %xmm6,%xmm7
    3a4f:	66 44 0f 61 cb       	punpcklwd %xmm3,%xmm9
    3a54:	66 0f 6f dd          	movdqa %xmm5,%xmm3
    3a58:	0f 29 7c 24 c8       	movaps %xmm7,-0x38(%rsp)
    3a5d:	66 0f 6f fd          	movdqa %xmm5,%xmm7
    3a61:	66 0f 69 d9          	punpckhwd %xmm1,%xmm3
    3a65:	66 44 0f 61 ce       	punpcklwd %xmm6,%xmm9
    3a6a:	66 0f 61 f9          	punpcklwd %xmm1,%xmm7
    3a6e:	66 0f 61 e9          	punpcklwd %xmm1,%xmm5
    3a72:	66 45 0f 61 e8       	punpcklwd %xmm8,%xmm13
    3a77:	66 0f 6f f7          	movdqa %xmm7,%xmm6
    3a7b:	66 0f 61 eb          	punpcklwd %xmm3,%xmm5
    3a7f:	66 0f 61 fb          	punpcklwd %xmm3,%xmm7
    3a83:	66 0f 69 f3          	punpckhwd %xmm3,%xmm6
    3a87:	f3 0f 6f 5a 90       	movdqu -0x70(%rdx),%xmm3
    3a8c:	66 41 0f 69 d0       	punpckhwd %xmm8,%xmm2
    3a91:	66 0f 69 ee          	punpckhwd %xmm6,%xmm5
    3a95:	66 0f 61 fe          	punpcklwd %xmm6,%xmm7
    3a99:	f3 0f 6f 72 a0       	movdqu -0x60(%rdx),%xmm6
    3a9e:	0f 29 6c 24 d8       	movaps %xmm5,-0x28(%rsp)
    3aa3:	f3 0f 6f 6a 80       	movdqu -0x80(%rdx),%xmm5
    3aa8:	66 44 0f 6f f6       	movdqa %xmm6,%xmm14
    3aad:	66 44 0f 6f fd       	movdqa %xmm5,%xmm15
    3ab2:	66 0f 6f cd          	movdqa %xmm5,%xmm1
    3ab6:	66 0f 61 eb          	punpcklwd %xmm3,%xmm5
    3aba:	66 44 0f 61 fb       	punpcklwd %xmm3,%xmm15
    3abf:	66 0f 69 cb          	punpckhwd %xmm3,%xmm1
    3ac3:	66 45 0f 61 f4       	punpcklwd %xmm12,%xmm14
    3ac8:	66 45 0f 6f c7       	movdqa %xmm15,%xmm8
    3acd:	66 0f 61 e9          	punpcklwd %xmm1,%xmm5
    3ad1:	66 44 0f 61 f9       	punpcklwd %xmm1,%xmm15
    3ad6:	66 44 0f 69 c1       	punpckhwd %xmm1,%xmm8
    3adb:	66 0f 6f ce          	movdqa %xmm6,%xmm1
    3adf:	66 45 0f 61 f8       	punpcklwd %xmm8,%xmm15
    3ae4:	66 41 0f 69 e8       	punpckhwd %xmm8,%xmm5
    3ae9:	66 44 0f 6f c6       	movdqa %xmm6,%xmm8
    3aee:	66 45 0f 61 c4       	punpcklwd %xmm12,%xmm8
    3af3:	66 41 0f 69 cc       	punpckhwd %xmm12,%xmm1
    3af8:	66 41 0f 6f d8       	movdqa %xmm8,%xmm3
    3afd:	66 44 0f 61 f1       	punpcklwd %xmm1,%xmm14
    3b02:	66 44 0f 61 c1       	punpcklwd %xmm1,%xmm8
    3b07:	66 0f 69 d9          	punpckhwd %xmm1,%xmm3
    3b0b:	66 41 0f 6f ca       	movdqa %xmm10,%xmm1
    3b10:	66 44 0f 61 c3       	punpcklwd %xmm3,%xmm8
    3b15:	66 44 0f 69 f3       	punpckhwd %xmm3,%xmm14
    3b1a:	f3 0f 6f 5a d0       	movdqu -0x30(%rdx),%xmm3
    3b1f:	66 0f 69 c8          	punpckhwd %xmm0,%xmm1
    3b23:	66 41 0f 6f c2       	movdqa %xmm10,%xmm0
    3b28:	66 0f 61 c3          	punpcklwd %xmm3,%xmm0
    3b2c:	66 0f 6f f0          	movdqa %xmm0,%xmm6
    3b30:	66 0f 6f d8          	movdqa %xmm0,%xmm3
    3b34:	f3 0f 6f 42 d0       	movdqu -0x30(%rdx),%xmm0
    3b39:	66 0f 69 d9          	punpckhwd %xmm1,%xmm3
    3b3d:	66 0f 61 f1          	punpcklwd %xmm1,%xmm6
    3b41:	66 44 0f 61 d0       	punpcklwd %xmm0,%xmm10
    3b46:	66 0f 61 f3          	punpcklwd %xmm3,%xmm6
    3b4a:	f3 0f 6f 42 f0       	movdqu -0x10(%rdx),%xmm0
    3b4f:	66 44 0f 61 d1       	punpcklwd %xmm1,%xmm10
    3b54:	f3 0f 6f 4a f0       	movdqu -0x10(%rdx),%xmm1
    3b59:	66 44 0f 69 d3       	punpckhwd %xmm3,%xmm10
    3b5e:	f3 0f 6f 5a e0       	movdqu -0x20(%rdx),%xmm3
    3b63:	66 0f 69 d9          	punpckhwd %xmm1,%xmm3
    3b67:	f3 0f 6f 4a e0       	movdqu -0x20(%rdx),%xmm1
    3b6c:	66 0f 61 c8          	punpcklwd %xmm0,%xmm1
    3b70:	66 0f 6f c1          	movdqa %xmm1,%xmm0
    3b74:	66 0f 69 cb          	punpckhwd %xmm3,%xmm1
    3b78:	66 0f 61 c3          	punpcklwd %xmm3,%xmm0
    3b7c:	66 44 0f 6f e1       	movdqa %xmm1,%xmm12
    3b81:	66 0f 6f c8          	movdqa %xmm0,%xmm1
    3b85:	f3 0f 6f 42 f0       	movdqu -0x10(%rdx),%xmm0
    3b8a:	66 41 0f 61 cc       	punpcklwd %xmm12,%xmm1
    3b8f:	0f 29 4c 24 e8       	movaps %xmm1,-0x18(%rsp)
    3b94:	f3 0f 6f 4a e0       	movdqu -0x20(%rdx),%xmm1
    3b99:	66 0f 61 c8          	punpcklwd %xmm0,%xmm1
    3b9d:	66 0f 61 cb          	punpcklwd %xmm3,%xmm1
    3ba1:	66 41 0f 6f df       	movdqa %xmm15,%xmm3
    3ba6:	66 41 0f 69 cc       	punpckhwd %xmm12,%xmm1
    3bab:	66 41 0f 61 d8       	punpcklwd %xmm8,%xmm3
    3bb0:	66 45 0f 6f e7       	movdqa %xmm15,%xmm12
    3bb5:	0f 29 4c 24 b8       	movaps %xmm1,-0x48(%rsp)
    3bba:	66 45 0f 69 e0       	punpckhwd %xmm8,%xmm12
    3bbf:	66 0f 6f c3          	movdqa %xmm3,%xmm0
    3bc3:	66 0f 6f 4c 24 e8    	movdqa -0x18(%rsp),%xmm1
    3bc9:	66 45 0f 61 f8       	punpcklwd %xmm8,%xmm15
    3bce:	66 41 0f 69 c4       	punpckhwd %xmm12,%xmm0
    3bd3:	66 41 0f 61 dc       	punpcklwd %xmm12,%xmm3
    3bd8:	66 45 0f 61 fc       	punpcklwd %xmm12,%xmm15
    3bdd:	66 44 0f 6f c6       	movdqa %xmm6,%xmm8
    3be2:	66 44 0f 6f e6       	movdqa %xmm6,%xmm12
    3be7:	66 44 0f 69 e1       	punpckhwd %xmm1,%xmm12
    3bec:	66 44 0f 61 c1       	punpcklwd %xmm1,%xmm8
    3bf1:	66 0f 61 f1          	punpcklwd %xmm1,%xmm6
    3bf5:	66 0f 61 d8          	punpcklwd %xmm0,%xmm3
    3bf9:	66 44 0f 69 f8       	punpckhwd %xmm0,%xmm15
    3bfe:	66 41 0f 61 f4       	punpcklwd %xmm12,%xmm6
    3c03:	66 41 0f 6f c0       	movdqa %xmm8,%xmm0
    3c08:	66 45 0f 61 c4       	punpcklwd %xmm12,%xmm8
    3c0d:	66 41 0f 69 c4       	punpckhwd %xmm12,%xmm0
    3c12:	66 44 0f 6f e6       	movdqa %xmm6,%xmm12
    3c17:	66 44 0f 61 c0       	punpcklwd %xmm0,%xmm8
    3c1c:	66 44 0f 69 e0       	punpckhwd %xmm0,%xmm12
    3c21:	66 0f 6f c5          	movdqa %xmm5,%xmm0
    3c25:	66 41 0f 69 c6       	punpckhwd %xmm14,%xmm0
    3c2a:	44 0f 29 64 24 e8    	movaps %xmm12,-0x18(%rsp)
    3c30:	66 0f 6f f0          	movdqa %xmm0,%xmm6
    3c34:	66 0f 6f c5          	movdqa %xmm5,%xmm0
    3c38:	66 41 0f 61 ee       	punpcklwd %xmm14,%xmm5
    3c3d:	66 41 0f 61 c6       	punpcklwd %xmm14,%xmm0
    3c42:	66 0f 61 ee          	punpcklwd %xmm6,%xmm5
    3c46:	66 44 0f 6f 74 24 b8 	movdqa -0x48(%rsp),%xmm14
    3c4d:	66 0f 6f c8          	movdqa %xmm0,%xmm1
    3c51:	66 0f 69 c6          	punpckhwd %xmm6,%xmm0
    3c55:	66 0f 61 ce          	punpcklwd %xmm6,%xmm1
    3c59:	66 0f 69 e8          	punpckhwd %xmm0,%xmm5
    3c5d:	66 0f 61 c8          	punpcklwd %xmm0,%xmm1
    3c61:	66 41 0f 6f c2       	movdqa %xmm10,%xmm0
    3c66:	66 41 0f 69 c6       	punpckhwd %xmm14,%xmm0
    3c6b:	66 44 0f 6f e0       	movdqa %xmm0,%xmm12
    3c70:	66 41 0f 6f c2       	movdqa %xmm10,%xmm0
    3c75:	66 41 0f 61 c6       	punpcklwd %xmm14,%xmm0
    3c7a:	66 0f 6f f0          	movdqa %xmm0,%xmm6
    3c7e:	66 41 0f 69 c4       	punpckhwd %xmm12,%xmm0
    3c83:	66 41 0f 61 f4       	punpcklwd %xmm12,%xmm6
    3c88:	66 44 0f 6f f0       	movdqa %xmm0,%xmm14
    3c8d:	66 0f 61 f0          	punpcklwd %xmm0,%xmm6
    3c91:	66 41 0f 6f c2       	movdqa %xmm10,%xmm0
    3c96:	66 0f 61 44 24 b8    	punpcklwd -0x48(%rsp),%xmm0
    3c9c:	66 44 0f 6f d3       	movdqa %xmm3,%xmm10
    3ca1:	66 45 0f 61 d0       	punpcklwd %xmm8,%xmm10
    3ca6:	66 41 0f 61 c4       	punpcklwd %xmm12,%xmm0
    3cab:	66 44 0f 6f e3       	movdqa %xmm3,%xmm12
    3cb0:	66 45 0f 69 e0       	punpckhwd %xmm8,%xmm12
    3cb5:	66 41 0f 69 c6       	punpckhwd %xmm14,%xmm0
    3cba:	66 41 0f 61 d8       	punpcklwd %xmm8,%xmm3
    3cbf:	66 45 0f 6f f2       	movdqa %xmm10,%xmm14
    3cc4:	66 41 0f 61 dc       	punpcklwd %xmm12,%xmm3
    3cc9:	66 45 0f 61 d4       	punpcklwd %xmm12,%xmm10
    3cce:	0f 29 44 24 b8       	movaps %xmm0,-0x48(%rsp)
    3cd3:	66 45 0f 69 f4       	punpckhwd %xmm12,%xmm14
    3cd8:	66 44 0f 6f e1       	movdqa %xmm1,%xmm12
    3cdd:	66 44 0f 6f c1       	movdqa %xmm1,%xmm8
    3ce2:	66 0f 6f 44 24 e8    	movdqa -0x18(%rsp),%xmm0
    3ce8:	66 44 0f 61 e6       	punpcklwd %xmm6,%xmm12
    3ced:	66 41 0f 69 de       	punpckhwd %xmm14,%xmm3
    3cf2:	66 44 0f 69 c6       	punpckhwd %xmm6,%xmm8
    3cf7:	66 45 0f 61 d6       	punpcklwd %xmm14,%xmm10
    3cfc:	66 0f 61 ce          	punpcklwd %xmm6,%xmm1
    3d00:	66 45 0f 6f f4       	movdqa %xmm12,%xmm14
    3d05:	66 45 0f 69 f0       	punpckhwd %xmm8,%xmm14
    3d0a:	66 45 0f 61 e0       	punpcklwd %xmm8,%xmm12
    3d0f:	66 41 0f 61 c8       	punpcklwd %xmm8,%xmm1
    3d14:	66 45 0f 6f c7       	movdqa %xmm15,%xmm8
    3d19:	66 41 0f 69 ce       	punpckhwd %xmm14,%xmm1
    3d1e:	66 45 0f 61 e6       	punpcklwd %xmm14,%xmm12
    3d23:	66 44 0f 69 c0       	punpckhwd %xmm0,%xmm8
    3d28:	66 41 0f 6f f0       	movdqa %xmm8,%xmm6
    3d2d:	66 45 0f 6f c7       	movdqa %xmm15,%xmm8
    3d32:	66 44 0f 61 f8       	punpcklwd %xmm0,%xmm15
    3d37:	66 44 0f 61 c0       	punpcklwd %xmm0,%xmm8
    3d3c:	66 44 0f 61 fe       	punpcklwd %xmm6,%xmm15
    3d41:	66 0f 6f 44 24 b8    	movdqa -0x48(%rsp),%xmm0
    3d47:	66 45 0f 6f f0       	movdqa %xmm8,%xmm14
    3d4c:	66 44 0f 61 c6       	punpcklwd %xmm6,%xmm8
    3d51:	66 44 0f 69 f6       	punpckhwd %xmm6,%xmm14
    3d56:	66 0f 6f f5          	movdqa %xmm5,%xmm6
    3d5a:	66 45 0f 61 c6       	punpcklwd %xmm14,%xmm8
    3d5f:	66 45 0f 69 fe       	punpckhwd %xmm14,%xmm15
    3d64:	66 44 0f 6f f5       	movdqa %xmm5,%xmm14
    3d69:	66 44 0f 69 f0       	punpckhwd %xmm0,%xmm14
    3d6e:	66 0f 61 f0          	punpcklwd %xmm0,%xmm6
    3d72:	66 0f 61 e8          	punpcklwd %xmm0,%xmm5
    3d76:	44 0f 29 7c 24 e8    	movaps %xmm15,-0x18(%rsp)
    3d7c:	66 0f ef c0          	pxor   %xmm0,%xmm0
    3d80:	66 44 0f 6f fe       	movdqa %xmm6,%xmm15
    3d85:	66 41 0f 61 ee       	punpcklwd %xmm14,%xmm5
    3d8a:	66 41 0f 65 c5       	pcmpgtw %xmm13,%xmm0
    3d8f:	66 45 0f 69 fe       	punpckhwd %xmm14,%xmm15
    3d94:	66 41 0f 61 f6       	punpcklwd %xmm14,%xmm6
    3d99:	66 44 0f 6f f5       	movdqa %xmm5,%xmm14
    3d9e:	66 41 0f 61 f7       	punpcklwd %xmm15,%xmm6
    3da3:	66 45 0f 69 f7       	punpckhwd %xmm15,%xmm14
    3da8:	66 44 0f 6f f8       	movdqa %xmm0,%xmm15
    3dad:	66 41 0f 6f c5       	movdqa %xmm13,%xmm0
    3db2:	44 0f 29 74 24 b8    	movaps %xmm14,-0x48(%rsp)
    3db8:	66 41 0f 61 c7       	punpcklwd %xmm15,%xmm0
    3dbd:	66 45 0f 69 ef       	punpckhwd %xmm15,%xmm13
    3dc2:	66 44 0f 6f f0       	movdqa %xmm0,%xmm14
    3dc7:	66 41 0f 72 f5 01    	pslld  $0x1,%xmm13
    3dcd:	66 44 0f fe 2d ba 72 	paddd  0x72ba(%rip),%xmm13        # b090 <_IO_stdin_used+0x90>
    3dd4:	00 00 
    3dd6:	66 41 0f 72 f6 01    	pslld  $0x1,%xmm14
    3ddc:	66 44 0f fe 35 ab 72 	paddd  0x72ab(%rip),%xmm14        # b090 <_IO_stdin_used+0x90>
    3de3:	00 00 
    3de5:	66 41 0f 6f c6       	movdqa %xmm14,%xmm0
    3dea:	66 0f 72 f0 06       	pslld  $0x6,%xmm0
    3def:	66 0f 6f e8          	movdqa %xmm0,%xmm5
    3df3:	66 41 0f fa ee       	psubd  %xmm14,%xmm5
    3df8:	66 0f 72 f5 08       	pslld  $0x8,%xmm5
    3dfd:	66 41 0f fa ee       	psubd  %xmm14,%xmm5
    3e02:	66 0f 6f c5          	movdqa %xmm5,%xmm0
    3e06:	66 0f 72 f0 02       	pslld  $0x2,%xmm0
    3e0b:	66 0f fe e8          	paddd  %xmm0,%xmm5
    3e0f:	66 41 0f 6f c5       	movdqa %xmm13,%xmm0
    3e14:	66 0f 72 f0 06       	pslld  $0x6,%xmm0
    3e19:	66 0f 72 d5 1c       	psrld  $0x1c,%xmm5
    3e1e:	66 44 0f 6f f0       	movdqa %xmm0,%xmm14
    3e23:	66 0f 6f c5          	movdqa %xmm5,%xmm0
    3e27:	66 45 0f fa f5       	psubd  %xmm13,%xmm14
    3e2c:	66 41 0f 72 f6 08    	pslld  $0x8,%xmm14
    3e32:	66 45 0f fa f5       	psubd  %xmm13,%xmm14
    3e37:	66 45 0f 6f ee       	movdqa %xmm14,%xmm13
    3e3c:	66 41 0f 72 f5 02    	pslld  $0x2,%xmm13
    3e42:	66 45 0f fe ee       	paddd  %xmm14,%xmm13
    3e47:	66 41 0f 72 d5 1c    	psrld  $0x1c,%xmm13
    3e4d:	66 41 0f 69 c5       	punpckhwd %xmm13,%xmm0
    3e52:	66 44 0f 6f f0       	movdqa %xmm0,%xmm14
    3e57:	66 0f 6f c5          	movdqa %xmm5,%xmm0
    3e5b:	66 41 0f 61 c5       	punpcklwd %xmm13,%xmm0
    3e60:	66 45 0f 6f ec       	movdqa %xmm12,%xmm13
    3e65:	66 44 0f 6f f8       	movdqa %xmm0,%xmm15
    3e6a:	66 41 0f 69 c6       	punpckhwd %xmm14,%xmm0
    3e6f:	66 45 0f 61 fe       	punpcklwd %xmm14,%xmm15
    3e74:	66 44 0f 61 f8       	punpcklwd %xmm0,%xmm15
    3e79:	66 0f ef c0          	pxor   %xmm0,%xmm0
    3e7d:	66 41 0f 65 c4       	pcmpgtw %xmm12,%xmm0
    3e82:	66 44 0f 61 e8       	punpcklwd %xmm0,%xmm13
    3e87:	66 44 0f 6f f0       	movdqa %xmm0,%xmm14
    3e8c:	66 41 0f 72 f5 01    	pslld  $0x1,%xmm13
    3e92:	66 45 0f 69 e6       	punpckhwd %xmm14,%xmm12
    3e97:	66 44 0f fe 2d f0 71 	paddd  0x71f0(%rip),%xmm13        # b090 <_IO_stdin_used+0x90>
    3e9e:	00 00 
    3ea0:	66 41 0f 72 f4 01    	pslld  $0x1,%xmm12
    3ea6:	66 44 0f fe 25 e1 71 	paddd  0x71e1(%rip),%xmm12        # b090 <_IO_stdin_used+0x90>
    3ead:	00 00 
    3eaf:	66 41 0f 6f c5       	movdqa %xmm13,%xmm0
    3eb4:	66 0f 72 f0 06       	pslld  $0x6,%xmm0
    3eb9:	66 0f 6f e8          	movdqa %xmm0,%xmm5
    3ebd:	66 41 0f fa ed       	psubd  %xmm13,%xmm5
    3ec2:	66 0f 72 f5 08       	pslld  $0x8,%xmm5
    3ec7:	66 41 0f fa ed       	psubd  %xmm13,%xmm5
    3ecc:	66 44 0f 6f ed       	movdqa %xmm5,%xmm13
    3ed1:	66 41 0f 72 f5 02    	pslld  $0x2,%xmm13
    3ed7:	66 41 0f fe ed       	paddd  %xmm13,%xmm5
    3edc:	66 45 0f 6f ec       	movdqa %xmm12,%xmm13
    3ee1:	66 41 0f 72 f5 06    	pslld  $0x6,%xmm13
    3ee7:	66 0f 72 d5 1c       	psrld  $0x1c,%xmm5
    3eec:	66 45 0f fa ec       	psubd  %xmm12,%xmm13
    3ef1:	66 41 0f 72 f5 08    	pslld  $0x8,%xmm13
    3ef7:	66 45 0f fa ec       	psubd  %xmm12,%xmm13
    3efc:	66 45 0f 6f e5       	movdqa %xmm13,%xmm12
    3f01:	66 41 0f 72 f4 02    	pslld  $0x2,%xmm12
    3f07:	66 45 0f fe ec       	paddd  %xmm12,%xmm13
    3f0c:	66 44 0f 6f e5       	movdqa %xmm5,%xmm12
    3f11:	66 41 0f 72 d5 1c    	psrld  $0x1c,%xmm13
    3f17:	66 41 0f 61 ed       	punpcklwd %xmm13,%xmm5
    3f1c:	66 45 0f 69 e5       	punpckhwd %xmm13,%xmm12
    3f21:	66 44 0f 6f ed       	movdqa %xmm5,%xmm13
    3f26:	66 41 0f 61 ec       	punpcklwd %xmm12,%xmm5
    3f2b:	66 45 0f 69 ec       	punpckhwd %xmm12,%xmm13
    3f30:	66 44 0f 6f 25 67 71 	movdqa 0x7167(%rip),%xmm12        # b0a0 <_IO_stdin_used+0xa0>
    3f37:	00 00 
    3f39:	66 41 0f 61 ed       	punpcklwd %xmm13,%xmm5
    3f3e:	66 0f db 2d 5a 71 00 	pand   0x715a(%rip),%xmm5        # b0a0 <_IO_stdin_used+0xa0>
    3f45:	00 
    3f46:	66 45 0f ef ed       	pxor   %xmm13,%xmm13
    3f4b:	66 45 0f db e7       	pand   %xmm15,%xmm12
    3f50:	66 45 0f 65 eb       	pcmpgtw %xmm11,%xmm13
    3f55:	66 44 0f 67 e5       	packuswb %xmm5,%xmm12
    3f5a:	66 45 0f fc e4       	paddb  %xmm12,%xmm12
    3f5f:	66 44 0f db 25 48 71 	pand   0x7148(%rip),%xmm12        # b0b0 <_IO_stdin_used+0xb0>
    3f66:	00 00 
    3f68:	66 45 0f 6f f4       	movdqa %xmm12,%xmm14
    3f6d:	66 45 0f 6f e3       	movdqa %xmm11,%xmm12
    3f72:	66 45 0f 69 dd       	punpckhwd %xmm13,%xmm11
    3f77:	66 45 0f 61 e5       	punpcklwd %xmm13,%xmm12
    3f7c:	66 41 0f 72 f3 01    	pslld  $0x1,%xmm11
    3f82:	66 44 0f fe 1d 05 71 	paddd  0x7105(%rip),%xmm11        # b090 <_IO_stdin_used+0x90>
    3f89:	00 00 
    3f8b:	66 41 0f 72 f4 01    	pslld  $0x1,%xmm12
    3f91:	66 44 0f fe 25 f6 70 	paddd  0x70f6(%rip),%xmm12        # b090 <_IO_stdin_used+0x90>
    3f98:	00 00 
    3f9a:	66 41 0f 6f c4       	movdqa %xmm12,%xmm0
    3f9f:	66 0f 72 f0 06       	pslld  $0x6,%xmm0
    3fa4:	66 0f 6f e8          	movdqa %xmm0,%xmm5
    3fa8:	66 41 0f fa ec       	psubd  %xmm12,%xmm5
    3fad:	66 0f 72 f5 08       	pslld  $0x8,%xmm5
    3fb2:	66 41 0f fa ec       	psubd  %xmm12,%xmm5
    3fb7:	66 44 0f 6f e5       	movdqa %xmm5,%xmm12
    3fbc:	66 41 0f 72 f4 02    	pslld  $0x2,%xmm12
    3fc2:	66 41 0f fe ec       	paddd  %xmm12,%xmm5
    3fc7:	66 45 0f 6f e3       	movdqa %xmm11,%xmm12
    3fcc:	66 41 0f 72 f3 06    	pslld  $0x6,%xmm11
    3fd2:	66 0f 72 d5 1c       	psrld  $0x1c,%xmm5
    3fd7:	66 45 0f fa dc       	psubd  %xmm12,%xmm11
    3fdc:	66 44 0f 6f ed       	movdqa %xmm5,%xmm13
    3fe1:	66 41 0f 72 f3 08    	pslld  $0x8,%xmm11
    3fe7:	66 45 0f fa dc       	psubd  %xmm12,%xmm11
    3fec:	66 45 0f 6f e3       	movdqa %xmm11,%xmm12
    3ff1:	66 41 0f 72 f4 02    	pslld  $0x2,%xmm12
    3ff7:	66 45 0f fe dc       	paddd  %xmm12,%xmm11
    3ffc:	66 44 0f 6f e5       	movdqa %xmm5,%xmm12
    4001:	66 41 0f 72 d3 1c    	psrld  $0x1c,%xmm11
    4007:	66 45 0f 61 eb       	punpcklwd %xmm11,%xmm13
    400c:	66 45 0f 69 e3       	punpckhwd %xmm11,%xmm12
    4011:	66 45 0f 6f da       	movdqa %xmm10,%xmm11
    4016:	66 41 0f 6f c5       	movdqa %xmm13,%xmm0
    401b:	66 45 0f 61 ec       	punpcklwd %xmm12,%xmm13
    4020:	66 41 0f 69 c4       	punpckhwd %xmm12,%xmm0
    4025:	66 45 0f ef e4       	pxor   %xmm12,%xmm12
    402a:	66 45 0f 65 e2       	pcmpgtw %xmm10,%xmm12
    402f:	66 44 0f 61 e8       	punpcklwd %xmm0,%xmm13
    4034:	66 44 0f db 2d 63 70 	pand   0x7063(%rip),%xmm13        # b0a0 <_IO_stdin_used+0xa0>
    403b:	00 00 
    403d:	66 45 0f 61 dc       	punpcklwd %xmm12,%xmm11
    4042:	66 45 0f 69 d4       	punpckhwd %xmm12,%xmm10
    4047:	66 45 0f 6f e1       	movdqa %xmm9,%xmm12
    404c:	66 41 0f 72 f3 01    	pslld  $0x1,%xmm11
    4052:	66 41 0f 72 f2 01    	pslld  $0x1,%xmm10
    4058:	66 44 0f fe 1d 2f 70 	paddd  0x702f(%rip),%xmm11        # b090 <_IO_stdin_used+0x90>
    405f:	00 00 
    4061:	66 44 0f fe 15 26 70 	paddd  0x7026(%rip),%xmm10        # b090 <_IO_stdin_used+0x90>
    4068:	00 00 
    406a:	66 41 0f 6f c3       	movdqa %xmm11,%xmm0
    406f:	66 0f 72 f0 06       	pslld  $0x6,%xmm0
    4074:	66 0f 6f e8          	movdqa %xmm0,%xmm5
    4078:	66 41 0f fa eb       	psubd  %xmm11,%xmm5
    407d:	66 0f 72 f5 08       	pslld  $0x8,%xmm5
    4082:	66 41 0f fa eb       	psubd  %xmm11,%xmm5
    4087:	66 44 0f 6f dd       	movdqa %xmm5,%xmm11
    408c:	66 41 0f 72 f3 02    	pslld  $0x2,%xmm11
    4092:	66 41 0f fe eb       	paddd  %xmm11,%xmm5
    4097:	66 45 0f 6f da       	movdqa %xmm10,%xmm11
    409c:	66 41 0f 72 f3 06    	pslld  $0x6,%xmm11
    40a2:	66 0f 72 d5 1c       	psrld  $0x1c,%xmm5
    40a7:	66 45 0f fa da       	psubd  %xmm10,%xmm11
    40ac:	66 41 0f 72 f3 08    	pslld  $0x8,%xmm11
    40b2:	66 45 0f fa da       	psubd  %xmm10,%xmm11
    40b7:	66 45 0f 6f d3       	movdqa %xmm11,%xmm10
    40bc:	66 41 0f 72 f2 02    	pslld  $0x2,%xmm10
    40c2:	66 45 0f fe d3       	paddd  %xmm11,%xmm10
    40c7:	66 44 0f 6f dd       	movdqa %xmm5,%xmm11
    40cc:	66 41 0f 72 d2 1c    	psrld  $0x1c,%xmm10
    40d2:	66 41 0f 61 ea       	punpcklwd %xmm10,%xmm5
    40d7:	66 45 0f 69 da       	punpckhwd %xmm10,%xmm11
    40dc:	66 44 0f 6f d5       	movdqa %xmm5,%xmm10
    40e1:	66 41 0f 61 eb       	punpcklwd %xmm11,%xmm5
    40e6:	66 45 0f 69 d3       	punpckhwd %xmm11,%xmm10
    40eb:	66 45 0f ef db       	pxor   %xmm11,%xmm11
    40f0:	66 45 0f 65 d9       	pcmpgtw %xmm9,%xmm11
    40f5:	66 41 0f 61 ea       	punpcklwd %xmm10,%xmm5
    40fa:	66 45 0f 6f d5       	movdqa %xmm13,%xmm10
    40ff:	66 0f db 2d 99 6f 00 	pand   0x6f99(%rip),%xmm5        # b0a0 <_IO_stdin_used+0xa0>
    4106:	00 
    4107:	66 45 0f 61 e3       	punpcklwd %xmm11,%xmm12
    410c:	66 45 0f 69 cb       	punpckhwd %xmm11,%xmm9
    4111:	66 44 0f 67 d5       	packuswb %xmm5,%xmm10
    4116:	66 41 0f 72 f4 01    	pslld  $0x1,%xmm12
    411c:	66 41 0f 72 f1 01    	pslld  $0x1,%xmm9
    4122:	66 44 0f fe 25 65 6f 	paddd  0x6f65(%rip),%xmm12        # b090 <_IO_stdin_used+0x90>
    4129:	00 00 
    412b:	66 44 0f fe 0d 5c 6f 	paddd  0x6f5c(%rip),%xmm9        # b090 <_IO_stdin_used+0x90>
    4132:	00 00 
    4134:	66 44 0f db 15 d3 6e 	pand   0x6ed3(%rip),%xmm10        # b010 <_IO_stdin_used+0x10>
    413b:	00 00 
    413d:	66 41 0f 6f c4       	movdqa %xmm12,%xmm0
    4142:	66 0f 72 f0 06       	pslld  $0x6,%xmm0
    4147:	66 45 0f 6f d9       	movdqa %xmm9,%xmm11
    414c:	66 45 0f eb d6       	por    %xmm14,%xmm10
    4151:	66 0f 6f e8          	movdqa %xmm0,%xmm5
    4155:	66 41 0f 72 f3 06    	pslld  $0x6,%xmm11
    415b:	66 41 0f fa ec       	psubd  %xmm12,%xmm5
    4160:	66 45 0f fa d9       	psubd  %xmm9,%xmm11
    4165:	66 0f 72 f5 08       	pslld  $0x8,%xmm5
    416a:	66 41 0f 72 f3 08    	pslld  $0x8,%xmm11
    4170:	66 45 0f fa d9       	psubd  %xmm9,%xmm11
    4175:	66 41 0f fa ec       	psubd  %xmm12,%xmm5
    417a:	66 44 0f 6f e5       	movdqa %xmm5,%xmm12
    417f:	66 45 0f 6f cb       	movdqa %xmm11,%xmm9
    4184:	66 41 0f 72 f4 02    	pslld  $0x2,%xmm12
    418a:	66 41 0f 72 f1 02    	pslld  $0x2,%xmm9
    4190:	66 41 0f fe ec       	paddd  %xmm12,%xmm5
    4195:	66 45 0f fe cb       	paddd  %xmm11,%xmm9
    419a:	66 45 0f 6f e0       	movdqa %xmm8,%xmm12
    419f:	66 41 0f 72 d1 1c    	psrld  $0x1c,%xmm9
    41a5:	66 0f 72 d5 1c       	psrld  $0x1c,%xmm5
    41aa:	66 44 0f 6f dd       	movdqa %xmm5,%xmm11
    41af:	66 41 0f 61 e9       	punpcklwd %xmm9,%xmm5
    41b4:	66 45 0f 69 d9       	punpckhwd %xmm9,%xmm11
    41b9:	66 44 0f 6f cd       	movdqa %xmm5,%xmm9
    41be:	66 45 0f 69 cb       	punpckhwd %xmm11,%xmm9
    41c3:	66 41 0f 61 eb       	punpcklwd %xmm11,%xmm5
    41c8:	66 45 0f ef db       	pxor   %xmm11,%xmm11
    41cd:	66 45 0f 65 d8       	pcmpgtw %xmm8,%xmm11
    41d2:	66 41 0f 61 e9       	punpcklwd %xmm9,%xmm5
    41d7:	66 0f db 2d c1 6e 00 	pand   0x6ec1(%rip),%xmm5        # b0a0 <_IO_stdin_used+0xa0>
    41de:	00 
    41df:	66 45 0f 61 e3       	punpcklwd %xmm11,%xmm12
    41e4:	66 45 0f 69 c3       	punpckhwd %xmm11,%xmm8
    41e9:	66 41 0f 72 f4 01    	pslld  $0x1,%xmm12
    41ef:	66 41 0f 72 f0 01    	pslld  $0x1,%xmm8
    41f5:	66 44 0f fe 25 92 6e 	paddd  0x6e92(%rip),%xmm12        # b090 <_IO_stdin_used+0x90>
    41fc:	00 00 
    41fe:	66 44 0f fe 05 89 6e 	paddd  0x6e89(%rip),%xmm8        # b090 <_IO_stdin_used+0x90>
    4205:	00 00 
    4207:	66 45 0f 6f cc       	movdqa %xmm12,%xmm9
    420c:	66 45 0f 6f d8       	movdqa %xmm8,%xmm11
    4211:	66 41 0f 72 f1 06    	pslld  $0x6,%xmm9
    4217:	66 41 0f 72 f3 06    	pslld  $0x6,%xmm11
    421d:	66 45 0f fa cc       	psubd  %xmm12,%xmm9
    4222:	66 45 0f fa d8       	psubd  %xmm8,%xmm11
    4227:	66 41 0f 72 f1 08    	pslld  $0x8,%xmm9
    422d:	66 41 0f 72 f3 08    	pslld  $0x8,%xmm11
    4233:	66 45 0f fa cc       	psubd  %xmm12,%xmm9
    4238:	66 45 0f fa d8       	psubd  %xmm8,%xmm11
    423d:	66 45 0f 6f e1       	movdqa %xmm9,%xmm12
    4242:	66 45 0f 6f c3       	movdqa %xmm11,%xmm8
    4247:	66 41 0f 72 f4 02    	pslld  $0x2,%xmm12
    424d:	66 41 0f 72 f0 02    	pslld  $0x2,%xmm8
    4253:	66 45 0f fe cc       	paddd  %xmm12,%xmm9
    4258:	66 45 0f fe c3       	paddd  %xmm11,%xmm8
    425d:	66 41 0f 72 d1 1c    	psrld  $0x1c,%xmm9
    4263:	66 41 0f 72 d0 1c    	psrld  $0x1c,%xmm8
    4269:	66 45 0f 6f d9       	movdqa %xmm9,%xmm11
    426e:	66 45 0f 61 c8       	punpcklwd %xmm8,%xmm9
    4273:	66 45 0f 69 d8       	punpckhwd %xmm8,%xmm11
    4278:	66 45 0f 6f c1       	movdqa %xmm9,%xmm8
    427d:	66 45 0f 61 cb       	punpcklwd %xmm11,%xmm9
    4282:	66 45 0f 69 c3       	punpckhwd %xmm11,%xmm8
    4287:	66 45 0f 61 c8       	punpcklwd %xmm8,%xmm9
    428c:	66 45 0f 6f c2       	movdqa %xmm10,%xmm8
    4291:	66 44 0f 6f d7       	movdqa %xmm7,%xmm10
    4296:	66 44 0f db 0d 01 6e 	pand   0x6e01(%rip),%xmm9        # b0a0 <_IO_stdin_used+0xa0>
    429d:	00 00 
    429f:	66 41 0f 67 e9       	packuswb %xmm9,%xmm5
    42a4:	66 45 0f ef c9       	pxor   %xmm9,%xmm9
    42a9:	66 44 0f 65 cf       	pcmpgtw %xmm7,%xmm9
    42ae:	66 0f fc ed          	paddb  %xmm5,%xmm5
    42b2:	66 0f fc ed          	paddb  %xmm5,%xmm5
    42b6:	66 0f db 2d 02 6e 00 	pand   0x6e02(%rip),%xmm5        # b0c0 <_IO_stdin_used+0xc0>
    42bd:	00 
    42be:	66 45 0f 61 d1       	punpcklwd %xmm9,%xmm10
    42c3:	66 41 0f 69 f9       	punpckhwd %xmm9,%xmm7
    42c8:	66 44 0f eb c5       	por    %xmm5,%xmm8
    42cd:	66 41 0f 72 f2 01    	pslld  $0x1,%xmm10
    42d3:	66 0f 72 f7 01       	pslld  $0x1,%xmm7
    42d8:	66 44 0f fe 15 af 6d 	paddd  0x6daf(%rip),%xmm10        # b090 <_IO_stdin_used+0x90>
    42df:	00 00 
    42e1:	66 0f fe 3d a7 6d 00 	paddd  0x6da7(%rip),%xmm7        # b090 <_IO_stdin_used+0x90>
    42e8:	00 
    42e9:	66 41 0f 6f c2       	movdqa %xmm10,%xmm0
    42ee:	66 44 0f 6f cf       	movdqa %xmm7,%xmm9
    42f3:	66 0f 72 f0 06       	pslld  $0x6,%xmm0
    42f8:	66 41 0f 72 f1 06    	pslld  $0x6,%xmm9
    42fe:	66 0f 6f e8          	movdqa %xmm0,%xmm5
    4302:	66 44 0f fa cf       	psubd  %xmm7,%xmm9
    4307:	66 41 0f fa ea       	psubd  %xmm10,%xmm5
    430c:	66 41 0f 72 f1 08    	pslld  $0x8,%xmm9
    4312:	66 0f 72 f5 08       	pslld  $0x8,%xmm5
    4317:	66 44 0f fa cf       	psubd  %xmm7,%xmm9
    431c:	66 41 0f fa ea       	psubd  %xmm10,%xmm5
    4321:	66 41 0f 6f c1       	movdqa %xmm9,%xmm0
    4326:	66 44 0f 6f d5       	movdqa %xmm5,%xmm10
    432b:	66 0f 72 f0 02       	pslld  $0x2,%xmm0
    4330:	66 41 0f 72 f2 02    	pslld  $0x2,%xmm10
    4336:	66 0f 6f f8          	movdqa %xmm0,%xmm7
    433a:	66 41 0f fe ea       	paddd  %xmm10,%xmm5
    433f:	66 44 0f 6f d6       	movdqa %xmm6,%xmm10
    4344:	66 41 0f fe f9       	paddd  %xmm9,%xmm7
    4349:	66 0f 72 d5 1c       	psrld  $0x1c,%xmm5
    434e:	66 0f 72 d7 1c       	psrld  $0x1c,%xmm7
    4353:	66 44 0f 6f cd       	movdqa %xmm5,%xmm9
    4358:	66 0f 61 ef          	punpcklwd %xmm7,%xmm5
    435c:	66 44 0f 69 cf       	punpckhwd %xmm7,%xmm9
    4361:	66 0f 6f c5          	movdqa %xmm5,%xmm0
    4365:	66 41 0f 61 e9       	punpcklwd %xmm9,%xmm5
    436a:	66 41 0f 69 c1       	punpckhwd %xmm9,%xmm0
    436f:	66 45 0f ef c9       	pxor   %xmm9,%xmm9
    4374:	66 44 0f 65 ce       	pcmpgtw %xmm6,%xmm9
    4379:	66 0f 61 e8          	punpcklwd %xmm0,%xmm5
    437d:	66 0f db 2d 1b 6d 00 	pand   0x6d1b(%rip),%xmm5        # b0a0 <_IO_stdin_used+0xa0>
    4384:	00 
    4385:	66 45 0f 61 d1       	punpcklwd %xmm9,%xmm10
    438a:	66 41 0f 69 f1       	punpckhwd %xmm9,%xmm6
    438f:	66 41 0f 72 f2 01    	pslld  $0x1,%xmm10
    4395:	66 0f 72 f6 01       	pslld  $0x1,%xmm6
    439a:	66 44 0f fe 15 ed 6c 	paddd  0x6ced(%rip),%xmm10        # b090 <_IO_stdin_used+0x90>
    43a1:	00 00 
    43a3:	66 0f fe 35 e5 6c 00 	paddd  0x6ce5(%rip),%xmm6        # b090 <_IO_stdin_used+0x90>
    43aa:	00 
    43ab:	66 41 0f 6f c2       	movdqa %xmm10,%xmm0
    43b0:	66 44 0f 6f ce       	movdqa %xmm6,%xmm9
    43b5:	66 0f 72 f0 06       	pslld  $0x6,%xmm0
    43ba:	66 41 0f 72 f1 06    	pslld  $0x6,%xmm9
    43c0:	66 0f 6f f8          	movdqa %xmm0,%xmm7
    43c4:	66 44 0f fa ce       	psubd  %xmm6,%xmm9
    43c9:	66 41 0f fa fa       	psubd  %xmm10,%xmm7
    43ce:	66 41 0f 72 f1 08    	pslld  $0x8,%xmm9
    43d4:	66 0f 72 f7 08       	pslld  $0x8,%xmm7
    43d9:	66 44 0f fa ce       	psubd  %xmm6,%xmm9
    43de:	66 41 0f fa fa       	psubd  %xmm10,%xmm7
    43e3:	66 41 0f 6f c1       	movdqa %xmm9,%xmm0
    43e8:	66 44 0f 6f d7       	movdqa %xmm7,%xmm10
    43ed:	66 0f 72 f0 02       	pslld  $0x2,%xmm0
    43f2:	66 41 0f 72 f2 02    	pslld  $0x2,%xmm10
    43f8:	66 0f 6f f0          	movdqa %xmm0,%xmm6
    43fc:	66 41 0f fe fa       	paddd  %xmm10,%xmm7
    4401:	66 41 0f fe f1       	paddd  %xmm9,%xmm6
    4406:	66 0f 72 d7 1c       	psrld  $0x1c,%xmm7
    440b:	66 0f 72 d6 1c       	psrld  $0x1c,%xmm6
    4410:	66 44 0f 6f cf       	movdqa %xmm7,%xmm9
    4415:	66 0f 61 fe          	punpcklwd %xmm6,%xmm7
    4419:	66 44 0f 69 ce       	punpckhwd %xmm6,%xmm9
    441e:	66 0f 6f c7          	movdqa %xmm7,%xmm0
    4422:	66 41 0f 61 f9       	punpcklwd %xmm9,%xmm7
    4427:	66 41 0f 69 c1       	punpckhwd %xmm9,%xmm0
    442c:	66 0f 61 f8          	punpcklwd %xmm0,%xmm7
    4430:	66 0f db 3d 68 6c 00 	pand   0x6c68(%rip),%xmm7        # b0a0 <_IO_stdin_used+0xa0>
    4437:	00 
    4438:	66 0f ef c0          	pxor   %xmm0,%xmm0
    443c:	66 0f 65 c4          	pcmpgtw %xmm4,%xmm0
    4440:	66 0f 67 ef          	packuswb %xmm7,%xmm5
    4444:	66 0f fc ed          	paddb  %xmm5,%xmm5
    4448:	66 0f fc ed          	paddb  %xmm5,%xmm5
    444c:	66 0f 6f f8          	movdqa %xmm0,%xmm7
    4450:	66 0f fc ed          	paddb  %xmm5,%xmm5
    4454:	66 0f db 2d 74 6c 00 	pand   0x6c74(%rip),%xmm5        # b0d0 <_IO_stdin_used+0xd0>
    445b:	00 
    445c:	66 41 0f eb e8       	por    %xmm8,%xmm5
    4461:	66 44 0f 6f c4       	movdqa %xmm4,%xmm8
    4466:	66 0f 69 e7          	punpckhwd %xmm7,%xmm4
    446a:	66 44 0f 61 c0       	punpcklwd %xmm0,%xmm8
    446f:	66 0f 72 f4 01       	pslld  $0x1,%xmm4
    4474:	66 41 0f 72 f0 01    	pslld  $0x1,%xmm8
    447a:	66 44 0f fe 05 0d 6c 	paddd  0x6c0d(%rip),%xmm8        # b090 <_IO_stdin_used+0x90>
    4481:	00 00 
    4483:	66 0f fe 25 05 6c 00 	paddd  0x6c05(%rip),%xmm4        # b090 <_IO_stdin_used+0x90>
    448a:	00 
    448b:	66 41 0f 6f c0       	movdqa %xmm8,%xmm0
    4490:	66 0f 72 f0 06       	pslld  $0x6,%xmm0
    4495:	66 0f 6f f0          	movdqa %xmm0,%xmm6
    4499:	66 0f 6f c4          	movdqa %xmm4,%xmm0
    449d:	66 0f 72 f0 06       	pslld  $0x6,%xmm0
    44a2:	66 41 0f fa f0       	psubd  %xmm8,%xmm6
    44a7:	66 0f 6f f8          	movdqa %xmm0,%xmm7
    44ab:	66 0f 72 f6 08       	pslld  $0x8,%xmm6
    44b0:	66 0f fa fc          	psubd  %xmm4,%xmm7
    44b4:	66 41 0f fa f0       	psubd  %xmm8,%xmm6
    44b9:	66 0f 72 f7 08       	pslld  $0x8,%xmm7
    44be:	66 44 0f 6f c6       	movdqa %xmm6,%xmm8
    44c3:	66 0f fa fc          	psubd  %xmm4,%xmm7
    44c7:	66 41 0f 72 f0 02    	pslld  $0x2,%xmm8
    44cd:	66 0f 6f e7          	movdqa %xmm7,%xmm4
    44d1:	66 41 0f fe f0       	paddd  %xmm8,%xmm6
    44d6:	66 45 0f ef c0       	pxor   %xmm8,%xmm8
    44db:	66 0f 72 f4 02       	pslld  $0x2,%xmm4
    44e0:	66 0f 72 d6 1c       	psrld  $0x1c,%xmm6
    44e5:	66 0f fe e7          	paddd  %xmm7,%xmm4
    44e9:	66 44 0f 65 c3       	pcmpgtw %xmm3,%xmm8
    44ee:	66 0f 6f c6          	movdqa %xmm6,%xmm0
    44f2:	66 0f 72 d4 1c       	psrld  $0x1c,%xmm4
    44f7:	66 0f 61 f4          	punpcklwd %xmm4,%xmm6
    44fb:	66 0f 69 c4          	punpckhwd %xmm4,%xmm0
    44ff:	66 0f 6f e6          	movdqa %xmm6,%xmm4
    4503:	66 0f 61 f0          	punpcklwd %xmm0,%xmm6
    4507:	66 0f 69 e0          	punpckhwd %xmm0,%xmm4
    450b:	66 0f 61 f4          	punpcklwd %xmm4,%xmm6
    450f:	66 0f 6f e3          	movdqa %xmm3,%xmm4
    4513:	66 41 0f 61 e0       	punpcklwd %xmm8,%xmm4
    4518:	66 0f 72 f4 01       	pslld  $0x1,%xmm4
    451d:	66 0f fe 25 6b 6b 00 	paddd  0x6b6b(%rip),%xmm4        # b090 <_IO_stdin_used+0x90>
    4524:	00 
    4525:	66 0f 6f c4          	movdqa %xmm4,%xmm0
    4529:	66 0f 72 f0 06       	pslld  $0x6,%xmm0
    452e:	66 0f 6f f8          	movdqa %xmm0,%xmm7
    4532:	66 0f fa fc          	psubd  %xmm4,%xmm7
    4536:	66 0f 72 f7 08       	pslld  $0x8,%xmm7
    453b:	66 0f fa fc          	psubd  %xmm4,%xmm7
    453f:	66 0f 6f e7          	movdqa %xmm7,%xmm4
    4543:	66 0f 72 f4 02       	pslld  $0x2,%xmm4
    4548:	66 0f fe fc          	paddd  %xmm4,%xmm7
    454c:	66 0f 6f e3          	movdqa %xmm3,%xmm4
    4550:	66 41 0f 69 e0       	punpckhwd %xmm8,%xmm4
    4555:	66 0f 72 d7 1c       	psrld  $0x1c,%xmm7
    455a:	66 0f 72 f4 01       	pslld  $0x1,%xmm4
    455f:	66 0f fe 25 29 6b 00 	paddd  0x6b29(%rip),%xmm4        # b090 <_IO_stdin_used+0x90>
    4566:	00 
    4567:	66 0f 6f dc          	movdqa %xmm4,%xmm3
    456b:	66 0f 72 f3 06       	pslld  $0x6,%xmm3
    4570:	66 0f fa dc          	psubd  %xmm4,%xmm3
    4574:	66 0f 72 f3 08       	pslld  $0x8,%xmm3
    4579:	66 0f fa dc          	psubd  %xmm4,%xmm3
    457d:	66 0f 6f e3          	movdqa %xmm3,%xmm4
    4581:	66 0f 72 f4 02       	pslld  $0x2,%xmm4
    4586:	66 0f fe dc          	paddd  %xmm4,%xmm3
    458a:	66 0f 6f e7          	movdqa %xmm7,%xmm4
    458e:	66 0f 72 d3 1c       	psrld  $0x1c,%xmm3
    4593:	66 0f 61 fb          	punpcklwd %xmm3,%xmm7
    4597:	66 0f 69 e3          	punpckhwd %xmm3,%xmm4
    459b:	66 0f 6f df          	movdqa %xmm7,%xmm3
    459f:	66 0f 61 fc          	punpcklwd %xmm4,%xmm7
    45a3:	66 0f 69 dc          	punpckhwd %xmm4,%xmm3
    45a7:	66 0f ef e4          	pxor   %xmm4,%xmm4
    45ab:	66 0f 61 fb          	punpcklwd %xmm3,%xmm7
    45af:	66 0f 6f 1d e9 6a 00 	movdqa 0x6ae9(%rip),%xmm3        # b0a0 <_IO_stdin_used+0xa0>
    45b6:	00 
    45b7:	66 0f db 3d e1 6a 00 	pand   0x6ae1(%rip),%xmm7        # b0a0 <_IO_stdin_used+0xa0>
    45be:	00 
    45bf:	66 0f 65 e2          	pcmpgtw %xmm2,%xmm4
    45c3:	66 0f db de          	pand   %xmm6,%xmm3
    45c7:	66 0f 67 df          	packuswb %xmm7,%xmm3
    45cb:	66 0f 6f 7c 24 c8    	movdqa -0x38(%rsp),%xmm7
    45d1:	66 0f fc db          	paddb  %xmm3,%xmm3
    45d5:	66 0f 6f f4          	movdqa %xmm4,%xmm6
    45d9:	66 0f 6f e2          	movdqa %xmm2,%xmm4
    45dd:	66 0f fc db          	paddb  %xmm3,%xmm3
    45e1:	66 0f 61 e6          	punpcklwd %xmm6,%xmm4
    45e5:	66 0f 69 d6          	punpckhwd %xmm6,%xmm2
    45e9:	66 0f fc db          	paddb  %xmm3,%xmm3
    45ed:	66 0f 72 f2 01       	pslld  $0x1,%xmm2
    45f2:	66 0f fe 15 96 6a 00 	paddd  0x6a96(%rip),%xmm2        # b090 <_IO_stdin_used+0x90>
    45f9:	00 
    45fa:	66 0f fc db          	paddb  %xmm3,%xmm3
    45fe:	66 0f db 1d da 6a 00 	pand   0x6ada(%rip),%xmm3        # b0e0 <_IO_stdin_used+0xe0>
    4605:	00 
    4606:	66 0f eb dd          	por    %xmm5,%xmm3
    460a:	66 0f 6f ec          	movdqa %xmm4,%xmm5
    460e:	66 0f 72 f5 01       	pslld  $0x1,%xmm5
    4613:	66 0f fe 2d 75 6a 00 	paddd  0x6a75(%rip),%xmm5        # b090 <_IO_stdin_used+0x90>
    461a:	00 
    461b:	66 0f 6f e5          	movdqa %xmm5,%xmm4
    461f:	66 0f 72 f4 06       	pslld  $0x6,%xmm4
    4624:	66 0f fa e5          	psubd  %xmm5,%xmm4
    4628:	66 0f 72 f4 08       	pslld  $0x8,%xmm4
    462d:	66 0f fa e5          	psubd  %xmm5,%xmm4
    4631:	66 0f 6f c4          	movdqa %xmm4,%xmm0
    4635:	66 0f 72 f0 02       	pslld  $0x2,%xmm0
    463a:	66 0f fe e0          	paddd  %xmm0,%xmm4
    463e:	66 0f 6f c2          	movdqa %xmm2,%xmm0
    4642:	66 0f 72 f0 06       	pslld  $0x6,%xmm0
    4647:	66 0f 72 d4 1c       	psrld  $0x1c,%xmm4
    464c:	66 0f 6f e8          	movdqa %xmm0,%xmm5
    4650:	66 0f 6f c4          	movdqa %xmm4,%xmm0
    4654:	66 0f fa ea          	psubd  %xmm2,%xmm5
    4658:	66 0f 72 f5 08       	pslld  $0x8,%xmm5
    465d:	66 0f fa ea          	psubd  %xmm2,%xmm5
    4661:	66 0f 6f d5          	movdqa %xmm5,%xmm2
    4665:	66 0f 72 f2 02       	pslld  $0x2,%xmm2
    466a:	66 0f fe d5          	paddd  %xmm5,%xmm2
    466e:	66 0f 72 d2 1c       	psrld  $0x1c,%xmm2
    4673:	66 0f 61 e2          	punpcklwd %xmm2,%xmm4
    4677:	66 0f 69 c2          	punpckhwd %xmm2,%xmm0
    467b:	66 0f 6f d4          	movdqa %xmm4,%xmm2
    467f:	66 0f 61 e0          	punpcklwd %xmm0,%xmm4
    4683:	66 0f 69 d0          	punpckhwd %xmm0,%xmm2
    4687:	66 0f 61 e2          	punpcklwd %xmm2,%xmm4
    468b:	66 0f ef d2          	pxor   %xmm2,%xmm2
    468f:	66 0f db 25 09 6a 00 	pand   0x6a09(%rip),%xmm4        # b0a0 <_IO_stdin_used+0xa0>
    4696:	00 
    4697:	66 0f 65 d1          	pcmpgtw %xmm1,%xmm2
    469b:	66 0f 6f f2          	movdqa %xmm2,%xmm6
    469f:	66 0f 6f d1          	movdqa %xmm1,%xmm2
    46a3:	66 0f 61 d6          	punpcklwd %xmm6,%xmm2
    46a7:	66 0f 72 f2 01       	pslld  $0x1,%xmm2
    46ac:	66 0f fe 15 dc 69 00 	paddd  0x69dc(%rip),%xmm2        # b090 <_IO_stdin_used+0x90>
    46b3:	00 
    46b4:	66 0f 6f c2          	movdqa %xmm2,%xmm0
    46b8:	66 0f 72 f0 06       	pslld  $0x6,%xmm0
    46bd:	66 0f 6f e8          	movdqa %xmm0,%xmm5
    46c1:	66 0f fa ea          	psubd  %xmm2,%xmm5
    46c5:	66 0f 72 f5 08       	pslld  $0x8,%xmm5
    46ca:	66 0f fa ea          	psubd  %xmm2,%xmm5
    46ce:	66 0f 6f d5          	movdqa %xmm5,%xmm2
    46d2:	66 0f 72 f2 02       	pslld  $0x2,%xmm2
    46d7:	66 0f fe ea          	paddd  %xmm2,%xmm5
    46db:	66 0f 6f d1          	movdqa %xmm1,%xmm2
    46df:	66 0f 69 d6          	punpckhwd %xmm6,%xmm2
    46e3:	66 0f 72 d5 1c       	psrld  $0x1c,%xmm5
    46e8:	66 0f 6f 74 24 d8    	movdqa -0x28(%rsp),%xmm6
    46ee:	66 0f 72 f2 01       	pslld  $0x1,%xmm2
    46f3:	66 0f fe 15 95 69 00 	paddd  0x6995(%rip),%xmm2        # b090 <_IO_stdin_used+0x90>
    46fa:	00 
    46fb:	66 0f 6f ca          	movdqa %xmm2,%xmm1
    46ff:	66 0f 72 f1 06       	pslld  $0x6,%xmm1
    4704:	66 0f fa ca          	psubd  %xmm2,%xmm1
    4708:	66 0f 72 f1 08       	pslld  $0x8,%xmm1
    470d:	66 0f fa ca          	psubd  %xmm2,%xmm1
    4711:	66 0f 6f d1          	movdqa %xmm1,%xmm2
    4715:	66 0f 72 f2 02       	pslld  $0x2,%xmm2
    471a:	66 0f fe ca          	paddd  %xmm2,%xmm1
    471e:	66 0f 6f d5          	movdqa %xmm5,%xmm2
    4722:	66 0f 72 d1 1c       	psrld  $0x1c,%xmm1
    4727:	66 0f 61 e9          	punpcklwd %xmm1,%xmm5
    472b:	66 0f 69 d1          	punpckhwd %xmm1,%xmm2
    472f:	66 0f 6f cd          	movdqa %xmm5,%xmm1
    4733:	66 0f 61 ea          	punpcklwd %xmm2,%xmm5
    4737:	66 0f 69 ca          	punpckhwd %xmm2,%xmm1
    473b:	66 0f 6f d3          	movdqa %xmm3,%xmm2
    473f:	66 0f 6f df          	movdqa %xmm7,%xmm3
    4743:	66 0f 61 e9          	punpcklwd %xmm1,%xmm5
    4747:	66 0f db 2d 51 69 00 	pand   0x6951(%rip),%xmm5        # b0a0 <_IO_stdin_used+0xa0>
    474e:	00 
    474f:	66 0f 6f cc          	movdqa %xmm4,%xmm1
    4753:	66 0f ef e4          	pxor   %xmm4,%xmm4
    4757:	66 0f 67 cd          	packuswb %xmm5,%xmm1
    475b:	66 0f 65 e7          	pcmpgtw %xmm7,%xmm4
    475f:	66 0f fc c9          	paddb  %xmm1,%xmm1
    4763:	66 0f fc c9          	paddb  %xmm1,%xmm1
    4767:	66 0f fc c9          	paddb  %xmm1,%xmm1
    476b:	66 0f 61 dc          	punpcklwd %xmm4,%xmm3
    476f:	66 0f 69 fc          	punpckhwd %xmm4,%xmm7
    4773:	66 0f fc c9          	paddb  %xmm1,%xmm1
    4777:	66 0f 72 f3 01       	pslld  $0x1,%xmm3
    477c:	66 0f fe 1d 0c 69 00 	paddd  0x690c(%rip),%xmm3        # b090 <_IO_stdin_used+0x90>
    4783:	00 
    4784:	66 0f fc c9          	paddb  %xmm1,%xmm1
    4788:	66 0f db 0d 60 69 00 	pand   0x6960(%rip),%xmm1        # b0f0 <_IO_stdin_used+0xf0>
    478f:	00 
    4790:	66 0f 6f c7          	movdqa %xmm7,%xmm0
    4794:	66 0f 6f 7c 24 e8    	movdqa -0x18(%rsp),%xmm7
    479a:	66 0f 72 f0 01       	pslld  $0x1,%xmm0
    479f:	66 0f fe 05 e9 68 00 	paddd  0x68e9(%rip),%xmm0        # b090 <_IO_stdin_used+0x90>
    47a6:	00 
    47a7:	66 0f ef e4          	pxor   %xmm4,%xmm4
    47ab:	66 0f eb d1          	por    %xmm1,%xmm2
    47af:	66 0f 65 e7          	pcmpgtw %xmm7,%xmm4
    47b3:	66 0f 6f cb          	movdqa %xmm3,%xmm1
    47b7:	66 0f 72 f1 06       	pslld  $0x6,%xmm1
    47bc:	66 0f fa cb          	psubd  %xmm3,%xmm1
    47c0:	66 0f 72 f1 08       	pslld  $0x8,%xmm1
    47c5:	66 0f 6f ec          	movdqa %xmm4,%xmm5
    47c9:	66 0f fa cb          	psubd  %xmm3,%xmm1
    47cd:	66 0f 6f d9          	movdqa %xmm1,%xmm3
    47d1:	66 0f 72 f3 02       	pslld  $0x2,%xmm3
    47d6:	66 0f fe cb          	paddd  %xmm3,%xmm1
    47da:	66 0f 6f d8          	movdqa %xmm0,%xmm3
    47de:	66 0f 72 f3 06       	pslld  $0x6,%xmm3
    47e3:	66 0f 72 d1 1c       	psrld  $0x1c,%xmm1
    47e8:	66 0f fa d8          	psubd  %xmm0,%xmm3
    47ec:	66 0f 72 f3 08       	pslld  $0x8,%xmm3
    47f1:	66 0f fa d8          	psubd  %xmm0,%xmm3
    47f5:	66 0f 6f c3          	movdqa %xmm3,%xmm0
    47f9:	66 0f 72 f0 02       	pslld  $0x2,%xmm0
    47fe:	66 0f fe c3          	paddd  %xmm3,%xmm0
    4802:	66 0f 6f d9          	movdqa %xmm1,%xmm3
    4806:	66 0f 72 d0 1c       	psrld  $0x1c,%xmm0
    480b:	66 0f 61 c8          	punpcklwd %xmm0,%xmm1
    480f:	66 0f 69 d8          	punpckhwd %xmm0,%xmm3
    4813:	66 0f 6f c1          	movdqa %xmm1,%xmm0
    4817:	66 0f 61 cb          	punpcklwd %xmm3,%xmm1
    481b:	66 0f 69 c3          	punpckhwd %xmm3,%xmm0
    481f:	66 0f 61 c8          	punpcklwd %xmm0,%xmm1
    4823:	66 0f 6f c7          	movdqa %xmm7,%xmm0
    4827:	66 0f db 0d 71 68 00 	pand   0x6871(%rip),%xmm1        # b0a0 <_IO_stdin_used+0xa0>
    482e:	00 
    482f:	66 0f 61 c4          	punpcklwd %xmm4,%xmm0
    4833:	66 0f 72 f0 01       	pslld  $0x1,%xmm0
    4838:	66 0f fe 05 50 68 00 	paddd  0x6850(%rip),%xmm0        # b090 <_IO_stdin_used+0x90>
    483f:	00 
    4840:	66 0f 6f d8          	movdqa %xmm0,%xmm3
    4844:	66 0f 72 f3 06       	pslld  $0x6,%xmm3
    4849:	66 0f fa d8          	psubd  %xmm0,%xmm3
    484d:	66 0f 72 f3 08       	pslld  $0x8,%xmm3
    4852:	66 0f fa d8          	psubd  %xmm0,%xmm3
    4856:	66 0f 6f c3          	movdqa %xmm3,%xmm0
    485a:	66 0f 72 f0 02       	pslld  $0x2,%xmm0
    485f:	66 0f fe d8          	paddd  %xmm0,%xmm3
    4863:	66 0f 6f c7          	movdqa %xmm7,%xmm0
    4867:	66 0f 6f 7c 24 b8    	movdqa -0x48(%rsp),%xmm7
    486d:	66 0f 69 c5          	punpckhwd %xmm5,%xmm0
    4871:	66 0f 6f e3          	movdqa %xmm3,%xmm4
    4875:	66 0f 72 f0 01       	pslld  $0x1,%xmm0
    487a:	66 0f fe 05 0e 68 00 	paddd  0x680e(%rip),%xmm0        # b090 <_IO_stdin_used+0x90>
    4881:	00 
    4882:	66 0f 72 d4 1c       	psrld  $0x1c,%xmm4
    4887:	66 0f 6f d8          	movdqa %xmm0,%xmm3
    488b:	66 0f 72 f3 06       	pslld  $0x6,%xmm3
    4890:	66 0f fa d8          	psubd  %xmm0,%xmm3
    4894:	66 0f 72 f3 08       	pslld  $0x8,%xmm3
    4899:	66 0f fa d8          	psubd  %xmm0,%xmm3
    489d:	66 0f 6f c3          	movdqa %xmm3,%xmm0
    48a1:	66 0f 72 f0 02       	pslld  $0x2,%xmm0
    48a6:	66 0f fe c3          	paddd  %xmm3,%xmm0
    48aa:	66 0f 6f dc          	movdqa %xmm4,%xmm3
    48ae:	66 0f 72 d0 1c       	psrld  $0x1c,%xmm0
    48b3:	66 0f 69 d8          	punpckhwd %xmm0,%xmm3
    48b7:	66 0f 6f eb          	movdqa %xmm3,%xmm5
    48bb:	66 0f 6f dc          	movdqa %xmm4,%xmm3
    48bf:	66 0f ef e4          	pxor   %xmm4,%xmm4
    48c3:	66 0f 61 d8          	punpcklwd %xmm0,%xmm3
    48c7:	66 0f 65 e7          	pcmpgtw %xmm7,%xmm4
    48cb:	66 0f 6f c3          	movdqa %xmm3,%xmm0
    48cf:	66 0f 61 dd          	punpcklwd %xmm5,%xmm3
    48d3:	66 0f 69 c5          	punpckhwd %xmm5,%xmm0
    48d7:	66 0f 61 d8          	punpcklwd %xmm0,%xmm3
    48db:	66 0f db 1d bd 67 00 	pand   0x67bd(%rip),%xmm3        # b0a0 <_IO_stdin_used+0xa0>
    48e2:	00 
    48e3:	66 0f 67 cb          	packuswb %xmm3,%xmm1
    48e7:	66 0f ef db          	pxor   %xmm3,%xmm3
    48eb:	66 0f fc c9          	paddb  %xmm1,%xmm1
    48ef:	66 0f 65 de          	pcmpgtw %xmm6,%xmm3
    48f3:	66 0f fc c9          	paddb  %xmm1,%xmm1
    48f7:	66 0f fc c9          	paddb  %xmm1,%xmm1
    48fb:	66 0f fc c9          	paddb  %xmm1,%xmm1
    48ff:	66 0f fc c9          	paddb  %xmm1,%xmm1
    4903:	66 0f fc c9          	paddb  %xmm1,%xmm1
    4907:	66 0f db 0d f1 67 00 	pand   0x67f1(%rip),%xmm1        # b100 <_IO_stdin_used+0x100>
    490e:	00 
    490f:	66 0f eb d1          	por    %xmm1,%xmm2
    4913:	66 0f 6f c2          	movdqa %xmm2,%xmm0
    4917:	66 0f 6f d6          	movdqa %xmm6,%xmm2
    491b:	66 0f 69 f3          	punpckhwd %xmm3,%xmm6
    491f:	66 0f 61 d3          	punpcklwd %xmm3,%xmm2
    4923:	66 0f 72 f2 01       	pslld  $0x1,%xmm2
    4928:	66 0f fe 15 60 67 00 	paddd  0x6760(%rip),%xmm2        # b090 <_IO_stdin_used+0x90>
    492f:	00 
    4930:	66 0f 6f ca          	movdqa %xmm2,%xmm1
    4934:	66 0f 72 f1 06       	pslld  $0x6,%xmm1
    4939:	66 0f fa ca          	psubd  %xmm2,%xmm1
    493d:	66 0f 72 f1 08       	pslld  $0x8,%xmm1
    4942:	66 0f fa ca          	psubd  %xmm2,%xmm1
    4946:	66 0f 6f d1          	movdqa %xmm1,%xmm2
    494a:	66 0f 72 f2 02       	pslld  $0x2,%xmm2
    494f:	66 0f fe ca          	paddd  %xmm2,%xmm1
    4953:	66 0f 6f d6          	movdqa %xmm6,%xmm2
    4957:	66 0f 72 f2 01       	pslld  $0x1,%xmm2
    495c:	66 0f fe 15 2c 67 00 	paddd  0x672c(%rip),%xmm2        # b090 <_IO_stdin_used+0x90>
    4963:	00 
    4964:	66 0f 72 d1 1c       	psrld  $0x1c,%xmm1
    4969:	66 0f 6f da          	movdqa %xmm2,%xmm3
    496d:	66 0f 72 f3 06       	pslld  $0x6,%xmm3
    4972:	66 0f fa da          	psubd  %xmm2,%xmm3
    4976:	66 0f 72 f3 08       	pslld  $0x8,%xmm3
    497b:	66 0f fa da          	psubd  %xmm2,%xmm3
    497f:	66 0f 6f d3          	movdqa %xmm3,%xmm2
    4983:	66 0f 72 f2 02       	pslld  $0x2,%xmm2
    4988:	66 0f fe d3          	paddd  %xmm3,%xmm2
    498c:	66 0f 6f d9          	movdqa %xmm1,%xmm3
    4990:	66 0f 72 d2 1c       	psrld  $0x1c,%xmm2
    4995:	66 0f 61 ca          	punpcklwd %xmm2,%xmm1
    4999:	66 0f 69 da          	punpckhwd %xmm2,%xmm3
    499d:	66 0f 6f d1          	movdqa %xmm1,%xmm2
    49a1:	66 0f 61 cb          	punpcklwd %xmm3,%xmm1
    49a5:	66 0f 69 d3          	punpckhwd %xmm3,%xmm2
    49a9:	66 0f 6f df          	movdqa %xmm7,%xmm3
    49ad:	66 0f 69 fc          	punpckhwd %xmm4,%xmm7
    49b1:	66 0f 61 dc          	punpcklwd %xmm4,%xmm3
    49b5:	66 0f 61 ca          	punpcklwd %xmm2,%xmm1
    49b9:	66 0f db 0d df 66 00 	pand   0x66df(%rip),%xmm1        # b0a0 <_IO_stdin_used+0xa0>
    49c0:	00 
    49c1:	66 0f 72 f3 01       	pslld  $0x1,%xmm3
    49c6:	66 0f fe 1d c2 66 00 	paddd  0x66c2(%rip),%xmm3        # b090 <_IO_stdin_used+0x90>
    49cd:	00 
    49ce:	66 0f 6f d3          	movdqa %xmm3,%xmm2
    49d2:	66 0f 72 f2 06       	pslld  $0x6,%xmm2
    49d7:	66 0f fa d3          	psubd  %xmm3,%xmm2
    49db:	66 0f 72 f2 08       	pslld  $0x8,%xmm2
    49e0:	66 0f fa d3          	psubd  %xmm3,%xmm2
    49e4:	66 0f 6f da          	movdqa %xmm2,%xmm3
    49e8:	66 0f 72 f3 02       	pslld  $0x2,%xmm3
    49ed:	66 0f fe d3          	paddd  %xmm3,%xmm2
    49f1:	66 0f 6f df          	movdqa %xmm7,%xmm3
    49f5:	66 0f 72 f3 01       	pslld  $0x1,%xmm3
    49fa:	66 0f fe 1d 8e 66 00 	paddd  0x668e(%rip),%xmm3        # b090 <_IO_stdin_used+0x90>
    4a01:	00 
    4a02:	66 0f 72 d2 1c       	psrld  $0x1c,%xmm2
    4a07:	66 0f 6f e3          	movdqa %xmm3,%xmm4
    4a0b:	66 0f 72 f4 06       	pslld  $0x6,%xmm4
    4a10:	66 0f fa e3          	psubd  %xmm3,%xmm4
    4a14:	66 0f 72 f4 08       	pslld  $0x8,%xmm4
    4a19:	66 0f fa e3          	psubd  %xmm3,%xmm4
    4a1d:	66 0f 6f dc          	movdqa %xmm4,%xmm3
    4a21:	66 0f 72 f3 02       	pslld  $0x2,%xmm3
    4a26:	66 0f fe dc          	paddd  %xmm4,%xmm3
    4a2a:	66 0f 6f e2          	movdqa %xmm2,%xmm4
    4a2e:	66 0f 72 d3 1c       	psrld  $0x1c,%xmm3
    4a33:	66 0f 61 d3          	punpcklwd %xmm3,%xmm2
    4a37:	66 0f 69 e3          	punpckhwd %xmm3,%xmm4
    4a3b:	66 0f 6f da          	movdqa %xmm2,%xmm3
    4a3f:	66 0f 61 d4          	punpcklwd %xmm4,%xmm2
    4a43:	66 0f 69 dc          	punpckhwd %xmm4,%xmm3
    4a47:	66 0f 61 d3          	punpcklwd %xmm3,%xmm2
    4a4b:	66 0f db 15 4d 66 00 	pand   0x664d(%rip),%xmm2        # b0a0 <_IO_stdin_used+0xa0>
    4a52:	00 
    4a53:	66 0f 67 ca          	packuswb %xmm2,%xmm1
    4a57:	66 0f fc c9          	paddb  %xmm1,%xmm1
    4a5b:	66 0f fc c9          	paddb  %xmm1,%xmm1
    4a5f:	66 0f fc c9          	paddb  %xmm1,%xmm1
    4a63:	66 0f fc c9          	paddb  %xmm1,%xmm1
    4a67:	66 0f fc c9          	paddb  %xmm1,%xmm1
    4a6b:	66 0f fc c9          	paddb  %xmm1,%xmm1
    4a6f:	66 0f fc c9          	paddb  %xmm1,%xmm1
    4a73:	66 0f eb c1          	por    %xmm1,%xmm0
    4a77:	0f 11 41 f0          	movups %xmm0,-0x10(%rcx)
    4a7b:	48 39 c1             	cmp    %rax,%rcx
    4a7e:	0f 85 3f ed ff ff    	jne    37c3 <pqcrystals_kyber1024_ref_poly_tomsg+0x23>
    4a84:	c3                   	ret    
    4a85:	0f 1f 00             	nopl   (%rax)
    4a88:	c6 01 00             	movb   $0x0,(%rcx)
    4a8b:	0f bf 02             	movswl (%rdx),%eax
    4a8e:	48 83 c1 01          	add    $0x1,%rcx
    4a92:	8d 84 00 81 06 00 00 	lea    0x681(%rax,%rax,1),%eax
    4a99:	69 c0 fb 3a 01 00    	imul   $0x13afb,%eax,%eax
    4a9f:	c1 e8 1c             	shr    $0x1c,%eax
    4aa2:	83 e0 01             	and    $0x1,%eax
    4aa5:	88 41 ff             	mov    %al,-0x1(%rcx)
    4aa8:	0f bf 72 02          	movswl 0x2(%rdx),%esi
    4aac:	8d b4 36 81 06 00 00 	lea    0x681(%rsi,%rsi,1),%esi
    4ab3:	69 f6 fb 3a 01 00    	imul   $0x13afb,%esi,%esi
    4ab9:	c1 ee 1b             	shr    $0x1b,%esi
    4abc:	83 e6 02             	and    $0x2,%esi
    4abf:	09 f0                	or     %esi,%eax
    4ac1:	88 41 ff             	mov    %al,-0x1(%rcx)
    4ac4:	0f bf 72 04          	movswl 0x4(%rdx),%esi
    4ac8:	8d b4 36 81 06 00 00 	lea    0x681(%rsi,%rsi,1),%esi
    4acf:	69 f6 fb 3a 01 00    	imul   $0x13afb,%esi,%esi
    4ad5:	c1 ee 1a             	shr    $0x1a,%esi
    4ad8:	83 e6 04             	and    $0x4,%esi
    4adb:	09 f0                	or     %esi,%eax
    4add:	88 41 ff             	mov    %al,-0x1(%rcx)
    4ae0:	0f bf 72 06          	movswl 0x6(%rdx),%esi
    4ae4:	8d b4 36 81 06 00 00 	lea    0x681(%rsi,%rsi,1),%esi
    4aeb:	69 f6 fb 3a 01 00    	imul   $0x13afb,%esi,%esi
    4af1:	c1 ee 19             	shr    $0x19,%esi
    4af4:	83 e6 08             	and    $0x8,%esi
    4af7:	09 f0                	or     %esi,%eax
    4af9:	88 41 ff             	mov    %al,-0x1(%rcx)
    4afc:	0f bf 72 08          	movswl 0x8(%rdx),%esi
    4b00:	8d b4 36 81 06 00 00 	lea    0x681(%rsi,%rsi,1),%esi
    4b07:	69 f6 fb 3a 01 00    	imul   $0x13afb,%esi,%esi
    4b0d:	c1 ee 18             	shr    $0x18,%esi
    4b10:	83 e6 10             	and    $0x10,%esi
    4b13:	09 f0                	or     %esi,%eax
    4b15:	88 41 ff             	mov    %al,-0x1(%rcx)
    4b18:	0f bf 72 0a          	movswl 0xa(%rdx),%esi
    4b1c:	8d b4 36 81 06 00 00 	lea    0x681(%rsi,%rsi,1),%esi
    4b23:	69 f6 fb 3a 01 00    	imul   $0x13afb,%esi,%esi
    4b29:	c1 ee 17             	shr    $0x17,%esi
    4b2c:	83 e6 20             	and    $0x20,%esi
    4b2f:	09 f0                	or     %esi,%eax
    4b31:	88 41 ff             	mov    %al,-0x1(%rcx)
    4b34:	0f bf 72 0c          	movswl 0xc(%rdx),%esi
    4b38:	8d b4 36 81 06 00 00 	lea    0x681(%rsi,%rsi,1),%esi
    4b3f:	69 f6 fb 3a 01 00    	imul   $0x13afb,%esi,%esi
    4b45:	c1 ee 16             	shr    $0x16,%esi
    4b48:	83 e6 40             	and    $0x40,%esi
    4b4b:	09 f0                	or     %esi,%eax
    4b4d:	88 41 ff             	mov    %al,-0x1(%rcx)
    4b50:	0f bf 72 0e          	movswl 0xe(%rdx),%esi
    4b54:	8d b4 36 81 06 00 00 	lea    0x681(%rsi,%rsi,1),%esi
    4b5b:	69 f6 fb 3a 01 00    	imul   $0x13afb,%esi,%esi
    4b61:	c1 ee 1c             	shr    $0x1c,%esi
    4b64:	c1 e6 07             	shl    $0x7,%esi
    4b67:	09 f0                	or     %esi,%eax
    4b69:	88 41 ff             	mov    %al,-0x1(%rcx)
    4b6c:	48 83 c2 10          	add    $0x10,%rdx
    4b70:	49 39 d0             	cmp    %rdx,%r8
    4b73:	0f 85 0f ff ff ff    	jne    4a88 <pqcrystals_kyber1024_ref_poly_tomsg+0x12e8>
    4b79:	c3                   	ret    
    4b7a:	66 0f 1f 44 00 00    	nopw   0x0(%rax,%rax,1)

0000000000004b80 <pqcrystals_kyber1024_ref_poly_getnoise_eta1>:
    4b80:	f3 0f 1e fa          	endbr64 
    4b84:	41 54                	push   %r12
    4b86:	0f b6 ca             	movzbl %dl,%ecx
    4b89:	48 89 f2             	mov    %rsi,%rdx
    4b8c:	be 80 00 00 00       	mov    $0x80,%esi
    4b91:	55                   	push   %rbp
    4b92:	48 89 fd             	mov    %rdi,%rbp
    4b95:	48 81 ec 98 00 00 00 	sub    $0x98,%rsp
    4b9c:	64 48 8b 04 25 28 00 	mov    %fs:0x28,%rax
    4ba3:	00 00 
    4ba5:	48 89 84 24 88 00 00 	mov    %rax,0x88(%rsp)
    4bac:	00 
    4bad:	31 c0                	xor    %eax,%eax
    4baf:	49 89 e4             	mov    %rsp,%r12
    4bb2:	4c 89 e7             	mov    %r12,%rdi
    4bb5:	e8 b6 57 00 00       	call   a370 <pqcrystals_kyber1024_ref_kyber_shake256_prf>
    4bba:	4c 89 e6             	mov    %r12,%rsi
    4bbd:	48 89 ef             	mov    %rbp,%rdi
    4bc0:	e8 5b 0b 00 00       	call   5720 <pqcrystals_kyber1024_ref_poly_cbd_eta1>
    4bc5:	48 8b 84 24 88 00 00 	mov    0x88(%rsp),%rax
    4bcc:	00 
    4bcd:	64 48 2b 04 25 28 00 	sub    %fs:0x28,%rax
    4bd4:	00 00 
    4bd6:	75 0b                	jne    4be3 <pqcrystals_kyber1024_ref_poly_getnoise_eta1+0x63>
    4bd8:	48 81 c4 98 00 00 00 	add    $0x98,%rsp
    4bdf:	5d                   	pop    %rbp
    4be0:	41 5c                	pop    %r12
    4be2:	c3                   	ret    
    4be3:	e8 98 c5 ff ff       	call   1180 <__stack_chk_fail@plt>
    4be8:	0f 1f 84 00 00 00 00 	nopl   0x0(%rax,%rax,1)
    4bef:	00 

0000000000004bf0 <pqcrystals_kyber1024_ref_poly_getnoise_eta2>:
    4bf0:	f3 0f 1e fa          	endbr64 
    4bf4:	41 54                	push   %r12
    4bf6:	0f b6 ca             	movzbl %dl,%ecx
    4bf9:	48 89 f2             	mov    %rsi,%rdx
    4bfc:	be 80 00 00 00       	mov    $0x80,%esi
    4c01:	55                   	push   %rbp
    4c02:	48 89 fd             	mov    %rdi,%rbp
    4c05:	48 81 ec 98 00 00 00 	sub    $0x98,%rsp
    4c0c:	64 48 8b 04 25 28 00 	mov    %fs:0x28,%rax
    4c13:	00 00 
    4c15:	48 89 84 24 88 00 00 	mov    %rax,0x88(%rsp)
    4c1c:	00 
    4c1d:	31 c0                	xor    %eax,%eax
    4c1f:	49 89 e4             	mov    %rsp,%r12
    4c22:	4c 89 e7             	mov    %r12,%rdi
    4c25:	e8 46 57 00 00       	call   a370 <pqcrystals_kyber1024_ref_kyber_shake256_prf>
    4c2a:	4c 89 e6             	mov    %r12,%rsi
    4c2d:	48 89 ef             	mov    %rbp,%rdi
    4c30:	e8 fb 0a 00 00       	call   5730 <pqcrystals_kyber1024_ref_poly_cbd_eta2>
    4c35:	48 8b 84 24 88 00 00 	mov    0x88(%rsp),%rax
    4c3c:	00 
    4c3d:	64 48 2b 04 25 28 00 	sub    %fs:0x28,%rax
    4c44:	00 00 
    4c46:	75 0b                	jne    4c53 <pqcrystals_kyber1024_ref_poly_getnoise_eta2+0x63>
    4c48:	48 81 c4 98 00 00 00 	add    $0x98,%rsp
    4c4f:	5d                   	pop    %rbp
    4c50:	41 5c                	pop    %r12
    4c52:	c3                   	ret    
    4c53:	e8 28 c5 ff ff       	call   1180 <__stack_chk_fail@plt>
    4c58:	0f 1f 84 00 00 00 00 	nopl   0x0(%rax,%rax,1)
    4c5f:	00 

0000000000004c60 <pqcrystals_kyber1024_ref_poly_ntt>:
    4c60:	f3 0f 1e fa          	endbr64 
    4c64:	55                   	push   %rbp
    4c65:	53                   	push   %rbx
    4c66:	48 89 fb             	mov    %rdi,%rbx
    4c69:	48 8d ab 00 02 00 00 	lea    0x200(%rbx),%rbp
    4c70:	48 83 ec 08          	sub    $0x8,%rsp
    4c74:	e8 97 01 00 00       	call   4e10 <pqcrystals_kyber1024_ref_ntt>
    4c79:	0f 1f 80 00 00 00 00 	nopl   0x0(%rax)
    4c80:	0f bf 3b             	movswl (%rbx),%edi
    4c83:	48 83 c3 02          	add    $0x2,%rbx
    4c87:	e8 d4 0a 00 00       	call   5760 <pqcrystals_kyber1024_ref_barrett_reduce>
    4c8c:	66 89 43 fe          	mov    %ax,-0x2(%rbx)
    4c90:	48 39 eb             	cmp    %rbp,%rbx
    4c93:	75 eb                	jne    4c80 <pqcrystals_kyber1024_ref_poly_ntt+0x20>
    4c95:	48 83 c4 08          	add    $0x8,%rsp
    4c99:	5b                   	pop    %rbx
    4c9a:	5d                   	pop    %rbp
    4c9b:	c3                   	ret    
    4c9c:	0f 1f 40 00          	nopl   0x0(%rax)

0000000000004ca0 <pqcrystals_kyber1024_ref_poly_invntt_tomont>:
    4ca0:	f3 0f 1e fa          	endbr64 
    4ca4:	e9 87 02 00 00       	jmp    4f30 <pqcrystals_kyber1024_ref_invntt>
    4ca9:	0f 1f 80 00 00 00 00 	nopl   0x0(%rax)

0000000000004cb0 <pqcrystals_kyber1024_ref_poly_basemul_montgomery>:
    4cb0:	f3 0f 1e fa          	endbr64 
    4cb4:	41 57                	push   %r15
    4cb6:	4c 8d 3d e3 64 00 00 	lea    0x64e3(%rip),%r15        # b1a0 <pqcrystals_kyber1024_ref_zetas+0x80>
    4cbd:	41 56                	push   %r14
    4cbf:	49 89 f6             	mov    %rsi,%r14
    4cc2:	41 55                	push   %r13
    4cc4:	4d 8d af 80 00 00 00 	lea    0x80(%r15),%r13
    4ccb:	41 54                	push   %r12
    4ccd:	49 89 d4             	mov    %rdx,%r12
    4cd0:	55                   	push   %rbp
    4cd1:	48 8d 6f 04          	lea    0x4(%rdi),%rbp
    4cd5:	53                   	push   %rbx
    4cd6:	48 83 ec 08          	sub    $0x8,%rsp
    4cda:	66 0f 1f 44 00 00    	nopw   0x0(%rax,%rax,1)
    4ce0:	41 0f bf 0f          	movswl (%r15),%ecx
    4ce4:	48 8d 7d fc          	lea    -0x4(%rbp),%rdi
    4ce8:	4c 89 e2             	mov    %r12,%rdx
    4ceb:	4c 89 f6             	mov    %r14,%rsi
    4cee:	49 83 c7 02          	add    $0x2,%r15
    4cf2:	89 cb                	mov    %ecx,%ebx
    4cf4:	e8 97 03 00 00       	call   5090 <pqcrystals_kyber1024_ref_basemul>
    4cf9:	f7 db                	neg    %ebx
    4cfb:	49 8d 54 24 04       	lea    0x4(%r12),%rdx
    4d00:	49 8d 76 04          	lea    0x4(%r14),%rsi
    4d04:	48 89 ef             	mov    %rbp,%rdi
    4d07:	0f bf cb             	movswl %bx,%ecx
    4d0a:	49 83 c6 08          	add    $0x8,%r14
    4d0e:	49 83 c4 08          	add    $0x8,%r12
    4d12:	e8 79 03 00 00       	call   5090 <pqcrystals_kyber1024_ref_basemul>
    4d17:	48 83 c5 08          	add    $0x8,%rbp
    4d1b:	4d 39 fd             	cmp    %r15,%r13
    4d1e:	75 c0                	jne    4ce0 <pqcrystals_kyber1024_ref_poly_basemul_montgomery+0x30>
    4d20:	48 83 c4 08          	add    $0x8,%rsp
    4d24:	5b                   	pop    %rbx
    4d25:	5d                   	pop    %rbp
    4d26:	41 5c                	pop    %r12
    4d28:	41 5d                	pop    %r13
    4d2a:	41 5e                	pop    %r14
    4d2c:	41 5f                	pop    %r15
    4d2e:	c3                   	ret    
    4d2f:	90                   	nop

0000000000004d30 <pqcrystals_kyber1024_ref_poly_tomont>:
    4d30:	f3 0f 1e fa          	endbr64 
    4d34:	55                   	push   %rbp
    4d35:	48 8d af 00 02 00 00 	lea    0x200(%rdi),%rbp
    4d3c:	53                   	push   %rbx
    4d3d:	48 89 fb             	mov    %rdi,%rbx
    4d40:	48 83 ec 08          	sub    $0x8,%rsp
    4d44:	0f 1f 40 00          	nopl   0x0(%rax)
    4d48:	0f bf 3b             	movswl (%rbx),%edi
    4d4b:	48 83 c3 02          	add    $0x2,%rbx
    4d4f:	69 ff 49 05 00 00    	imul   $0x549,%edi,%edi
    4d55:	e8 e6 09 00 00       	call   5740 <pqcrystals_kyber1024_ref_montgomery_reduce>
    4d5a:	66 89 43 fe          	mov    %ax,-0x2(%rbx)
    4d5e:	48 39 eb             	cmp    %rbp,%rbx
    4d61:	75 e5                	jne    4d48 <pqcrystals_kyber1024_ref_poly_tomont+0x18>
    4d63:	48 83 c4 08          	add    $0x8,%rsp
    4d67:	5b                   	pop    %rbx
    4d68:	5d                   	pop    %rbp
    4d69:	c3                   	ret    
    4d6a:	66 0f 1f 44 00 00    	nopw   0x0(%rax,%rax,1)

0000000000004d70 <pqcrystals_kyber1024_ref_poly_reduce>:
    4d70:	f3 0f 1e fa          	endbr64 
    4d74:	55                   	push   %rbp
    4d75:	48 8d af 00 02 00 00 	lea    0x200(%rdi),%rbp
    4d7c:	53                   	push   %rbx
    4d7d:	48 89 fb             	mov    %rdi,%rbx
    4d80:	48 83 ec 08          	sub    $0x8,%rsp
    4d84:	0f 1f 40 00          	nopl   0x0(%rax)
    4d88:	0f bf 3b             	movswl (%rbx),%edi
    4d8b:	48 83 c3 02          	add    $0x2,%rbx
    4d8f:	e8 cc 09 00 00       	call   5760 <pqcrystals_kyber1024_ref_barrett_reduce>
    4d94:	66 89 43 fe          	mov    %ax,-0x2(%rbx)
    4d98:	48 39 eb             	cmp    %rbp,%rbx
    4d9b:	75 eb                	jne    4d88 <pqcrystals_kyber1024_ref_poly_reduce+0x18>
    4d9d:	48 83 c4 08          	add    $0x8,%rsp
    4da1:	5b                   	pop    %rbx
    4da2:	5d                   	pop    %rbp
    4da3:	c3                   	ret    
    4da4:	66 66 2e 0f 1f 84 00 	data16 cs nopw 0x0(%rax,%rax,1)
    4dab:	00 00 00 00 
    4daf:	90                   	nop

0000000000004db0 <pqcrystals_kyber1024_ref_poly_add>:
    4db0:	f3 0f 1e fa          	endbr64 
    4db4:	31 c0                	xor    %eax,%eax
    4db6:	66 2e 0f 1f 84 00 00 	cs nopw 0x0(%rax,%rax,1)
    4dbd:	00 00 00 
    4dc0:	f3 0f 6f 04 02       	movdqu (%rdx,%rax,1),%xmm0
    4dc5:	f3 0f 6f 0c 06       	movdqu (%rsi,%rax,1),%xmm1
    4dca:	66 0f fd c1          	paddw  %xmm1,%xmm0
    4dce:	0f 11 04 07          	movups %xmm0,(%rdi,%rax,1)
    4dd2:	48 83 c0 10          	add    $0x10,%rax
    4dd6:	48 3d 00 02 00 00    	cmp    $0x200,%rax
    4ddc:	75 e2                	jne    4dc0 <pqcrystals_kyber1024_ref_poly_add+0x10>
    4dde:	c3                   	ret    
    4ddf:	90                   	nop

0000000000004de0 <pqcrystals_kyber1024_ref_poly_sub>:
    4de0:	f3 0f 1e fa          	endbr64 
    4de4:	31 c0                	xor    %eax,%eax
    4de6:	66 2e 0f 1f 84 00 00 	cs nopw 0x0(%rax,%rax,1)
    4ded:	00 00 00 
    4df0:	f3 0f 6f 04 06       	movdqu (%rsi,%rax,1),%xmm0
    4df5:	f3 0f 6f 0c 02       	movdqu (%rdx,%rax,1),%xmm1
    4dfa:	66 0f f9 c1          	psubw  %xmm1,%xmm0
    4dfe:	0f 11 04 07          	movups %xmm0,(%rdi,%rax,1)
    4e02:	48 83 c0 10          	add    $0x10,%rax
    4e06:	48 3d 00 02 00 00    	cmp    $0x200,%rax
    4e0c:	75 e2                	jne    4df0 <pqcrystals_kyber1024_ref_poly_sub+0x10>
    4e0e:	c3                   	ret    
    4e0f:	90                   	nop

0000000000004e10 <pqcrystals_kyber1024_ref_ntt>:
    4e10:	f3 0f 1e fa          	endbr64 
    4e14:	41 57                	push   %r15
    4e16:	48 8d 47 02          	lea    0x2(%rdi),%rax
    4e1a:	41 56                	push   %r14
    4e1c:	41 55                	push   %r13
    4e1e:	41 bd 01 00 00 00    	mov    $0x1,%r13d
    4e24:	41 54                	push   %r12
    4e26:	55                   	push   %rbp
    4e27:	53                   	push   %rbx
    4e28:	bb 0a fd ff ff       	mov    $0xfffffd0a,%ebx
    4e2d:	48 83 ec 28          	sub    $0x28,%rsp
    4e31:	48 89 7c 24 08       	mov    %rdi,0x8(%rsp)
    4e36:	c7 44 24 1c 07 00 00 	movl   $0x7,0x1c(%rsp)
    4e3d:	00 
    4e3e:	c7 44 24 04 80 00 00 	movl   $0x80,0x4(%rsp)
    4e45:	00 
    4e46:	48 89 44 24 10       	mov    %rax,0x10(%rsp)
    4e4b:	0f 1f 44 00 00       	nopl   0x0(%rax,%rax,1)
    4e50:	8b 54 24 04          	mov    0x4(%rsp),%edx
    4e54:	31 c0                	xor    %eax,%eax
    4e56:	83 ea 01             	sub    $0x1,%edx
    4e59:	89 54 24 18          	mov    %edx,0x18(%rsp)
    4e5d:	0f 1f 00             	nopl   (%rax)
    4e60:	8b 54 24 04          	mov    0x4(%rsp),%edx
    4e64:	41 83 c5 01          	add    $0x1,%r13d
    4e68:	44 8d 24 02          	lea    (%rdx,%rax,1),%r12d
    4e6c:	41 39 c4             	cmp    %eax,%r12d
    4e6f:	0f 86 9b 00 00 00    	jbe    4f10 <pqcrystals_kyber1024_ref_ntt+0x100>
    4e75:	48 8b 54 24 08       	mov    0x8(%rsp),%rdx
    4e7a:	8b 4c 24 18          	mov    0x18(%rsp),%ecx
    4e7e:	44 89 e6             	mov    %r12d,%esi
    4e81:	48 29 c6             	sub    %rax,%rsi
    4e84:	4c 8d 34 42          	lea    (%rdx,%rax,2),%r14
    4e88:	48 8b 54 24 10       	mov    0x10(%rsp),%rdx
    4e8d:	48 01 c1             	add    %rax,%rcx
    4e90:	49 89 f7             	mov    %rsi,%r15
    4e93:	48 8d 2c 4a          	lea    (%rdx,%rcx,2),%rbp
    4e97:	66 0f 1f 84 00 00 00 	nopw   0x0(%rax,%rax,1)
    4e9e:	00 00 
    4ea0:	43 0f bf 3c 7e       	movswl (%r14,%r15,2),%edi
    4ea5:	0f af fb             	imul   %ebx,%edi
    4ea8:	e8 93 08 00 00       	call   5740 <pqcrystals_kyber1024_ref_montgomery_reduce>
    4ead:	41 0f b7 0e          	movzwl (%r14),%ecx
    4eb1:	29 c1                	sub    %eax,%ecx
    4eb3:	66 43 89 0c 7e       	mov    %cx,(%r14,%r15,2)
    4eb8:	66 41 01 06          	add    %ax,(%r14)
    4ebc:	49 83 c6 02          	add    $0x2,%r14
    4ec0:	4c 39 f5             	cmp    %r14,%rbp
    4ec3:	75 db                	jne    4ea0 <pqcrystals_kyber1024_ref_ntt+0x90>
    4ec5:	8b 44 24 04          	mov    0x4(%rsp),%eax
    4ec9:	44 01 e0             	add    %r12d,%eax
    4ecc:	3d ff 00 00 00       	cmp    $0xff,%eax
    4ed1:	77 1d                	ja     4ef0 <pqcrystals_kyber1024_ref_ntt+0xe0>
    4ed3:	44 89 ea             	mov    %r13d,%edx
    4ed6:	48 8d 35 43 62 00 00 	lea    0x6243(%rip),%rsi        # b120 <pqcrystals_kyber1024_ref_zetas>
    4edd:	0f bf 1c 56          	movswl (%rsi,%rdx,2),%ebx
    4ee1:	e9 7a ff ff ff       	jmp    4e60 <pqcrystals_kyber1024_ref_ntt+0x50>
    4ee6:	66 2e 0f 1f 84 00 00 	cs nopw 0x0(%rax,%rax,1)
    4eed:	00 00 00 
    4ef0:	d1 6c 24 04          	shrl   0x4(%rsp)
    4ef4:	83 6c 24 1c 01       	subl   $0x1,0x1c(%rsp)
    4ef9:	74 1a                	je     4f15 <pqcrystals_kyber1024_ref_ntt+0x105>
    4efb:	44 89 e8             	mov    %r13d,%eax
    4efe:	48 8d 15 1b 62 00 00 	lea    0x621b(%rip),%rdx        # b120 <pqcrystals_kyber1024_ref_zetas>
    4f05:	0f bf 1c 42          	movswl (%rdx,%rax,2),%ebx
    4f09:	e9 42 ff ff ff       	jmp    4e50 <pqcrystals_kyber1024_ref_ntt+0x40>
    4f0e:	66 90                	xchg   %ax,%ax
    4f10:	44 89 e0             	mov    %r12d,%eax
    4f13:	eb be                	jmp    4ed3 <pqcrystals_kyber1024_ref_ntt+0xc3>
    4f15:	48 83 c4 28          	add    $0x28,%rsp
    4f19:	5b                   	pop    %rbx
    4f1a:	5d                   	pop    %rbp
    4f1b:	41 5c                	pop    %r12
    4f1d:	41 5d                	pop    %r13
    4f1f:	41 5e                	pop    %r14
    4f21:	41 5f                	pop    %r15
    4f23:	c3                   	ret    
    4f24:	66 66 2e 0f 1f 84 00 	data16 cs nopw 0x0(%rax,%rax,1)
    4f2b:	00 00 00 00 
    4f2f:	90                   	nop

0000000000004f30 <pqcrystals_kyber1024_ref_invntt>:
    4f30:	f3 0f 1e fa          	endbr64 
    4f34:	41 57                	push   %r15
    4f36:	48 8d 47 02          	lea    0x2(%rdi),%rax
    4f3a:	41 56                	push   %r14
    4f3c:	41 55                	push   %r13
    4f3e:	41 54                	push   %r12
    4f40:	55                   	push   %rbp
    4f41:	53                   	push   %rbx
    4f42:	bb 5c 06 00 00       	mov    $0x65c,%ebx
    4f47:	48 83 ec 28          	sub    $0x28,%rsp
    4f4b:	48 89 7c 24 08       	mov    %rdi,0x8(%rsp)
    4f50:	c7 44 24 1c 07 00 00 	movl   $0x7,0x1c(%rsp)
    4f57:	00 
    4f58:	c7 44 24 04 7f 00 00 	movl   $0x7f,0x4(%rsp)
    4f5f:	00 
    4f60:	c7 04 24 02 00 00 00 	movl   $0x2,(%rsp)
    4f67:	48 89 44 24 10       	mov    %rax,0x10(%rsp)
    4f6c:	0f 1f 40 00          	nopl   0x0(%rax)
    4f70:	8b 14 24             	mov    (%rsp),%edx
    4f73:	31 c0                	xor    %eax,%eax
    4f75:	83 ea 01             	sub    $0x1,%edx
    4f78:	89 54 24 18          	mov    %edx,0x18(%rsp)
    4f7c:	0f 1f 40 00          	nopl   0x0(%rax)
    4f80:	8b 0c 24             	mov    (%rsp),%ecx
    4f83:	83 6c 24 04 01       	subl   $0x1,0x4(%rsp)
    4f88:	44 8d 2c 08          	lea    (%rax,%rcx,1),%r13d
    4f8c:	41 39 c5             	cmp    %eax,%r13d
    4f8f:	0f 86 ab 00 00 00    	jbe    5040 <pqcrystals_kyber1024_ref_invntt+0x110>
    4f95:	48 8b 74 24 08       	mov    0x8(%rsp),%rsi
    4f9a:	44 89 ea             	mov    %r13d,%edx
    4f9d:	48 8b 4c 24 10       	mov    0x10(%rsp),%rcx
    4fa2:	4c 8d 3c 46          	lea    (%rsi,%rax,2),%r15
    4fa6:	48 8d 2c 56          	lea    (%rsi,%rdx,2),%rbp
    4faa:	8b 74 24 18          	mov    0x18(%rsp),%esi
    4fae:	48 01 f0             	add    %rsi,%rax
    4fb1:	4c 8d 24 41          	lea    (%rcx,%rax,2),%r12
    4fb5:	0f 1f 00             	nopl   (%rax)
    4fb8:	45 0f b7 37          	movzwl (%r15),%r14d
    4fbc:	0f b7 7d 00          	movzwl 0x0(%rbp),%edi
    4fc0:	49 83 c7 02          	add    $0x2,%r15
    4fc4:	48 83 c5 02          	add    $0x2,%rbp
    4fc8:	44 01 f7             	add    %r14d,%edi
    4fcb:	0f bf ff             	movswl %di,%edi
    4fce:	e8 8d 07 00 00       	call   5760 <pqcrystals_kyber1024_ref_barrett_reduce>
    4fd3:	66 41 89 47 fe       	mov    %ax,-0x2(%r15)
    4fd8:	0f b7 7d fe          	movzwl -0x2(%rbp),%edi
    4fdc:	44 29 f7             	sub    %r14d,%edi
    4fdf:	66 89 7d fe          	mov    %di,-0x2(%rbp)
    4fe3:	0f bf ff             	movswl %di,%edi
    4fe6:	0f af fb             	imul   %ebx,%edi
    4fe9:	e8 52 07 00 00       	call   5740 <pqcrystals_kyber1024_ref_montgomery_reduce>
    4fee:	66 89 45 fe          	mov    %ax,-0x2(%rbp)
    4ff2:	4d 39 fc             	cmp    %r15,%r12
    4ff5:	75 c1                	jne    4fb8 <pqcrystals_kyber1024_ref_invntt+0x88>
    4ff7:	8b 04 24             	mov    (%rsp),%eax
    4ffa:	44 01 e8             	add    %r13d,%eax
    4ffd:	3d ff 00 00 00       	cmp    $0xff,%eax
    5002:	77 1c                	ja     5020 <pqcrystals_kyber1024_ref_invntt+0xf0>
    5004:	8b 54 24 04          	mov    0x4(%rsp),%edx
    5008:	48 8d 0d 11 61 00 00 	lea    0x6111(%rip),%rcx        # b120 <pqcrystals_kyber1024_ref_zetas>
    500f:	0f bf 1c 51          	movswl (%rcx,%rdx,2),%ebx
    5013:	e9 68 ff ff ff       	jmp    4f80 <pqcrystals_kyber1024_ref_invntt+0x50>
    5018:	0f 1f 84 00 00 00 00 	nopl   0x0(%rax,%rax,1)
    501f:	00 
    5020:	d1 24 24             	shll   (%rsp)
    5023:	83 6c 24 1c 01       	subl   $0x1,0x1c(%rsp)
    5028:	74 1b                	je     5045 <pqcrystals_kyber1024_ref_invntt+0x115>
    502a:	8b 44 24 04          	mov    0x4(%rsp),%eax
    502e:	48 8d 15 eb 60 00 00 	lea    0x60eb(%rip),%rdx        # b120 <pqcrystals_kyber1024_ref_zetas>
    5035:	0f bf 1c 42          	movswl (%rdx,%rax,2),%ebx
    5039:	e9 32 ff ff ff       	jmp    4f70 <pqcrystals_kyber1024_ref_invntt+0x40>
    503e:	66 90                	xchg   %ax,%ax
    5040:	44 89 e8             	mov    %r13d,%eax
    5043:	eb bf                	jmp    5004 <pqcrystals_kyber1024_ref_invntt+0xd4>
    5045:	48 8b 6c 24 08       	mov    0x8(%rsp),%rbp
    504a:	48 8d 9d 00 02 00 00 	lea    0x200(%rbp),%rbx
    5051:	0f 1f 80 00 00 00 00 	nopl   0x0(%rax)
    5058:	0f bf 7d 00          	movswl 0x0(%rbp),%edi
    505c:	48 83 c5 02          	add    $0x2,%rbp
    5060:	69 ff a1 05 00 00    	imul   $0x5a1,%edi,%edi
    5066:	e8 d5 06 00 00       	call   5740 <pqcrystals_kyber1024_ref_montgomery_reduce>
    506b:	66 89 45 fe          	mov    %ax,-0x2(%rbp)
    506f:	48 39 eb             	cmp    %rbp,%rbx
    5072:	75 e4                	jne    5058 <pqcrystals_kyber1024_ref_invntt+0x128>
    5074:	48 83 c4 28          	add    $0x28,%rsp
    5078:	5b                   	pop    %rbx
    5079:	5d                   	pop    %rbp
    507a:	41 5c                	pop    %r12
    507c:	41 5d                	pop    %r13
    507e:	41 5e                	pop    %r14
    5080:	41 5f                	pop    %r15
    5082:	c3                   	ret    
    5083:	66 66 2e 0f 1f 84 00 	data16 cs nopw 0x0(%rax,%rax,1)
    508a:	00 00 00 00 
    508e:	66 90                	xchg   %ax,%ax

0000000000005090 <pqcrystals_kyber1024_ref_basemul>:
    5090:	f3 0f 1e fa          	endbr64 
    5094:	41 55                	push   %r13
    5096:	49 89 d5             	mov    %rdx,%r13
    5099:	41 54                	push   %r12
    509b:	49 89 f4             	mov    %rsi,%r12
    509e:	55                   	push   %rbp
    509f:	89 cd                	mov    %ecx,%ebp
    50a1:	53                   	push   %rbx
    50a2:	48 89 fb             	mov    %rdi,%rbx
    50a5:	48 83 ec 08          	sub    $0x8,%rsp
    50a9:	0f bf 7a 02          	movswl 0x2(%rdx),%edi
    50ad:	0f bf 46 02          	movswl 0x2(%rsi),%eax
    50b1:	0f af f8             	imul   %eax,%edi
    50b4:	e8 87 06 00 00       	call   5740 <pqcrystals_kyber1024_ref_montgomery_reduce>
    50b9:	0f bf fd             	movswl %bp,%edi
    50bc:	66 89 03             	mov    %ax,(%rbx)
    50bf:	98                   	cwtl   
    50c0:	0f af f8             	imul   %eax,%edi
    50c3:	e8 78 06 00 00       	call   5740 <pqcrystals_kyber1024_ref_montgomery_reduce>
    50c8:	66 89 03             	mov    %ax,(%rbx)
    50cb:	41 0f bf 7d 00       	movswl 0x0(%r13),%edi
    50d0:	41 0f bf 04 24       	movswl (%r12),%eax
    50d5:	0f af f8             	imul   %eax,%edi
    50d8:	e8 63 06 00 00       	call   5740 <pqcrystals_kyber1024_ref_montgomery_reduce>
    50dd:	66 01 03             	add    %ax,(%rbx)
    50e0:	41 0f bf 7d 02       	movswl 0x2(%r13),%edi
    50e5:	41 0f bf 04 24       	movswl (%r12),%eax
    50ea:	0f af f8             	imul   %eax,%edi
    50ed:	e8 4e 06 00 00       	call   5740 <pqcrystals_kyber1024_ref_montgomery_reduce>
    50f2:	66 89 43 02          	mov    %ax,0x2(%rbx)
    50f6:	41 0f bf 7d 00       	movswl 0x0(%r13),%edi
    50fb:	41 0f bf 44 24 02    	movswl 0x2(%r12),%eax
    5101:	0f af f8             	imul   %eax,%edi
    5104:	e8 37 06 00 00       	call   5740 <pqcrystals_kyber1024_ref_montgomery_reduce>
    5109:	66 01 43 02          	add    %ax,0x2(%rbx)
    510d:	48 83 c4 08          	add    $0x8,%rsp
    5111:	5b                   	pop    %rbx
    5112:	5d                   	pop    %rbp
    5113:	41 5c                	pop    %r12
    5115:	41 5d                	pop    %r13
    5117:	c3                   	ret    
    5118:	0f 1f 84 00 00 00 00 	nopl   0x0(%rax,%rax,1)
    511f:	00 

0000000000005120 <cbd2>:
    5120:	4c 8d 96 80 00 00 00 	lea    0x80(%rsi),%r10
    5127:	49 89 f1             	mov    %rsi,%r9
    512a:	4c 39 d7             	cmp    %r10,%rdi
    512d:	73 10                	jae    513f <cbd2+0x1f>
    512f:	48 8d 87 00 02 00 00 	lea    0x200(%rdi),%rax
    5136:	48 39 c6             	cmp    %rax,%rsi
    5139:	0f 82 b2 04 00 00    	jb     55f1 <cbd2+0x4d1>
    513f:	66 44 0f 6f 15 d8 60 	movdqa 0x60d8(%rip),%xmm10        # b220 <pqcrystals_kyber1024_ref_zetas+0x100>
    5146:	00 00 
    5148:	66 0f 6f 1d e0 60 00 	movdqa 0x60e0(%rip),%xmm3        # b230 <pqcrystals_kyber1024_ref_zetas+0x110>
    514f:	00 
    5150:	48 89 fe             	mov    %rdi,%rsi
    5153:	f3 41 0f 6f 09       	movdqu (%r9),%xmm1
    5158:	f3 41 0f 6f 51 10    	movdqu 0x10(%r9),%xmm2
    515e:	49 83 c1 20          	add    $0x20,%r9
    5162:	48 83 ee 80          	sub    $0xffffffffffffff80,%rsi
    5166:	66 0f 6f c1          	movdqa %xmm1,%xmm0
    516a:	66 41 0f db ca       	pand   %xmm10,%xmm1
    516f:	66 0f 72 d0 01       	psrld  $0x1,%xmm0
    5174:	66 41 0f db c2       	pand   %xmm10,%xmm0
    5179:	66 0f fe c1          	paddd  %xmm1,%xmm0
    517d:	66 0f 6f ca          	movdqa %xmm2,%xmm1
    5181:	66 41 0f db d2       	pand   %xmm10,%xmm2
    5186:	66 0f 72 d1 01       	psrld  $0x1,%xmm1
    518b:	66 0f 6f e0          	movdqa %xmm0,%xmm4
    518f:	66 41 0f db ca       	pand   %xmm10,%xmm1
    5194:	66 0f fe ca          	paddd  %xmm2,%xmm1
    5198:	66 0f 6f d0          	movdqa %xmm0,%xmm2
    519c:	66 0f 61 e1          	punpcklwd %xmm1,%xmm4
    51a0:	66 0f 69 d1          	punpckhwd %xmm1,%xmm2
    51a4:	66 0f 6f f1          	movdqa %xmm1,%xmm6
    51a8:	66 0f 6f ec          	movdqa %xmm4,%xmm5
    51ac:	66 0f 61 e2          	punpcklwd %xmm2,%xmm4
    51b0:	66 0f 6f f9          	movdqa %xmm1,%xmm7
    51b4:	66 0f 69 ea          	punpckhwd %xmm2,%xmm5
    51b8:	66 0f 6f d0          	movdqa %xmm0,%xmm2
    51bc:	66 44 0f 6f c1       	movdqa %xmm1,%xmm8
    51c1:	66 0f 72 d6 02       	psrld  $0x2,%xmm6
    51c6:	66 0f 72 d2 02       	psrld  $0x2,%xmm2
    51cb:	66 0f 61 e5          	punpcklwd %xmm5,%xmm4
    51cf:	66 0f 6f ea          	movdqa %xmm2,%xmm5
    51d3:	66 0f 61 d6          	punpcklwd %xmm6,%xmm2
    51d7:	66 0f db e3          	pand   %xmm3,%xmm4
    51db:	66 0f 69 ee          	punpckhwd %xmm6,%xmm5
    51df:	66 0f 6f f2          	movdqa %xmm2,%xmm6
    51e3:	66 44 0f 6f c9       	movdqa %xmm1,%xmm9
    51e8:	66 0f 69 f5          	punpckhwd %xmm5,%xmm6
    51ec:	66 0f 61 d5          	punpcklwd %xmm5,%xmm2
    51f0:	66 44 0f 6f d9       	movdqa %xmm1,%xmm11
    51f5:	66 0f 61 d6          	punpcklwd %xmm6,%xmm2
    51f9:	66 0f 6f f1          	movdqa %xmm1,%xmm6
    51fd:	66 44 0f 6f e1       	movdqa %xmm1,%xmm12
    5202:	66 0f db d3          	pand   %xmm3,%xmm2
    5206:	66 0f 72 d6 04       	psrld  $0x4,%xmm6
    520b:	66 44 0f 6f e9       	movdqa %xmm1,%xmm13
    5210:	66 0f 72 d7 06       	psrld  $0x6,%xmm7
    5215:	66 41 0f 72 d0 0a    	psrld  $0xa,%xmm8
    521b:	66 0f f9 e2          	psubw  %xmm2,%xmm4
    521f:	66 41 0f 72 d1 0e    	psrld  $0xe,%xmm9
    5225:	66 41 0f 72 d3 12    	psrld  $0x12,%xmm11
    522b:	66 0f 6f d0          	movdqa %xmm0,%xmm2
    522f:	66 0f 72 d2 04       	psrld  $0x4,%xmm2
    5234:	66 41 0f 72 d4 16    	psrld  $0x16,%xmm12
    523a:	66 0f 6f ea          	movdqa %xmm2,%xmm5
    523e:	66 41 0f 72 d5 1a    	psrld  $0x1a,%xmm13
    5244:	66 0f 61 d6          	punpcklwd %xmm6,%xmm2
    5248:	66 0f 69 ee          	punpckhwd %xmm6,%xmm5
    524c:	66 0f 6f f2          	movdqa %xmm2,%xmm6
    5250:	66 0f 69 f5          	punpckhwd %xmm5,%xmm6
    5254:	66 0f 61 d5          	punpcklwd %xmm5,%xmm2
    5258:	66 0f 6f e8          	movdqa %xmm0,%xmm5
    525c:	66 0f 72 d5 06       	psrld  $0x6,%xmm5
    5261:	66 0f 61 d6          	punpcklwd %xmm6,%xmm2
    5265:	66 0f 6f f5          	movdqa %xmm5,%xmm6
    5269:	66 0f 61 ef          	punpcklwd %xmm7,%xmm5
    526d:	66 0f db d3          	pand   %xmm3,%xmm2
    5271:	66 0f 69 f7          	punpckhwd %xmm7,%xmm6
    5275:	66 0f 6f fd          	movdqa %xmm5,%xmm7
    5279:	66 0f 69 fe          	punpckhwd %xmm6,%xmm7
    527d:	66 0f 61 ee          	punpcklwd %xmm6,%xmm5
    5281:	66 0f 6f f0          	movdqa %xmm0,%xmm6
    5285:	66 0f 61 ef          	punpcklwd %xmm7,%xmm5
    5289:	66 0f 72 d6 08       	psrld  $0x8,%xmm6
    528e:	66 0f 6f f9          	movdqa %xmm1,%xmm7
    5292:	66 0f 72 d7 08       	psrld  $0x8,%xmm7
    5297:	66 0f db eb          	pand   %xmm3,%xmm5
    529b:	66 0f f9 d5          	psubw  %xmm5,%xmm2
    529f:	66 0f 6f ee          	movdqa %xmm6,%xmm5
    52a3:	66 0f 61 f7          	punpcklwd %xmm7,%xmm6
    52a7:	66 0f 69 ef          	punpckhwd %xmm7,%xmm5
    52ab:	66 0f 6f fe          	movdqa %xmm6,%xmm7
    52af:	66 0f 69 fd          	punpckhwd %xmm5,%xmm7
    52b3:	66 0f 61 f5          	punpcklwd %xmm5,%xmm6
    52b7:	66 0f 6f e8          	movdqa %xmm0,%xmm5
    52bb:	66 0f 72 d5 0a       	psrld  $0xa,%xmm5
    52c0:	66 0f 61 f7          	punpcklwd %xmm7,%xmm6
    52c4:	66 0f 6f fd          	movdqa %xmm5,%xmm7
    52c8:	66 41 0f 61 e8       	punpcklwd %xmm8,%xmm5
    52cd:	66 0f db f3          	pand   %xmm3,%xmm6
    52d1:	66 41 0f 69 f8       	punpckhwd %xmm8,%xmm7
    52d6:	66 44 0f 6f c5       	movdqa %xmm5,%xmm8
    52db:	66 44 0f 69 c7       	punpckhwd %xmm7,%xmm8
    52e0:	66 0f 61 ef          	punpcklwd %xmm7,%xmm5
    52e4:	66 41 0f 61 e8       	punpcklwd %xmm8,%xmm5
    52e9:	66 44 0f 6f c1       	movdqa %xmm1,%xmm8
    52ee:	66 0f db eb          	pand   %xmm3,%xmm5
    52f2:	66 41 0f 72 d0 0c    	psrld  $0xc,%xmm8
    52f8:	66 0f f9 f5          	psubw  %xmm5,%xmm6
    52fc:	66 0f 6f e8          	movdqa %xmm0,%xmm5
    5300:	66 0f 72 d5 0c       	psrld  $0xc,%xmm5
    5305:	66 0f 6f fd          	movdqa %xmm5,%xmm7
    5309:	66 41 0f 61 e8       	punpcklwd %xmm8,%xmm5
    530e:	66 41 0f 69 f8       	punpckhwd %xmm8,%xmm7
    5313:	66 44 0f 6f c5       	movdqa %xmm5,%xmm8
    5318:	66 44 0f 69 c7       	punpckhwd %xmm7,%xmm8
    531d:	66 0f 61 ef          	punpcklwd %xmm7,%xmm5
    5321:	66 0f 6f f8          	movdqa %xmm0,%xmm7
    5325:	66 0f 72 d7 0e       	psrld  $0xe,%xmm7
    532a:	66 41 0f 61 e8       	punpcklwd %xmm8,%xmm5
    532f:	66 44 0f 6f c7       	movdqa %xmm7,%xmm8
    5334:	66 41 0f 61 f9       	punpcklwd %xmm9,%xmm7
    5339:	66 0f db eb          	pand   %xmm3,%xmm5
    533d:	66 45 0f 69 c1       	punpckhwd %xmm9,%xmm8
    5342:	66 44 0f 6f cf       	movdqa %xmm7,%xmm9
    5347:	66 45 0f 69 c8       	punpckhwd %xmm8,%xmm9
    534c:	66 41 0f 61 f8       	punpcklwd %xmm8,%xmm7
    5351:	66 44 0f 6f c0       	movdqa %xmm0,%xmm8
    5356:	66 41 0f 61 f9       	punpcklwd %xmm9,%xmm7
    535b:	66 41 0f 72 d0 10    	psrld  $0x10,%xmm8
    5361:	66 44 0f 6f c9       	movdqa %xmm1,%xmm9
    5366:	66 41 0f 72 d1 10    	psrld  $0x10,%xmm9
    536c:	66 0f db fb          	pand   %xmm3,%xmm7
    5370:	66 0f f9 ef          	psubw  %xmm7,%xmm5
    5374:	66 41 0f 6f f8       	movdqa %xmm8,%xmm7
    5379:	66 45 0f 61 c1       	punpcklwd %xmm9,%xmm8
    537e:	66 41 0f 69 f9       	punpckhwd %xmm9,%xmm7
    5383:	66 45 0f 6f c8       	movdqa %xmm8,%xmm9
    5388:	66 44 0f 69 cf       	punpckhwd %xmm7,%xmm9
    538d:	66 44 0f 61 c7       	punpcklwd %xmm7,%xmm8
    5392:	66 0f 6f f8          	movdqa %xmm0,%xmm7
    5396:	66 0f 72 d7 12       	psrld  $0x12,%xmm7
    539b:	66 45 0f 61 c1       	punpcklwd %xmm9,%xmm8
    53a0:	66 44 0f 6f cf       	movdqa %xmm7,%xmm9
    53a5:	66 41 0f 61 fb       	punpcklwd %xmm11,%xmm7
    53aa:	66 44 0f db c3       	pand   %xmm3,%xmm8
    53af:	66 45 0f 69 cb       	punpckhwd %xmm11,%xmm9
    53b4:	66 44 0f 6f df       	movdqa %xmm7,%xmm11
    53b9:	66 45 0f 69 d9       	punpckhwd %xmm9,%xmm11
    53be:	66 41 0f 61 f9       	punpcklwd %xmm9,%xmm7
    53c3:	66 41 0f 61 fb       	punpcklwd %xmm11,%xmm7
    53c8:	66 44 0f 6f d9       	movdqa %xmm1,%xmm11
    53cd:	66 0f db fb          	pand   %xmm3,%xmm7
    53d1:	66 41 0f 72 d3 14    	psrld  $0x14,%xmm11
    53d7:	66 44 0f f9 c7       	psubw  %xmm7,%xmm8
    53dc:	66 0f 6f f8          	movdqa %xmm0,%xmm7
    53e0:	66 0f 72 d7 14       	psrld  $0x14,%xmm7
    53e5:	66 44 0f 6f cf       	movdqa %xmm7,%xmm9
    53ea:	66 41 0f 61 fb       	punpcklwd %xmm11,%xmm7
    53ef:	66 45 0f 69 cb       	punpckhwd %xmm11,%xmm9
    53f4:	66 44 0f 6f df       	movdqa %xmm7,%xmm11
    53f9:	66 45 0f 69 d9       	punpckhwd %xmm9,%xmm11
    53fe:	66 41 0f 61 f9       	punpcklwd %xmm9,%xmm7
    5403:	66 44 0f 6f c8       	movdqa %xmm0,%xmm9
    5408:	66 41 0f 72 d1 16    	psrld  $0x16,%xmm9
    540e:	66 41 0f 61 fb       	punpcklwd %xmm11,%xmm7
    5413:	66 45 0f 6f d9       	movdqa %xmm9,%xmm11
    5418:	66 45 0f 61 cc       	punpcklwd %xmm12,%xmm9
    541d:	66 0f db fb          	pand   %xmm3,%xmm7
    5421:	66 45 0f 69 dc       	punpckhwd %xmm12,%xmm11
    5426:	66 45 0f 6f e1       	movdqa %xmm9,%xmm12
    542b:	66 45 0f 69 e3       	punpckhwd %xmm11,%xmm12
    5430:	66 45 0f 61 cb       	punpcklwd %xmm11,%xmm9
    5435:	66 44 0f 6f d8       	movdqa %xmm0,%xmm11
    543a:	66 45 0f 61 cc       	punpcklwd %xmm12,%xmm9
    543f:	66 41 0f 72 d3 18    	psrld  $0x18,%xmm11
    5445:	66 44 0f 6f e1       	movdqa %xmm1,%xmm12
    544a:	66 41 0f 72 d4 18    	psrld  $0x18,%xmm12
    5450:	66 44 0f db cb       	pand   %xmm3,%xmm9
    5455:	66 41 0f f9 f9       	psubw  %xmm9,%xmm7
    545a:	66 45 0f 6f cb       	movdqa %xmm11,%xmm9
    545f:	66 45 0f 61 dc       	punpcklwd %xmm12,%xmm11
    5464:	66 45 0f 69 cc       	punpckhwd %xmm12,%xmm9
    5469:	66 45 0f 6f e3       	movdqa %xmm11,%xmm12
    546e:	66 45 0f 69 e1       	punpckhwd %xmm9,%xmm12
    5473:	66 45 0f 61 d9       	punpcklwd %xmm9,%xmm11
    5478:	66 44 0f 6f c8       	movdqa %xmm0,%xmm9
    547d:	66 41 0f 72 d1 1a    	psrld  $0x1a,%xmm9
    5483:	66 45 0f 61 dc       	punpcklwd %xmm12,%xmm11
    5488:	66 45 0f 6f e1       	movdqa %xmm9,%xmm12
    548d:	66 45 0f 61 cd       	punpcklwd %xmm13,%xmm9
    5492:	66 44 0f db db       	pand   %xmm3,%xmm11
    5497:	66 45 0f 69 e5       	punpckhwd %xmm13,%xmm12
    549c:	66 45 0f 6f e9       	movdqa %xmm9,%xmm13
    54a1:	66 45 0f 69 ec       	punpckhwd %xmm12,%xmm13
    54a6:	66 45 0f 61 cc       	punpcklwd %xmm12,%xmm9
    54ab:	66 45 0f 61 cd       	punpcklwd %xmm13,%xmm9
    54b0:	66 44 0f 6f e9       	movdqa %xmm1,%xmm13
    54b5:	66 41 0f 72 d5 1c    	psrld  $0x1c,%xmm13
    54bb:	66 0f 72 d1 1e       	psrld  $0x1e,%xmm1
    54c0:	66 44 0f db cb       	pand   %xmm3,%xmm9
    54c5:	66 45 0f f9 d9       	psubw  %xmm9,%xmm11
    54ca:	66 44 0f 6f c8       	movdqa %xmm0,%xmm9
    54cf:	66 41 0f 72 d1 1c    	psrld  $0x1c,%xmm9
    54d5:	66 0f 72 d0 1e       	psrld  $0x1e,%xmm0
    54da:	66 45 0f 6f e1       	movdqa %xmm9,%xmm12
    54df:	66 45 0f 61 cd       	punpcklwd %xmm13,%xmm9
    54e4:	66 45 0f 69 e5       	punpckhwd %xmm13,%xmm12
    54e9:	66 45 0f 6f e9       	movdqa %xmm9,%xmm13
    54ee:	66 45 0f 69 ec       	punpckhwd %xmm12,%xmm13
    54f3:	66 45 0f 61 cc       	punpcklwd %xmm12,%xmm9
    54f8:	66 44 0f 6f e0       	movdqa %xmm0,%xmm12
    54fd:	66 0f 61 c1          	punpcklwd %xmm1,%xmm0
    5501:	66 44 0f 69 e1       	punpckhwd %xmm1,%xmm12
    5506:	66 45 0f 61 cd       	punpcklwd %xmm13,%xmm9
    550b:	66 0f 6f c8          	movdqa %xmm0,%xmm1
    550f:	66 41 0f 61 c4       	punpcklwd %xmm12,%xmm0
    5514:	66 44 0f db cb       	pand   %xmm3,%xmm9
    5519:	66 41 0f 69 cc       	punpckhwd %xmm12,%xmm1
    551e:	66 0f 61 c1          	punpcklwd %xmm1,%xmm0
    5522:	66 0f 6f cc          	movdqa %xmm4,%xmm1
    5526:	66 41 0f 69 e0       	punpckhwd %xmm8,%xmm4
    552b:	66 44 0f f9 c8       	psubw  %xmm0,%xmm9
    5530:	66 41 0f 61 c8       	punpcklwd %xmm8,%xmm1
    5535:	66 0f 6f c6          	movdqa %xmm6,%xmm0
    5539:	66 44 0f 6f c2       	movdqa %xmm2,%xmm8
    553e:	66 41 0f 61 c3       	punpcklwd %xmm11,%xmm0
    5543:	66 0f 69 d7          	punpckhwd %xmm7,%xmm2
    5547:	66 44 0f 61 c7       	punpcklwd %xmm7,%xmm8
    554c:	66 0f 6f f9          	movdqa %xmm1,%xmm7
    5550:	66 41 0f 69 f3       	punpckhwd %xmm11,%xmm6
    5555:	66 0f 61 f8          	punpcklwd %xmm0,%xmm7
    5559:	66 0f 69 c8          	punpckhwd %xmm0,%xmm1
    555d:	66 44 0f 6f dd       	movdqa %xmm5,%xmm11
    5562:	66 0f 6f c4          	movdqa %xmm4,%xmm0
    5566:	66 41 0f 69 e9       	punpckhwd %xmm9,%xmm5
    556b:	66 45 0f 61 d9       	punpcklwd %xmm9,%xmm11
    5570:	66 0f 61 c6          	punpcklwd %xmm6,%xmm0
    5574:	66 0f 69 e6          	punpckhwd %xmm6,%xmm4
    5578:	66 45 0f 6f c8       	movdqa %xmm8,%xmm9
    557d:	66 0f 6f f2          	movdqa %xmm2,%xmm6
    5581:	66 45 0f 61 cb       	punpcklwd %xmm11,%xmm9
    5586:	66 0f 69 d5          	punpckhwd %xmm5,%xmm2
    558a:	66 0f 61 f5          	punpcklwd %xmm5,%xmm6
    558e:	66 0f 6f ef          	movdqa %xmm7,%xmm5
    5592:	66 45 0f 69 c3       	punpckhwd %xmm11,%xmm8
    5597:	66 41 0f 61 e9       	punpcklwd %xmm9,%xmm5
    559c:	66 41 0f 69 f9       	punpckhwd %xmm9,%xmm7
    55a1:	0f 11 6e 80          	movups %xmm5,-0x80(%rsi)
    55a5:	66 0f 6f e9          	movdqa %xmm1,%xmm5
    55a9:	66 41 0f 69 c8       	punpckhwd %xmm8,%xmm1
    55ae:	0f 11 4e b0          	movups %xmm1,-0x50(%rsi)
    55b2:	66 0f 6f c8          	movdqa %xmm0,%xmm1
    55b6:	66 0f 69 c6          	punpckhwd %xmm6,%xmm0
    55ba:	66 41 0f 61 e8       	punpcklwd %xmm8,%xmm5
    55bf:	0f 11 46 d0          	movups %xmm0,-0x30(%rsi)
    55c3:	66 0f 6f c4          	movdqa %xmm4,%xmm0
    55c7:	66 0f 61 ce          	punpcklwd %xmm6,%xmm1
    55cb:	66 0f 69 e2          	punpckhwd %xmm2,%xmm4
    55cf:	66 0f 61 c2          	punpcklwd %xmm2,%xmm0
    55d3:	0f 11 7e 90          	movups %xmm7,-0x70(%rsi)
    55d7:	0f 11 6e a0          	movups %xmm5,-0x60(%rsi)
    55db:	0f 11 4e c0          	movups %xmm1,-0x40(%rsi)
    55df:	0f 11 46 e0          	movups %xmm0,-0x20(%rsi)
    55e3:	0f 11 66 f0          	movups %xmm4,-0x10(%rsi)
    55e7:	4d 39 d1             	cmp    %r10,%r9
    55ea:	0f 85 63 fb ff ff    	jne    5153 <cbd2+0x33>
    55f0:	c3                   	ret    
    55f1:	55                   	push   %rbp
    55f2:	66 0f 6f 1d 36 5c 00 	movdqa 0x5c36(%rip),%xmm3        # b230 <pqcrystals_kyber1024_ref_zetas+0x110>
    55f9:	00 
    55fa:	48 89 fe             	mov    %rdi,%rsi
    55fd:	53                   	push   %rbx
    55fe:	66 90                	xchg   %ax,%ax
    5600:	41 8b 01             	mov    (%r9),%eax
    5603:	49 83 c1 04          	add    $0x4,%r9
    5607:	48 83 c6 10          	add    $0x10,%rsi
    560b:	89 c2                	mov    %eax,%edx
    560d:	d1 e8                	shr    %eax
    560f:	81 e2 55 55 55 55    	and    $0x55555555,%edx
    5615:	25 55 55 55 55       	and    $0x55555555,%eax
    561a:	01 d0                	add    %edx,%eax
    561c:	89 c7                	mov    %eax,%edi
    561e:	89 c1                	mov    %eax,%ecx
    5620:	89 c2                	mov    %eax,%edx
    5622:	89 c3                	mov    %eax,%ebx
    5624:	c1 ef 08             	shr    $0x8,%edi
    5627:	c1 e9 0c             	shr    $0xc,%ecx
    562a:	66 0f 6e c0          	movd   %eax,%xmm0
    562e:	41 89 c0             	mov    %eax,%r8d
    5631:	66 0f 6e e1          	movd   %ecx,%xmm4
    5635:	c1 ea 04             	shr    $0x4,%edx
    5638:	66 0f 6e cf          	movd   %edi,%xmm1
    563c:	89 c1                	mov    %eax,%ecx
    563e:	66 0f 62 cc          	punpckldq %xmm4,%xmm1
    5642:	89 c7                	mov    %eax,%edi
    5644:	66 0f 6e e2          	movd   %edx,%xmm4
    5648:	89 c2                	mov    %eax,%edx
    564a:	66 0f 62 c4          	punpckldq %xmm4,%xmm0
    564e:	c1 eb 10             	shr    $0x10,%ebx
    5651:	41 89 c3             	mov    %eax,%r11d
    5654:	89 c5                	mov    %eax,%ebp
    5656:	c1 ea 14             	shr    $0x14,%edx
    5659:	c1 ef 18             	shr    $0x18,%edi
    565c:	66 0f 6c c1          	punpcklqdq %xmm1,%xmm0
    5660:	66 0f 6e cb          	movd   %ebx,%xmm1
    5664:	c1 e9 1c             	shr    $0x1c,%ecx
    5667:	66 0f 6e e2          	movd   %edx,%xmm4
    566b:	66 0f 6e d7          	movd   %edi,%xmm2
    566f:	89 c2                	mov    %eax,%edx
    5671:	66 0f 6e f1          	movd   %ecx,%xmm6
    5675:	66 0f 62 cc          	punpckldq %xmm4,%xmm1
    5679:	89 c1                	mov    %eax,%ecx
    567b:	89 c7                	mov    %eax,%edi
    567d:	c1 ea 02             	shr    $0x2,%edx
    5680:	66 0f 62 d6          	punpckldq %xmm6,%xmm2
    5684:	89 c3                	mov    %eax,%ebx
    5686:	41 c1 e8 0a          	shr    $0xa,%r8d
    568a:	66 0f 6c ca          	punpcklqdq %xmm2,%xmm1
    568e:	66 0f 6f d0          	movdqa %xmm0,%xmm2
    5692:	c1 e9 12             	shr    $0x12,%ecx
    5695:	83 e2 03             	and    $0x3,%edx
    5698:	66 0f 61 c1          	punpcklwd %xmm1,%xmm0
    569c:	66 0f 69 d1          	punpckhwd %xmm1,%xmm2
    56a0:	c1 ef 1a             	shr    $0x1a,%edi
    56a3:	41 83 e0 03          	and    $0x3,%r8d
    56a7:	66 0f 6f c8          	movdqa %xmm0,%xmm1
    56ab:	c1 eb 06             	shr    $0x6,%ebx
    56ae:	66 0f 61 c2          	punpcklwd %xmm2,%xmm0
    56b2:	83 e1 03             	and    $0x3,%ecx
    56b5:	66 0f 69 ca          	punpckhwd %xmm2,%xmm1
    56b9:	41 c1 eb 16          	shr    $0x16,%r11d
    56bd:	83 e7 03             	and    $0x3,%edi
    56c0:	83 e3 03             	and    $0x3,%ebx
    56c3:	66 0f 61 c1          	punpcklwd %xmm1,%xmm0
    56c7:	66 c1 ed 0e          	shr    $0xe,%bp
    56cb:	41 83 e3 03          	and    $0x3,%r11d
    56cf:	66 0f 6e ca          	movd   %edx,%xmm1
    56d3:	66 41 0f 6e e8       	movd   %r8d,%xmm5
    56d8:	c1 e8 1e             	shr    $0x1e,%eax
    56db:	66 0f 6e d1          	movd   %ecx,%xmm2
    56df:	66 0f 6e e7          	movd   %edi,%xmm4
    56e3:	66 0f c4 cb 01       	pinsrw $0x1,%ebx,%xmm1
    56e8:	66 0f c4 ed 01       	pinsrw $0x1,%ebp,%xmm5
    56ed:	66 41 0f c4 d3 01    	pinsrw $0x1,%r11d,%xmm2
    56f3:	66 0f c4 e0 01       	pinsrw $0x1,%eax,%xmm4
    56f8:	66 0f 62 cd          	punpckldq %xmm5,%xmm1
    56fc:	66 0f db c3          	pand   %xmm3,%xmm0
    5700:	66 0f 62 d4          	punpckldq %xmm4,%xmm2
    5704:	66 0f 6c ca          	punpcklqdq %xmm2,%xmm1
    5708:	66 0f f9 c1          	psubw  %xmm1,%xmm0
    570c:	0f 11 46 f0          	movups %xmm0,-0x10(%rsi)
    5710:	4d 39 ca             	cmp    %r9,%r10
    5713:	0f 85 e7 fe ff ff    	jne    5600 <cbd2+0x4e0>
    5719:	5b                   	pop    %rbx
    571a:	5d                   	pop    %rbp
    571b:	c3                   	ret    
    571c:	0f 1f 40 00          	nopl   0x0(%rax)

0000000000005720 <pqcrystals_kyber1024_ref_poly_cbd_eta1>:
    5720:	f3 0f 1e fa          	endbr64 
    5724:	e9 f7 f9 ff ff       	jmp    5120 <cbd2>
    5729:	0f 1f 80 00 00 00 00 	nopl   0x0(%rax)

0000000000005730 <pqcrystals_kyber1024_ref_poly_cbd_eta2>:
    5730:	f3 0f 1e fa          	endbr64 
    5734:	e9 e7 f9 ff ff       	jmp    5120 <cbd2>
    5739:	0f 1f 80 00 00 00 00 	nopl   0x0(%rax)

0000000000005740 <pqcrystals_kyber1024_ref_montgomery_reduce>:
    5740:	f3 0f 1e fa          	endbr64 
    5744:	66 69 c7 01 f3       	imul   $0xf301,%di,%ax
    5749:	98                   	cwtl   
    574a:	69 c0 ff f2 ff ff    	imul   $0xfffff2ff,%eax,%eax
    5750:	01 f8                	add    %edi,%eax
    5752:	c1 e8 10             	shr    $0x10,%eax
    5755:	c3                   	ret    
    5756:	66 2e 0f 1f 84 00 00 	cs nopw 0x0(%rax,%rax,1)
    575d:	00 00 00 

0000000000005760 <pqcrystals_kyber1024_ref_barrett_reduce>:
    5760:	f3 0f 1e fa          	endbr64 
    5764:	0f bf d7             	movswl %di,%edx
    5767:	89 f8                	mov    %edi,%eax
    5769:	69 d2 bf 4e 00 00    	imul   $0x4ebf,%edx,%edx
    576f:	81 c2 00 00 00 02    	add    $0x2000000,%edx
    5775:	c1 fa 1a             	sar    $0x1a,%edx
    5778:	66 69 d2 01 0d       	imul   $0xd01,%dx,%dx
    577d:	29 d0                	sub    %edx,%eax
    577f:	c3                   	ret    

0000000000005780 <pqcrystals_kyber1024_ref_verify>:
    5780:	f3 0f 1e fa          	endbr64 
    5784:	48 85 d2             	test   %rdx,%rdx
    5787:	0f 84 d3 01 00 00    	je     5960 <pqcrystals_kyber1024_ref_verify+0x1e0>
    578d:	48 8d 42 ff          	lea    -0x1(%rdx),%rax
    5791:	49 89 f0             	mov    %rsi,%r8
    5794:	49 89 d1             	mov    %rdx,%r9
    5797:	48 83 f8 0e          	cmp    $0xe,%rax
    579b:	0f 86 c2 01 00 00    	jbe    5963 <pqcrystals_kyber1024_ref_verify+0x1e3>
    57a1:	48 83 e2 f0          	and    $0xfffffffffffffff0,%rdx
    57a5:	31 c0                	xor    %eax,%eax
    57a7:	66 0f ef c0          	pxor   %xmm0,%xmm0
    57ab:	0f 1f 44 00 00       	nopl   0x0(%rax,%rax,1)
    57b0:	f3 0f 6f 0c 07       	movdqu (%rdi,%rax,1),%xmm1
    57b5:	f3 41 0f 6f 14 00    	movdqu (%r8,%rax,1),%xmm2
    57bb:	48 83 c0 10          	add    $0x10,%rax
    57bf:	66 0f ef ca          	pxor   %xmm2,%xmm1
    57c3:	66 0f eb c1          	por    %xmm1,%xmm0
    57c7:	48 39 d0             	cmp    %rdx,%rax
    57ca:	75 e4                	jne    57b0 <pqcrystals_kyber1024_ref_verify+0x30>
    57cc:	66 0f 6f c8          	movdqa %xmm0,%xmm1
    57d0:	4c 89 ce             	mov    %r9,%rsi
    57d3:	66 0f 73 d9 08       	psrldq $0x8,%xmm1
    57d8:	48 83 e6 f0          	and    $0xfffffffffffffff0,%rsi
    57dc:	66 0f eb c1          	por    %xmm1,%xmm0
    57e0:	66 0f 6f c8          	movdqa %xmm0,%xmm1
    57e4:	66 0f 73 d9 04       	psrldq $0x4,%xmm1
    57e9:	66 0f eb c1          	por    %xmm1,%xmm0
    57ed:	66 0f 6f c8          	movdqa %xmm0,%xmm1
    57f1:	66 0f 73 d9 02       	psrldq $0x2,%xmm1
    57f6:	66 0f eb c1          	por    %xmm1,%xmm0
    57fa:	66 0f 6f c8          	movdqa %xmm0,%xmm1
    57fe:	66 0f 73 d9 01       	psrldq $0x1,%xmm1
    5803:	66 0f eb c1          	por    %xmm1,%xmm0
    5807:	66 0f 7e c0          	movd   %xmm0,%eax
    580b:	41 f6 c1 0f          	test   $0xf,%r9b
    580f:	0f 84 57 01 00 00    	je     596c <pqcrystals_kyber1024_ref_verify+0x1ec>
    5815:	4d 89 ca             	mov    %r9,%r10
    5818:	53                   	push   %rbx
    5819:	49 29 f2             	sub    %rsi,%r10
    581c:	49 8d 52 ff          	lea    -0x1(%r10),%rdx
    5820:	48 83 fa 06          	cmp    $0x6,%rdx
    5824:	0f 86 a2 00 00 00    	jbe    58cc <pqcrystals_kyber1024_ref_verify+0x14c>
    582a:	f3 41 0f 7e 04 30    	movq   (%r8,%rsi,1),%xmm0
    5830:	f3 0f 7e 0c 37       	movq   (%rdi,%rsi,1),%xmm1
    5835:	66 0f ef c8          	pxor   %xmm0,%xmm1
    5839:	66 48 0f 7e c9       	movq   %xmm1,%rcx
    583e:	66 0f d6 4c 24 f8    	movq   %xmm1,-0x8(%rsp)
    5844:	89 ca                	mov    %ecx,%edx
    5846:	0f b6 dd             	movzbl %ch,%ebx
    5849:	66 0f d6 4c 24 f0    	movq   %xmm1,-0x10(%rsp)
    584f:	09 da                	or     %ebx,%edx
    5851:	66 0f d6 4c 24 e8    	movq   %xmm1,-0x18(%rsp)
    5857:	09 c2                	or     %eax,%edx
    5859:	66 48 0f 7e c8       	movq   %xmm1,%rax
    585e:	66 0f d6 4c 24 e0    	movq   %xmm1,-0x20(%rsp)
    5864:	48 c1 e8 10          	shr    $0x10,%rax
    5868:	66 0f d6 4c 24 d8    	movq   %xmm1,-0x28(%rsp)
    586e:	09 c2                	or     %eax,%edx
    5870:	66 48 0f 7e c8       	movq   %xmm1,%rax
    5875:	66 0f d6 4c 24 d0    	movq   %xmm1,-0x30(%rsp)
    587b:	48 c1 e8 18          	shr    $0x18,%rax
    587f:	66 0f d6 4c 24 c8    	movq   %xmm1,-0x38(%rsp)
    5885:	09 c2                	or     %eax,%edx
    5887:	66 48 0f 7e c8       	movq   %xmm1,%rax
    588c:	66 0f d6 4c 24 c0    	movq   %xmm1,-0x40(%rsp)
    5892:	48 c1 e8 20          	shr    $0x20,%rax
    5896:	09 c2                	or     %eax,%edx
    5898:	66 48 0f 7e c8       	movq   %xmm1,%rax
    589d:	48 c1 e8 28          	shr    $0x28,%rax
    58a1:	09 c2                	or     %eax,%edx
    58a3:	66 48 0f 7e c8       	movq   %xmm1,%rax
    58a8:	48 c1 e8 30          	shr    $0x30,%rax
    58ac:	09 c2                	or     %eax,%edx
    58ae:	66 48 0f 7e c8       	movq   %xmm1,%rax
    58b3:	48 c1 e8 38          	shr    $0x38,%rax
    58b7:	09 d0                	or     %edx,%eax
    58b9:	4c 89 d2             	mov    %r10,%rdx
    58bc:	48 83 e2 f8          	and    $0xfffffffffffffff8,%rdx
    58c0:	48 01 d6             	add    %rdx,%rsi
    58c3:	49 39 d2             	cmp    %rdx,%r10
    58c6:	0f 84 88 00 00 00    	je     5954 <pqcrystals_kyber1024_ref_verify+0x1d4>
    58cc:	0f b6 14 37          	movzbl (%rdi,%rsi,1),%edx
    58d0:	41 32 14 30          	xor    (%r8,%rsi,1),%dl
    58d4:	09 d0                	or     %edx,%eax
    58d6:	48 8d 56 01          	lea    0x1(%rsi),%rdx
    58da:	49 39 d1             	cmp    %rdx,%r9
    58dd:	76 75                	jbe    5954 <pqcrystals_kyber1024_ref_verify+0x1d4>
    58df:	41 0f b6 54 30 01    	movzbl 0x1(%r8,%rsi,1),%edx
    58e5:	32 54 37 01          	xor    0x1(%rdi,%rsi,1),%dl
    58e9:	09 d0                	or     %edx,%eax
    58eb:	48 8d 56 02          	lea    0x2(%rsi),%rdx
    58ef:	49 39 d1             	cmp    %rdx,%r9
    58f2:	76 60                	jbe    5954 <pqcrystals_kyber1024_ref_verify+0x1d4>
    58f4:	0f b6 54 37 02       	movzbl 0x2(%rdi,%rsi,1),%edx
    58f9:	41 32 54 30 02       	xor    0x2(%r8,%rsi,1),%dl
    58fe:	09 d0                	or     %edx,%eax
    5900:	48 8d 56 03          	lea    0x3(%rsi),%rdx
    5904:	49 39 d1             	cmp    %rdx,%r9
    5907:	76 4b                	jbe    5954 <pqcrystals_kyber1024_ref_verify+0x1d4>
    5909:	0f b6 54 37 03       	movzbl 0x3(%rdi,%rsi,1),%edx
    590e:	41 32 54 30 03       	xor    0x3(%r8,%rsi,1),%dl
    5913:	09 d0                	or     %edx,%eax
    5915:	48 8d 56 04          	lea    0x4(%rsi),%rdx
    5919:	49 39 d1             	cmp    %rdx,%r9
    591c:	76 36                	jbe    5954 <pqcrystals_kyber1024_ref_verify+0x1d4>
    591e:	0f b6 54 37 04       	movzbl 0x4(%rdi,%rsi,1),%edx
    5923:	41 32 54 30 04       	xor    0x4(%r8,%rsi,1),%dl
    5928:	09 d0                	or     %edx,%eax
    592a:	48 8d 56 05          	lea    0x5(%rsi),%rdx
    592e:	49 39 d1             	cmp    %rdx,%r9
    5931:	76 21                	jbe    5954 <pqcrystals_kyber1024_ref_verify+0x1d4>
    5933:	0f b6 54 37 05       	movzbl 0x5(%rdi,%rsi,1),%edx
    5938:	41 32 54 30 05       	xor    0x5(%r8,%rsi,1),%dl
    593d:	09 d0                	or     %edx,%eax
    593f:	48 8d 56 06          	lea    0x6(%rsi),%rdx
    5943:	49 39 d1             	cmp    %rdx,%r9
    5946:	76 0c                	jbe    5954 <pqcrystals_kyber1024_ref_verify+0x1d4>
    5948:	0f b6 54 37 06       	movzbl 0x6(%rdi,%rsi,1),%edx
    594d:	41 32 54 30 06       	xor    0x6(%r8,%rsi,1),%dl
    5952:	09 d0                	or     %edx,%eax
    5954:	0f b6 c0             	movzbl %al,%eax
    5957:	5b                   	pop    %rbx
    5958:	48 f7 d8             	neg    %rax
    595b:	48 c1 e8 3f          	shr    $0x3f,%rax
    595f:	c3                   	ret    
    5960:	31 c0                	xor    %eax,%eax
    5962:	c3                   	ret    
    5963:	31 c0                	xor    %eax,%eax
    5965:	31 f6                	xor    %esi,%esi
    5967:	e9 a9 fe ff ff       	jmp    5815 <pqcrystals_kyber1024_ref_verify+0x95>
    596c:	0f b6 c0             	movzbl %al,%eax
    596f:	48 f7 d8             	neg    %rax
    5972:	48 c1 e8 3f          	shr    $0x3f,%rax
    5976:	c3                   	ret    
    5977:	66 0f 1f 84 00 00 00 	nopw   0x0(%rax,%rax,1)
    597e:	00 00 

0000000000005980 <pqcrystals_kyber1024_ref_cmov>:
    5980:	f3 0f 1e fa          	endbr64 
    5984:	f7 d9                	neg    %ecx
    5986:	48 85 d2             	test   %rdx,%rdx
    5989:	0f 84 f9 01 00 00    	je     5b88 <pqcrystals_kyber1024_ref_cmov+0x208>
    598f:	4c 8d 4e 01          	lea    0x1(%rsi),%r9
    5993:	49 89 f8             	mov    %rdi,%r8
    5996:	48 8d 42 ff          	lea    -0x1(%rdx),%rax
    599a:	4d 29 c8             	sub    %r9,%r8
    599d:	49 83 f8 0e          	cmp    $0xe,%r8
    59a1:	0f 86 b9 01 00 00    	jbe    5b60 <pqcrystals_kyber1024_ref_cmov+0x1e0>
    59a7:	48 83 f8 06          	cmp    $0x6,%rax
    59ab:	0f 86 af 01 00 00    	jbe    5b60 <pqcrystals_kyber1024_ref_cmov+0x1e0>
    59b1:	48 83 f8 0e          	cmp    $0xe,%rax
    59b5:	0f 86 ce 01 00 00    	jbe    5b89 <pqcrystals_kyber1024_ref_cmov+0x209>
    59bb:	66 0f 6e c9          	movd   %ecx,%xmm1
    59bf:	49 89 d0             	mov    %rdx,%r8
    59c2:	31 c0                	xor    %eax,%eax
    59c4:	66 0f 60 c9          	punpcklbw %xmm1,%xmm1
    59c8:	49 83 e0 f0          	and    $0xfffffffffffffff0,%r8
    59cc:	66 0f 61 c9          	punpcklwd %xmm1,%xmm1
    59d0:	66 0f 70 c9 00       	pshufd $0x0,%xmm1,%xmm1
    59d5:	0f 1f 00             	nopl   (%rax)
    59d8:	f3 0f 6f 1c 07       	movdqu (%rdi,%rax,1),%xmm3
    59dd:	f3 0f 6f 04 06       	movdqu (%rsi,%rax,1),%xmm0
    59e2:	66 0f ef c3          	pxor   %xmm3,%xmm0
    59e6:	66 0f db c1          	pand   %xmm1,%xmm0
    59ea:	66 0f ef c3          	pxor   %xmm3,%xmm0
    59ee:	0f 11 04 07          	movups %xmm0,(%rdi,%rax,1)
    59f2:	48 83 c0 10          	add    $0x10,%rax
    59f6:	49 39 c0             	cmp    %rax,%r8
    59f9:	75 dd                	jne    59d8 <pqcrystals_kyber1024_ref_cmov+0x58>
    59fb:	48 89 d0             	mov    %rdx,%rax
    59fe:	48 83 e0 f0          	and    $0xfffffffffffffff0,%rax
    5a02:	f6 c2 0f             	test   $0xf,%dl
    5a05:	0f 84 7d 01 00 00    	je     5b88 <pqcrystals_kyber1024_ref_cmov+0x208>
    5a0b:	49 89 d2             	mov    %rdx,%r10
    5a0e:	49 29 c2             	sub    %rax,%r10
    5a11:	4d 8d 42 ff          	lea    -0x1(%r10),%r8
    5a15:	49 83 f8 06          	cmp    $0x6,%r8
    5a19:	76 4a                	jbe    5a65 <pqcrystals_kyber1024_ref_cmov+0xe5>
    5a1b:	41 89 c8             	mov    %ecx,%r8d
    5a1e:	4c 8d 1c 07          	lea    (%rdi,%rax,1),%r11
    5a22:	44 0f b6 c9          	movzbl %cl,%r9d
    5a26:	f3 0f 7e 04 06       	movq   (%rsi,%rax,1),%xmm0
    5a2b:	41 c1 e0 08          	shl    $0x8,%r8d
    5a2f:	f3 41 0f 7e 0b       	movq   (%r11),%xmm1
    5a34:	45 09 c8             	or     %r9d,%r8d
    5a37:	66 41 0f 6e e8       	movd   %r8d,%xmm5
    5a3c:	66 0f ef c1          	pxor   %xmm1,%xmm0
    5a40:	4d 89 d0             	mov    %r10,%r8
    5a43:	f2 0f 70 d5 00       	pshuflw $0x0,%xmm5,%xmm2
    5a48:	49 83 e0 f8          	and    $0xfffffffffffffff8,%r8
    5a4c:	66 0f db c2          	pand   %xmm2,%xmm0
    5a50:	4c 01 c0             	add    %r8,%rax
    5a53:	66 0f ef c1          	pxor   %xmm1,%xmm0
    5a57:	66 41 0f d6 03       	movq   %xmm0,(%r11)
    5a5c:	4d 39 c2             	cmp    %r8,%r10
    5a5f:	0f 84 23 01 00 00    	je     5b88 <pqcrystals_kyber1024_ref_cmov+0x208>
    5a65:	4c 8d 0c 07          	lea    (%rdi,%rax,1),%r9
    5a69:	44 0f b6 04 06       	movzbl (%rsi,%rax,1),%r8d
    5a6e:	45 0f b6 11          	movzbl (%r9),%r10d
    5a72:	45 31 d0             	xor    %r10d,%r8d
    5a75:	41 21 c8             	and    %ecx,%r8d
    5a78:	45 31 d0             	xor    %r10d,%r8d
    5a7b:	45 88 01             	mov    %r8b,(%r9)
    5a7e:	4c 8d 40 01          	lea    0x1(%rax),%r8
    5a82:	4c 39 c2             	cmp    %r8,%rdx
    5a85:	0f 86 fd 00 00 00    	jbe    5b88 <pqcrystals_kyber1024_ref_cmov+0x208>
    5a8b:	49 01 f8             	add    %rdi,%r8
    5a8e:	44 0f b6 4c 06 01    	movzbl 0x1(%rsi,%rax,1),%r9d
    5a94:	45 0f b6 10          	movzbl (%r8),%r10d
    5a98:	45 31 d1             	xor    %r10d,%r9d
    5a9b:	41 21 c9             	and    %ecx,%r9d
    5a9e:	45 31 d1             	xor    %r10d,%r9d
    5aa1:	45 88 08             	mov    %r9b,(%r8)
    5aa4:	4c 8d 40 02          	lea    0x2(%rax),%r8
    5aa8:	4c 39 c2             	cmp    %r8,%rdx
    5aab:	0f 86 d7 00 00 00    	jbe    5b88 <pqcrystals_kyber1024_ref_cmov+0x208>
    5ab1:	49 01 f8             	add    %rdi,%r8
    5ab4:	44 0f b6 4c 06 02    	movzbl 0x2(%rsi,%rax,1),%r9d
    5aba:	45 0f b6 10          	movzbl (%r8),%r10d
    5abe:	45 31 d1             	xor    %r10d,%r9d
    5ac1:	41 21 c9             	and    %ecx,%r9d
    5ac4:	45 31 d1             	xor    %r10d,%r9d
    5ac7:	45 88 08             	mov    %r9b,(%r8)
    5aca:	4c 8d 40 03          	lea    0x3(%rax),%r8
    5ace:	4c 39 c2             	cmp    %r8,%rdx
    5ad1:	0f 86 b1 00 00 00    	jbe    5b88 <pqcrystals_kyber1024_ref_cmov+0x208>
    5ad7:	49 01 f8             	add    %rdi,%r8
    5ada:	44 0f b6 4c 06 03    	movzbl 0x3(%rsi,%rax,1),%r9d
    5ae0:	45 0f b6 10          	movzbl (%r8),%r10d
    5ae4:	45 31 d1             	xor    %r10d,%r9d
    5ae7:	41 21 c9             	and    %ecx,%r9d
    5aea:	45 31 d1             	xor    %r10d,%r9d
    5aed:	45 88 08             	mov    %r9b,(%r8)
    5af0:	4c 8d 40 04          	lea    0x4(%rax),%r8
    5af4:	4c 39 c2             	cmp    %r8,%rdx
    5af7:	0f 86 8b 00 00 00    	jbe    5b88 <pqcrystals_kyber1024_ref_cmov+0x208>
    5afd:	49 01 f8             	add    %rdi,%r8
    5b00:	44 0f b6 4c 06 04    	movzbl 0x4(%rsi,%rax,1),%r9d
    5b06:	45 0f b6 10          	movzbl (%r8),%r10d
    5b0a:	45 31 d1             	xor    %r10d,%r9d
    5b0d:	41 21 c9             	and    %ecx,%r9d
    5b10:	45 31 d1             	xor    %r10d,%r9d
    5b13:	45 88 08             	mov    %r9b,(%r8)
    5b16:	4c 8d 40 05          	lea    0x5(%rax),%r8
    5b1a:	4c 39 c2             	cmp    %r8,%rdx
    5b1d:	76 69                	jbe    5b88 <pqcrystals_kyber1024_ref_cmov+0x208>
    5b1f:	49 01 f8             	add    %rdi,%r8
    5b22:	44 0f b6 4c 06 05    	movzbl 0x5(%rsi,%rax,1),%r9d
    5b28:	45 0f b6 10          	movzbl (%r8),%r10d
    5b2c:	45 31 d1             	xor    %r10d,%r9d
    5b2f:	41 21 c9             	and    %ecx,%r9d
    5b32:	45 31 d1             	xor    %r10d,%r9d
    5b35:	45 88 08             	mov    %r9b,(%r8)
    5b38:	4c 8d 40 06          	lea    0x6(%rax),%r8
    5b3c:	4c 39 c2             	cmp    %r8,%rdx
    5b3f:	76 47                	jbe    5b88 <pqcrystals_kyber1024_ref_cmov+0x208>
    5b41:	49 01 f8             	add    %rdi,%r8
    5b44:	0f b6 7c 06 06       	movzbl 0x6(%rsi,%rax,1),%edi
    5b49:	41 0f b6 10          	movzbl (%r8),%edx
    5b4d:	31 d7                	xor    %edx,%edi
    5b4f:	89 f8                	mov    %edi,%eax
    5b51:	21 c8                	and    %ecx,%eax
    5b53:	31 d0                	xor    %edx,%eax
    5b55:	41 88 00             	mov    %al,(%r8)
    5b58:	c3                   	ret    
    5b59:	0f 1f 80 00 00 00 00 	nopl   0x0(%rax)
    5b60:	31 c0                	xor    %eax,%eax
    5b62:	66 0f 1f 44 00 00    	nopw   0x0(%rax,%rax,1)
