
./test_kyber1024:     file format elf64-x86-64


Disassembly of section .init:

0000000000001000 <_init>:
    1000:	f3 0f 1e fa          	endbr64 
    1004:	48 83 ec 08          	sub    $0x8,%rsp
    1008:	48 8b 05 d9 cf 00 00 	mov    0xcfd9(%rip),%rax        # dfe8 <__gmon_start__>
    100f:	48 85 c0             	test   %rax,%rax
    1012:	74 02                	je     1016 <_init+0x16>
    1014:	ff d0                	callq  *%rax
    1016:	48 83 c4 08          	add    $0x8,%rsp
    101a:	c3                   	retq   

Disassembly of section .plt:

0000000000001020 <.plt>:
    1020:	ff 35 2a cf 00 00    	pushq  0xcf2a(%rip)        # df50 <_GLOBAL_OFFSET_TABLE_+0x8>
    1026:	f2 ff 25 2b cf 00 00 	bnd jmpq *0xcf2b(%rip)        # df58 <_GLOBAL_OFFSET_TABLE_+0x10>
    102d:	0f 1f 00             	nopl   (%rax)
    1030:	f3 0f 1e fa          	endbr64 
    1034:	68 00 00 00 00       	pushq  $0x0
    1039:	f2 e9 e1 ff ff ff    	bnd jmpq 1020 <.plt>
    103f:	90                   	nop
    1040:	f3 0f 1e fa          	endbr64 
    1044:	68 01 00 00 00       	pushq  $0x1
    1049:	f2 e9 d1 ff ff ff    	bnd jmpq 1020 <.plt>
    104f:	90                   	nop
    1050:	f3 0f 1e fa          	endbr64 
    1054:	68 02 00 00 00       	pushq  $0x2
    1059:	f2 e9 c1 ff ff ff    	bnd jmpq 1020 <.plt>
    105f:	90                   	nop
    1060:	f3 0f 1e fa          	endbr64 
    1064:	68 03 00 00 00       	pushq  $0x3
    1069:	f2 e9 b1 ff ff ff    	bnd jmpq 1020 <.plt>
    106f:	90                   	nop
    1070:	f3 0f 1e fa          	endbr64 
    1074:	68 04 00 00 00       	pushq  $0x4
    1079:	f2 e9 a1 ff ff ff    	bnd jmpq 1020 <.plt>
    107f:	90                   	nop
    1080:	f3 0f 1e fa          	endbr64 
    1084:	68 05 00 00 00       	pushq  $0x5
    1089:	f2 e9 91 ff ff ff    	bnd jmpq 1020 <.plt>
    108f:	90                   	nop
    1090:	f3 0f 1e fa          	endbr64 
    1094:	68 06 00 00 00       	pushq  $0x6
    1099:	f2 e9 81 ff ff ff    	bnd jmpq 1020 <.plt>
    109f:	90                   	nop
    10a0:	f3 0f 1e fa          	endbr64 
    10a4:	68 07 00 00 00       	pushq  $0x7
    10a9:	f2 e9 71 ff ff ff    	bnd jmpq 1020 <.plt>
    10af:	90                   	nop
    10b0:	f3 0f 1e fa          	endbr64 
    10b4:	68 08 00 00 00       	pushq  $0x8
    10b9:	f2 e9 61 ff ff ff    	bnd jmpq 1020 <.plt>
    10bf:	90                   	nop
    10c0:	f3 0f 1e fa          	endbr64 
    10c4:	68 09 00 00 00       	pushq  $0x9
    10c9:	f2 e9 51 ff ff ff    	bnd jmpq 1020 <.plt>
    10cf:	90                   	nop
    10d0:	f3 0f 1e fa          	endbr64 
    10d4:	68 0a 00 00 00       	pushq  $0xa
    10d9:	f2 e9 41 ff ff ff    	bnd jmpq 1020 <.plt>
    10df:	90                   	nop
    10e0:	f3 0f 1e fa          	endbr64 
    10e4:	68 0b 00 00 00       	pushq  $0xb
    10e9:	f2 e9 31 ff ff ff    	bnd jmpq 1020 <.plt>
    10ef:	90                   	nop
    10f0:	f3 0f 1e fa          	endbr64 
    10f4:	68 0c 00 00 00       	pushq  $0xc
    10f9:	f2 e9 21 ff ff ff    	bnd jmpq 1020 <.plt>
    10ff:	90                   	nop
    1100:	f3 0f 1e fa          	endbr64 
    1104:	68 0d 00 00 00       	pushq  $0xd
    1109:	f2 e9 11 ff ff ff    	bnd jmpq 1020 <.plt>
    110f:	90                   	nop
    1110:	f3 0f 1e fa          	endbr64 
    1114:	68 0e 00 00 00       	pushq  $0xe
    1119:	f2 e9 01 ff ff ff    	bnd jmpq 1020 <.plt>
    111f:	90                   	nop

Disassembly of section .plt.got:

0000000000001120 <__cxa_finalize@plt>:
    1120:	f3 0f 1e fa          	endbr64 
    1124:	f2 ff 25 cd ce 00 00 	bnd jmpq *0xcecd(%rip)        # dff8 <__cxa_finalize@GLIBC_2.2.5>
    112b:	0f 1f 44 00 00       	nopl   0x0(%rax,%rax,1)

Disassembly of section .plt.sec:

0000000000001130 <putchar@plt>:
    1130:	f3 0f 1e fa          	endbr64 
    1134:	f2 ff 25 25 ce 00 00 	bnd jmpq *0xce25(%rip)        # df60 <putchar@GLIBC_2.2.5>
    113b:	0f 1f 44 00 00       	nopl   0x0(%rax,%rax,1)

0000000000001140 <abort@plt>:
    1140:	f3 0f 1e fa          	endbr64 
    1144:	f2 ff 25 1d ce 00 00 	bnd jmpq *0xce1d(%rip)        # df68 <abort@GLIBC_2.2.5>
    114b:	0f 1f 44 00 00       	nopl   0x0(%rax,%rax,1)

0000000000001150 <__errno_location@plt>:
    1150:	f3 0f 1e fa          	endbr64 
    1154:	f2 ff 25 15 ce 00 00 	bnd jmpq *0xce15(%rip)        # df70 <__errno_location@GLIBC_2.2.5>
    115b:	0f 1f 44 00 00       	nopl   0x0(%rax,%rax,1)

0000000000001160 <puts@plt>:
    1160:	f3 0f 1e fa          	endbr64 
    1164:	f2 ff 25 0d ce 00 00 	bnd jmpq *0xce0d(%rip)        # df78 <puts@GLIBC_2.2.5>
    116b:	0f 1f 44 00 00       	nopl   0x0(%rax,%rax,1)

0000000000001170 <fclose@plt>:
    1170:	f3 0f 1e fa          	endbr64 
    1174:	f2 ff 25 05 ce 00 00 	bnd jmpq *0xce05(%rip)        # df80 <fclose@GLIBC_2.2.5>
    117b:	0f 1f 44 00 00       	nopl   0x0(%rax,%rax,1)

0000000000001180 <__stack_chk_fail@plt>:
    1180:	f3 0f 1e fa          	endbr64 
    1184:	f2 ff 25 fd cd 00 00 	bnd jmpq *0xcdfd(%rip)        # df88 <__stack_chk_fail@GLIBC_2.4>
    118b:	0f 1f 44 00 00       	nopl   0x0(%rax,%rax,1)

0000000000001190 <lseek@plt>:
    1190:	f3 0f 1e fa          	endbr64 
    1194:	f2 ff 25 f5 cd 00 00 	bnd jmpq *0xcdf5(%rip)        # df90 <lseek@GLIBC_2.2.5>
    119b:	0f 1f 44 00 00       	nopl   0x0(%rax,%rax,1)

00000000000011a0 <__assert_fail@plt>:
    11a0:	f3 0f 1e fa          	endbr64 
    11a4:	f2 ff 25 ed cd 00 00 	bnd jmpq *0xcded(%rip)        # df98 <__assert_fail@GLIBC_2.2.5>
    11ab:	0f 1f 44 00 00       	nopl   0x0(%rax,%rax,1)

00000000000011b0 <close@plt>:
    11b0:	f3 0f 1e fa          	endbr64 
    11b4:	f2 ff 25 e5 cd 00 00 	bnd jmpq *0xcde5(%rip)        # dfa0 <close@GLIBC_2.2.5>
    11bb:	0f 1f 44 00 00       	nopl   0x0(%rax,%rax,1)

00000000000011c0 <read@plt>:
    11c0:	f3 0f 1e fa          	endbr64 
    11c4:	f2 ff 25 dd cd 00 00 	bnd jmpq *0xcddd(%rip)        # dfa8 <read@GLIBC_2.2.5>
    11cb:	0f 1f 44 00 00       	nopl   0x0(%rax,%rax,1)

00000000000011d0 <syscall@plt>:
    11d0:	f3 0f 1e fa          	endbr64 
    11d4:	f2 ff 25 d5 cd 00 00 	bnd jmpq *0xcdd5(%rip)        # dfb0 <syscall@GLIBC_2.2.5>
    11db:	0f 1f 44 00 00       	nopl   0x0(%rax,%rax,1)

00000000000011e0 <__printf_chk@plt>:
    11e0:	f3 0f 1e fa          	endbr64 
    11e4:	f2 ff 25 cd cd 00 00 	bnd jmpq *0xcdcd(%rip)        # dfb8 <__printf_chk@GLIBC_2.3.4>
    11eb:	0f 1f 44 00 00       	nopl   0x0(%rax,%rax,1)

00000000000011f0 <open@plt>:
    11f0:	f3 0f 1e fa          	endbr64 
    11f4:	f2 ff 25 c5 cd 00 00 	bnd jmpq *0xcdc5(%rip)        # dfc0 <open@GLIBC_2.2.5>
    11fb:	0f 1f 44 00 00       	nopl   0x0(%rax,%rax,1)

0000000000001200 <fopen@plt>:
    1200:	f3 0f 1e fa          	endbr64 
    1204:	f2 ff 25 bd cd 00 00 	bnd jmpq *0xcdbd(%rip)        # dfc8 <fopen@GLIBC_2.2.5>
    120b:	0f 1f 44 00 00       	nopl   0x0(%rax,%rax,1)

0000000000001210 <fwrite@plt>:
    1210:	f3 0f 1e fa          	endbr64 
    1214:	f2 ff 25 b5 cd 00 00 	bnd jmpq *0xcdb5(%rip)        # dfd0 <fwrite@GLIBC_2.2.5>
    121b:	0f 1f 44 00 00       	nopl   0x0(%rax,%rax,1)

Disassembly of section .text:

0000000000001220 <main>:
    1220:	f3 0f 1e fa          	endbr64 
    1224:	53                   	push   %rbx
    1225:	e8 06 94 00 00       	callq  a630 <test_keys>
    122a:	89 c3                	mov    %eax,%ebx
    122c:	e8 8f 90 00 00       	callq  a2c0 <test_invalid_sk_a>
    1231:	09 c3                	or     %eax,%ebx
    1233:	e8 78 91 00 00       	callq  a3b0 <test_invalid_ciphertext>
    1238:	09 c3                	or     %eax,%ebx
    123a:	74 09                	je     1245 <main+0x25>
    123c:	bb 01 00 00 00       	mov    $0x1,%ebx
    1241:	89 d8                	mov    %ebx,%eax
    1243:	5b                   	pop    %rbx
    1244:	c3                   	retq   
    1245:	ba 60 0c 00 00       	mov    $0xc60,%edx
    124a:	48 8d 35 01 a1 00 00 	lea    0xa101(%rip),%rsi        # b352 <KeccakF_RoundConstants+0x172>
    1251:	bf 01 00 00 00       	mov    $0x1,%edi
    1256:	31 c0                	xor    %eax,%eax
    1258:	e8 83 ff ff ff       	callq  11e0 <__printf_chk@plt>
    125d:	ba 20 06 00 00       	mov    $0x620,%edx
    1262:	48 8d 35 05 a1 00 00 	lea    0xa105(%rip),%rsi        # b36e <KeccakF_RoundConstants+0x18e>
    1269:	31 c0                	xor    %eax,%eax
    126b:	bf 01 00 00 00       	mov    $0x1,%edi
    1270:	e8 6b ff ff ff       	callq  11e0 <__printf_chk@plt>
    1275:	ba 20 06 00 00       	mov    $0x620,%edx
    127a:	48 8d 35 09 a1 00 00 	lea    0xa109(%rip),%rsi        # b38a <KeccakF_RoundConstants+0x1aa>
    1281:	31 c0                	xor    %eax,%eax
    1283:	bf 01 00 00 00       	mov    $0x1,%edi
    1288:	e8 53 ff ff ff       	callq  11e0 <__printf_chk@plt>
    128d:	eb b2                	jmp    1241 <main+0x21>
    128f:	90                   	nop

0000000000001290 <_start>:
    1290:	f3 0f 1e fa          	endbr64 
    1294:	31 ed                	xor    %ebp,%ebp
    1296:	49 89 d1             	mov    %rdx,%r9
    1299:	5e                   	pop    %rsi
    129a:	48 89 e2             	mov    %rsp,%rdx
    129d:	48 83 e4 f0          	and    $0xfffffffffffffff0,%rsp
    12a1:	50                   	push   %rax
    12a2:	54                   	push   %rsp
    12a3:	4c 8d 05 c6 95 00 00 	lea    0x95c6(%rip),%r8        # a870 <__libc_csu_fini>
    12aa:	48 8d 0d 4f 95 00 00 	lea    0x954f(%rip),%rcx        # a800 <__libc_csu_init>
    12b1:	48 8d 3d 68 ff ff ff 	lea    -0x98(%rip),%rdi        # 1220 <main>
    12b8:	ff 15 22 cd 00 00    	callq  *0xcd22(%rip)        # dfe0 <__libc_start_main@GLIBC_2.2.5>
    12be:	f4                   	hlt    
    12bf:	90                   	nop

00000000000012c0 <deregister_tm_clones>:
    12c0:	48 8d 3d 49 cd 00 00 	lea    0xcd49(%rip),%rdi        # e010 <__TMC_END__>
    12c7:	48 8d 05 42 cd 00 00 	lea    0xcd42(%rip),%rax        # e010 <__TMC_END__>
    12ce:	48 39 f8             	cmp    %rdi,%rax
    12d1:	74 15                	je     12e8 <deregister_tm_clones+0x28>
    12d3:	48 8b 05 fe cc 00 00 	mov    0xccfe(%rip),%rax        # dfd8 <_ITM_deregisterTMCloneTable>
    12da:	48 85 c0             	test   %rax,%rax
    12dd:	74 09                	je     12e8 <deregister_tm_clones+0x28>
    12df:	ff e0                	jmpq   *%rax
    12e1:	0f 1f 80 00 00 00 00 	nopl   0x0(%rax)
    12e8:	c3                   	retq   
    12e9:	0f 1f 80 00 00 00 00 	nopl   0x0(%rax)

00000000000012f0 <register_tm_clones>:
    12f0:	48 8d 3d 19 cd 00 00 	lea    0xcd19(%rip),%rdi        # e010 <__TMC_END__>
    12f7:	48 8d 35 12 cd 00 00 	lea    0xcd12(%rip),%rsi        # e010 <__TMC_END__>
    12fe:	48 29 fe             	sub    %rdi,%rsi
    1301:	48 89 f0             	mov    %rsi,%rax
    1304:	48 c1 ee 3f          	shr    $0x3f,%rsi
    1308:	48 c1 f8 03          	sar    $0x3,%rax
    130c:	48 01 c6             	add    %rax,%rsi
    130f:	48 d1 fe             	sar    %rsi
    1312:	74 14                	je     1328 <register_tm_clones+0x38>
    1314:	48 8b 05 d5 cc 00 00 	mov    0xccd5(%rip),%rax        # dff0 <_ITM_registerTMCloneTable>
    131b:	48 85 c0             	test   %rax,%rax
    131e:	74 08                	je     1328 <register_tm_clones+0x38>
    1320:	ff e0                	jmpq   *%rax
    1322:	66 0f 1f 44 00 00    	nopw   0x0(%rax,%rax,1)
    1328:	c3                   	retq   
    1329:	0f 1f 80 00 00 00 00 	nopl   0x0(%rax)

0000000000001330 <__do_global_dtors_aux>:
    1330:	f3 0f 1e fa          	endbr64 
    1334:	80 3d e5 cc 00 00 00 	cmpb   $0x0,0xcce5(%rip)        # e020 <completed.8061>
    133b:	75 2b                	jne    1368 <__do_global_dtors_aux+0x38>
    133d:	55                   	push   %rbp
    133e:	48 83 3d b2 cc 00 00 	cmpq   $0x0,0xccb2(%rip)        # dff8 <__cxa_finalize@GLIBC_2.2.5>
    1345:	00 
    1346:	48 89 e5             	mov    %rsp,%rbp
    1349:	74 0c                	je     1357 <__do_global_dtors_aux+0x27>
    134b:	48 8b 3d b6 cc 00 00 	mov    0xccb6(%rip),%rdi        # e008 <__dso_handle>
    1352:	e8 c9 fd ff ff       	callq  1120 <__cxa_finalize@plt>
    1357:	e8 64 ff ff ff       	callq  12c0 <deregister_tm_clones>
    135c:	c6 05 bd cc 00 00 01 	movb   $0x1,0xccbd(%rip)        # e020 <completed.8061>
    1363:	5d                   	pop    %rbp
    1364:	c3                   	retq   
    1365:	0f 1f 00             	nopl   (%rax)
    1368:	c3                   	retq   
    1369:	0f 1f 80 00 00 00 00 	nopl   0x0(%rax)

0000000000001370 <frame_dummy>:
    1370:	f3 0f 1e fa          	endbr64 
    1374:	e9 77 ff ff ff       	jmpq   12f0 <register_tm_clones>
    1379:	0f 1f 80 00 00 00 00 	nopl   0x0(%rax)

0000000000001380 <kex_uake_initA>:
    1380:	f3 0f 1e fa          	endbr64 
    1384:	41 54                	push   %r12
    1386:	49 89 cc             	mov    %rcx,%r12
    1389:	55                   	push   %rbp
    138a:	48 89 f5             	mov    %rsi,%rbp
    138d:	48 89 d6             	mov    %rdx,%rsi
    1390:	53                   	push   %rbx
    1391:	48 89 fb             	mov    %rdi,%rbx
    1394:	e8 87 02 00 00       	callq  1620 <pqcrystals_kyber1024_ref_keypair>
    1399:	48 8d bb 20 06 00 00 	lea    0x620(%rbx),%rdi
    13a0:	4c 89 e2             	mov    %r12,%rdx
    13a3:	5b                   	pop    %rbx
    13a4:	48 89 ee             	mov    %rbp,%rsi
    13a7:	5d                   	pop    %rbp
    13a8:	41 5c                	pop    %r12
    13aa:	e9 21 03 00 00       	jmpq   16d0 <pqcrystals_kyber1024_ref_enc>
    13af:	90                   	nop

00000000000013b0 <kex_uake_sharedB>:
    13b0:	f3 0f 1e fa          	endbr64 
    13b4:	41 55                	push   %r13
    13b6:	41 54                	push   %r12
    13b8:	49 89 cc             	mov    %rcx,%r12
    13bb:	55                   	push   %rbp
    13bc:	48 89 f5             	mov    %rsi,%rbp
    13bf:	53                   	push   %rbx
    13c0:	48 89 d3             	mov    %rdx,%rbx
    13c3:	48 83 ec 58          	sub    $0x58,%rsp
    13c7:	64 48 8b 04 25 28 00 	mov    %fs:0x28,%rax
    13ce:	00 00 
    13d0:	48 89 44 24 48       	mov    %rax,0x48(%rsp)
    13d5:	31 c0                	xor    %eax,%eax
    13d7:	49 89 e5             	mov    %rsp,%r13
    13da:	4c 89 ee             	mov    %r13,%rsi
    13dd:	e8 ee 02 00 00       	callq  16d0 <pqcrystals_kyber1024_ref_enc>
    13e2:	48 8d b3 20 06 00 00 	lea    0x620(%rbx),%rsi
    13e9:	48 8d 7c 24 20       	lea    0x20(%rsp),%rdi
    13ee:	4c 89 e2             	mov    %r12,%rdx
    13f1:	e8 ba 03 00 00       	callq  17b0 <pqcrystals_kyber1024_ref_dec>
    13f6:	b9 40 00 00 00       	mov    $0x40,%ecx
    13fb:	4c 89 ea             	mov    %r13,%rdx
    13fe:	48 89 ef             	mov    %rbp,%rdi
    1401:	be 20 00 00 00       	mov    $0x20,%esi
    1406:	e8 45 84 00 00       	callq  9850 <pqcrystals_kyber_fips202_ref_shake256>
    140b:	48 8b 44 24 48       	mov    0x48(%rsp),%rax
    1410:	64 48 33 04 25 28 00 	xor    %fs:0x28,%rax
    1417:	00 00 
    1419:	75 0b                	jne    1426 <kex_uake_sharedB+0x76>
    141b:	48 83 c4 58          	add    $0x58,%rsp
    141f:	5b                   	pop    %rbx
    1420:	5d                   	pop    %rbp
    1421:	41 5c                	pop    %r12
    1423:	41 5d                	pop    %r13
    1425:	c3                   	retq   
    1426:	e8 55 fd ff ff       	callq  1180 <__stack_chk_fail@plt>
    142b:	0f 1f 44 00 00       	nopl   0x0(%rax,%rax,1)

0000000000001430 <kex_uake_sharedA>:
    1430:	f3 0f 1e fa          	endbr64 
    1434:	41 54                	push   %r12
    1436:	55                   	push   %rbp
    1437:	48 89 fd             	mov    %rdi,%rbp
    143a:	53                   	push   %rbx
    143b:	48 89 d3             	mov    %rdx,%rbx
    143e:	48 89 ca             	mov    %rcx,%rdx
    1441:	48 83 ec 50          	sub    $0x50,%rsp
    1445:	64 48 8b 04 25 28 00 	mov    %fs:0x28,%rax
    144c:	00 00 
    144e:	48 89 44 24 48       	mov    %rax,0x48(%rsp)
    1453:	31 c0                	xor    %eax,%eax
    1455:	49 89 e4             	mov    %rsp,%r12
    1458:	4c 89 e7             	mov    %r12,%rdi
    145b:	e8 50 03 00 00       	callq  17b0 <pqcrystals_kyber1024_ref_dec>
    1460:	f3 0f 6f 03          	movdqu (%rbx),%xmm0
    1464:	4c 89 e2             	mov    %r12,%rdx
    1467:	48 89 ef             	mov    %rbp,%rdi
    146a:	f3 0f 6f 4b 10       	movdqu 0x10(%rbx),%xmm1
    146f:	b9 40 00 00 00       	mov    $0x40,%ecx
    1474:	be 20 00 00 00       	mov    $0x20,%esi
    1479:	0f 29 44 24 20       	movaps %xmm0,0x20(%rsp)
    147e:	0f 29 4c 24 30       	movaps %xmm1,0x30(%rsp)
    1483:	e8 c8 83 00 00       	callq  9850 <pqcrystals_kyber_fips202_ref_shake256>
    1488:	48 8b 44 24 48       	mov    0x48(%rsp),%rax
    148d:	64 48 33 04 25 28 00 	xor    %fs:0x28,%rax
    1494:	00 00 
    1496:	75 09                	jne    14a1 <kex_uake_sharedA+0x71>
    1498:	48 83 c4 50          	add    $0x50,%rsp
    149c:	5b                   	pop    %rbx
    149d:	5d                   	pop    %rbp
    149e:	41 5c                	pop    %r12
    14a0:	c3                   	retq   
    14a1:	e8 da fc ff ff       	callq  1180 <__stack_chk_fail@plt>
    14a6:	66 2e 0f 1f 84 00 00 	nopw   %cs:0x0(%rax,%rax,1)
    14ad:	00 00 00 

00000000000014b0 <kex_ake_initA>:
    14b0:	f3 0f 1e fa          	endbr64 
    14b4:	41 54                	push   %r12
    14b6:	49 89 cc             	mov    %rcx,%r12
    14b9:	55                   	push   %rbp
    14ba:	48 89 f5             	mov    %rsi,%rbp
    14bd:	48 89 d6             	mov    %rdx,%rsi
    14c0:	53                   	push   %rbx
    14c1:	48 89 fb             	mov    %rdi,%rbx
    14c4:	e8 57 01 00 00       	callq  1620 <pqcrystals_kyber1024_ref_keypair>
    14c9:	48 8d bb 20 06 00 00 	lea    0x620(%rbx),%rdi
    14d0:	4c 89 e2             	mov    %r12,%rdx
    14d3:	5b                   	pop    %rbx
    14d4:	48 89 ee             	mov    %rbp,%rsi
    14d7:	5d                   	pop    %rbp
    14d8:	41 5c                	pop    %r12
    14da:	e9 f1 01 00 00       	jmpq   16d0 <pqcrystals_kyber1024_ref_enc>
    14df:	90                   	nop

00000000000014e0 <kex_ake_sharedB>:
    14e0:	f3 0f 1e fa          	endbr64 
    14e4:	41 57                	push   %r15
    14e6:	41 56                	push   %r14
    14e8:	4d 89 c6             	mov    %r8,%r14
    14eb:	41 55                	push   %r13
    14ed:	49 89 cd             	mov    %rcx,%r13
    14f0:	41 54                	push   %r12
    14f2:	49 89 f4             	mov    %rsi,%r12
    14f5:	55                   	push   %rbp
    14f6:	48 89 fd             	mov    %rdi,%rbp
    14f9:	53                   	push   %rbx
    14fa:	48 89 d3             	mov    %rdx,%rbx
    14fd:	48 83 ec 78          	sub    $0x78,%rsp
    1501:	64 48 8b 04 25 28 00 	mov    %fs:0x28,%rax
    1508:	00 00 
    150a:	48 89 44 24 68       	mov    %rax,0x68(%rsp)
    150f:	31 c0                	xor    %eax,%eax
    1511:	49 89 e7             	mov    %rsp,%r15
    1514:	4c 89 fe             	mov    %r15,%rsi
    1517:	e8 b4 01 00 00       	callq  16d0 <pqcrystals_kyber1024_ref_enc>
    151c:	48 8d 74 24 20       	lea    0x20(%rsp),%rsi
    1521:	48 8d bd 20 06 00 00 	lea    0x620(%rbp),%rdi
    1528:	4c 89 f2             	mov    %r14,%rdx
    152b:	e8 a0 01 00 00       	callq  16d0 <pqcrystals_kyber1024_ref_enc>
    1530:	48 8d b3 20 06 00 00 	lea    0x620(%rbx),%rsi
    1537:	48 8d 7c 24 40       	lea    0x40(%rsp),%rdi
    153c:	4c 89 ea             	mov    %r13,%rdx
    153f:	e8 6c 02 00 00       	callq  17b0 <pqcrystals_kyber1024_ref_dec>
    1544:	b9 60 00 00 00       	mov    $0x60,%ecx
    1549:	4c 89 fa             	mov    %r15,%rdx
    154c:	4c 89 e7             	mov    %r12,%rdi
    154f:	be 20 00 00 00       	mov    $0x20,%esi
    1554:	e8 f7 82 00 00       	callq  9850 <pqcrystals_kyber_fips202_ref_shake256>
    1559:	48 8b 44 24 68       	mov    0x68(%rsp),%rax
    155e:	64 48 33 04 25 28 00 	xor    %fs:0x28,%rax
    1565:	00 00 
    1567:	75 0f                	jne    1578 <kex_ake_sharedB+0x98>
    1569:	48 83 c4 78          	add    $0x78,%rsp
    156d:	5b                   	pop    %rbx
    156e:	5d                   	pop    %rbp
    156f:	41 5c                	pop    %r12
    1571:	41 5d                	pop    %r13
    1573:	41 5e                	pop    %r14
    1575:	41 5f                	pop    %r15
    1577:	c3                   	retq   
    1578:	e8 03 fc ff ff       	callq  1180 <__stack_chk_fail@plt>
    157d:	0f 1f 00             	nopl   (%rax)

0000000000001580 <kex_ake_sharedA>:
    1580:	f3 0f 1e fa          	endbr64 
    1584:	41 56                	push   %r14
    1586:	41 55                	push   %r13
    1588:	4d 89 c5             	mov    %r8,%r13
    158b:	41 54                	push   %r12
    158d:	49 89 fc             	mov    %rdi,%r12
    1590:	55                   	push   %rbp
    1591:	48 89 d5             	mov    %rdx,%rbp
    1594:	48 89 ca             	mov    %rcx,%rdx
    1597:	53                   	push   %rbx
    1598:	48 89 f3             	mov    %rsi,%rbx
    159b:	48 83 ec 70          	sub    $0x70,%rsp
    159f:	64 48 8b 04 25 28 00 	mov    %fs:0x28,%rax
    15a6:	00 00 
    15a8:	48 89 44 24 68       	mov    %rax,0x68(%rsp)
    15ad:	31 c0                	xor    %eax,%eax
    15af:	49 89 e6             	mov    %rsp,%r14
    15b2:	4c 89 f7             	mov    %r14,%rdi
    15b5:	e8 f6 01 00 00       	callq  17b0 <pqcrystals_kyber1024_ref_dec>
    15ba:	48 8d b3 20 06 00 00 	lea    0x620(%rbx),%rsi
    15c1:	48 8d 7c 24 20       	lea    0x20(%rsp),%rdi
    15c6:	4c 89 ea             	mov    %r13,%rdx
    15c9:	e8 e2 01 00 00       	callq  17b0 <pqcrystals_kyber1024_ref_dec>
    15ce:	f3 0f 6f 45 00       	movdqu 0x0(%rbp),%xmm0
    15d3:	4c 89 f2             	mov    %r14,%rdx
    15d6:	4c 89 e7             	mov    %r12,%rdi
    15d9:	f3 0f 6f 4d 10       	movdqu 0x10(%rbp),%xmm1
    15de:	b9 60 00 00 00       	mov    $0x60,%ecx
    15e3:	be 20 00 00 00       	mov    $0x20,%esi
    15e8:	0f 29 44 24 40       	movaps %xmm0,0x40(%rsp)
    15ed:	0f 29 4c 24 50       	movaps %xmm1,0x50(%rsp)
    15f2:	e8 59 82 00 00       	callq  9850 <pqcrystals_kyber_fips202_ref_shake256>
    15f7:	48 8b 44 24 68       	mov    0x68(%rsp),%rax
    15fc:	64 48 33 04 25 28 00 	xor    %fs:0x28,%rax
    1603:	00 00 
    1605:	75 0d                	jne    1614 <kex_ake_sharedA+0x94>
    1607:	48 83 c4 70          	add    $0x70,%rsp
    160b:	5b                   	pop    %rbx
    160c:	5d                   	pop    %rbp
    160d:	41 5c                	pop    %r12
    160f:	41 5d                	pop    %r13
    1611:	41 5e                	pop    %r14
    1613:	c3                   	retq   
    1614:	e8 67 fb ff ff       	callq  1180 <__stack_chk_fail@plt>
    1619:	0f 1f 80 00 00 00 00 	nopl   0x0(%rax)

0000000000001620 <pqcrystals_kyber1024_ref_keypair>:
    1620:	f3 0f 1e fa          	endbr64 
    1624:	55                   	push   %rbp
    1625:	48 89 fd             	mov    %rdi,%rbp
    1628:	53                   	push   %rbx
    1629:	48 89 f3             	mov    %rsi,%rbx
    162c:	48 83 ec 08          	sub    $0x8,%rsp
    1630:	e8 db 04 00 00       	callq  1b10 <pqcrystals_kyber1024_ref_indcpa_keypair>
    1635:	48 8d 93 00 06 00 00 	lea    0x600(%rbx),%rdx
    163c:	48 8d 45 10          	lea    0x10(%rbp),%rax
    1640:	48 39 c2             	cmp    %rax,%rdx
    1643:	73 0c                	jae    1651 <pqcrystals_kyber1024_ref_keypair+0x31>
    1645:	48 8d 83 10 06 00 00 	lea    0x610(%rbx),%rax
    164c:	48 39 c5             	cmp    %rax,%rbp
    164f:	72 4f                	jb     16a0 <pqcrystals_kyber1024_ref_keypair+0x80>
    1651:	31 c0                	xor    %eax,%eax
    1653:	0f 1f 44 00 00       	nopl   0x0(%rax,%rax,1)
    1658:	f3 0f 6f 44 05 00    	movdqu 0x0(%rbp,%rax,1),%xmm0
    165e:	0f 11 84 03 00 06 00 	movups %xmm0,0x600(%rbx,%rax,1)
    1665:	00 
    1666:	48 83 c0 10          	add    $0x10,%rax
    166a:	48 3d 20 06 00 00    	cmp    $0x620,%rax
    1670:	75 e6                	jne    1658 <pqcrystals_kyber1024_ref_keypair+0x38>
    1672:	48 8d bb 20 0c 00 00 	lea    0xc20(%rbx),%rdi
    1679:	48 89 ee             	mov    %rbp,%rsi
    167c:	ba 20 06 00 00       	mov    $0x620,%edx
    1681:	e8 0a 89 00 00       	callq  9f90 <pqcrystals_kyber_fips202_ref_sha3_256>
    1686:	48 8d bb 40 0c 00 00 	lea    0xc40(%rbx),%rdi
    168d:	be 20 00 00 00       	mov    $0x20,%esi
    1692:	e8 c9 8b 00 00       	callq  a260 <randombytes>
    1697:	48 83 c4 08          	add    $0x8,%rsp
    169b:	31 c0                	xor    %eax,%eax
    169d:	5b                   	pop    %rbx
    169e:	5d                   	pop    %rbp
    169f:	c3                   	retq   
    16a0:	31 c0                	xor    %eax,%eax
    16a2:	66 0f 1f 44 00 00    	nopw   0x0(%rax,%rax,1)
    16a8:	0f b6 54 05 00       	movzbl 0x0(%rbp,%rax,1),%edx
    16ad:	88 94 03 00 06 00 00 	mov    %dl,0x600(%rbx,%rax,1)
    16b4:	48 83 c0 01          	add    $0x1,%rax
    16b8:	48 3d 20 06 00 00    	cmp    $0x620,%rax
    16be:	75 e8                	jne    16a8 <pqcrystals_kyber1024_ref_keypair+0x88>
    16c0:	eb b0                	jmp    1672 <pqcrystals_kyber1024_ref_keypair+0x52>
    16c2:	66 66 2e 0f 1f 84 00 	data16 nopw %cs:0x0(%rax,%rax,1)
    16c9:	00 00 00 00 
    16cd:	0f 1f 00             	nopl   (%rax)

00000000000016d0 <pqcrystals_kyber1024_ref_enc>:
    16d0:	f3 0f 1e fa          	endbr64 
    16d4:	41 57                	push   %r15
    16d6:	41 56                	push   %r14
    16d8:	49 89 f6             	mov    %rsi,%r14
    16db:	be 20 00 00 00       	mov    $0x20,%esi
    16e0:	41 55                	push   %r13
    16e2:	49 89 d5             	mov    %rdx,%r13
    16e5:	41 54                	push   %r12
    16e7:	49 89 fc             	mov    %rdi,%r12
    16ea:	55                   	push   %rbp
    16eb:	53                   	push   %rbx
    16ec:	48 81 ec 98 00 00 00 	sub    $0x98,%rsp
    16f3:	64 48 8b 04 25 28 00 	mov    %fs:0x28,%rax
    16fa:	00 00 
    16fc:	48 89 84 24 88 00 00 	mov    %rax,0x88(%rsp)
    1703:	00 
    1704:	31 c0                	xor    %eax,%eax
    1706:	48 89 e5             	mov    %rsp,%rbp
    1709:	4c 8d 7c 24 40       	lea    0x40(%rsp),%r15
    170e:	48 8d 5c 24 60       	lea    0x60(%rsp),%rbx
    1713:	48 89 ef             	mov    %rbp,%rdi
    1716:	e8 45 8b 00 00       	callq  a260 <randombytes>
    171b:	ba 20 00 00 00       	mov    $0x20,%edx
    1720:	48 89 ee             	mov    %rbp,%rsi
    1723:	48 89 ef             	mov    %rbp,%rdi
    1726:	e8 65 88 00 00       	callq  9f90 <pqcrystals_kyber_fips202_ref_sha3_256>
    172b:	48 8d 7c 24 20       	lea    0x20(%rsp),%rdi
    1730:	ba 20 06 00 00       	mov    $0x620,%edx
    1735:	4c 89 ee             	mov    %r13,%rsi
    1738:	e8 53 88 00 00       	callq  9f90 <pqcrystals_kyber_fips202_ref_sha3_256>
    173d:	ba 40 00 00 00       	mov    $0x40,%edx
    1742:	48 89 ee             	mov    %rbp,%rsi
    1745:	4c 89 ff             	mov    %r15,%rdi
    1748:	e8 c3 88 00 00       	callq  a010 <pqcrystals_kyber_fips202_ref_sha3_512>
    174d:	48 89 d9             	mov    %rbx,%rcx
    1750:	4c 89 ea             	mov    %r13,%rdx
    1753:	48 89 ee             	mov    %rbp,%rsi
    1756:	4c 89 e7             	mov    %r12,%rdi
    1759:	e8 c2 07 00 00       	callq  1f20 <pqcrystals_kyber1024_ref_indcpa_enc>
    175e:	ba 20 06 00 00       	mov    $0x620,%edx
    1763:	4c 89 e6             	mov    %r12,%rsi
    1766:	48 89 df             	mov    %rbx,%rdi
    1769:	e8 22 88 00 00       	callq  9f90 <pqcrystals_kyber_fips202_ref_sha3_256>
    176e:	b9 40 00 00 00       	mov    $0x40,%ecx
    1773:	4c 89 fa             	mov    %r15,%rdx
    1776:	4c 89 f7             	mov    %r14,%rdi
    1779:	be 20 00 00 00       	mov    $0x20,%esi
    177e:	e8 cd 80 00 00       	callq  9850 <pqcrystals_kyber_fips202_ref_shake256>
    1783:	48 8b 84 24 88 00 00 	mov    0x88(%rsp),%rax
    178a:	00 
    178b:	64 48 33 04 25 28 00 	xor    %fs:0x28,%rax
    1792:	00 00 
    1794:	75 14                	jne    17aa <pqcrystals_kyber1024_ref_enc+0xda>
    1796:	48 81 c4 98 00 00 00 	add    $0x98,%rsp
    179d:	31 c0                	xor    %eax,%eax
    179f:	5b                   	pop    %rbx
    17a0:	5d                   	pop    %rbp
    17a1:	41 5c                	pop    %r12
    17a3:	41 5d                	pop    %r13
    17a5:	41 5e                	pop    %r14
    17a7:	41 5f                	pop    %r15
    17a9:	c3                   	retq   
    17aa:	e8 d1 f9 ff ff       	callq  1180 <__stack_chk_fail@plt>
    17af:	90                   	nop

00000000000017b0 <pqcrystals_kyber1024_ref_dec>:
    17b0:	f3 0f 1e fa          	endbr64 
    17b4:	41 57                	push   %r15
    17b6:	41 56                	push   %r14
    17b8:	41 55                	push   %r13
    17ba:	49 89 fd             	mov    %rdi,%r13
    17bd:	41 54                	push   %r12
    17bf:	49 89 f4             	mov    %rsi,%r12
    17c2:	55                   	push   %rbp
    17c3:	53                   	push   %rbx
    17c4:	48 89 d3             	mov    %rdx,%rbx
    17c7:	48 81 ec c8 06 00 00 	sub    $0x6c8,%rsp
    17ce:	64 48 8b 04 25 28 00 	mov    %fs:0x28,%rax
    17d5:	00 00 
    17d7:	48 89 84 24 b8 06 00 	mov    %rax,0x6b8(%rsp)
    17de:	00 
    17df:	31 c0                	xor    %eax,%eax
    17e1:	48 8d 6c 24 10       	lea    0x10(%rsp),%rbp
    17e6:	4c 8d 74 24 50       	lea    0x50(%rsp),%r14
    17eb:	48 89 ef             	mov    %rbp,%rdi
    17ee:	4c 8d 7c 24 70       	lea    0x70(%rsp),%r15
    17f3:	e8 98 0b 00 00       	callq  2390 <pqcrystals_kyber1024_ref_indcpa_dec>
    17f8:	48 89 ee             	mov    %rbp,%rsi
    17fb:	ba 40 00 00 00       	mov    $0x40,%edx
    1800:	4c 89 f7             	mov    %r14,%rdi
    1803:	f3 0f 6f 83 20 0c 00 	movdqu 0xc20(%rbx),%xmm0
    180a:	00 
    180b:	f3 0f 6f 8b 30 0c 00 	movdqu 0xc30(%rbx),%xmm1
    1812:	00 
    1813:	0f 29 44 24 30       	movaps %xmm0,0x30(%rsp)
    1818:	0f 29 4c 24 40       	movaps %xmm1,0x40(%rsp)
    181d:	e8 ee 87 00 00       	callq  a010 <pqcrystals_kyber_fips202_ref_sha3_512>
    1822:	4c 8d 84 24 90 00 00 	lea    0x90(%rsp),%r8
    1829:	00 
    182a:	4c 89 f9             	mov    %r15,%rcx
    182d:	48 89 ee             	mov    %rbp,%rsi
    1830:	4c 89 c7             	mov    %r8,%rdi
    1833:	48 8d 93 00 06 00 00 	lea    0x600(%rbx),%rdx
    183a:	4c 89 44 24 08       	mov    %r8,0x8(%rsp)
    183f:	e8 dc 06 00 00       	callq  1f20 <pqcrystals_kyber1024_ref_indcpa_enc>
    1844:	4c 8b 44 24 08       	mov    0x8(%rsp),%r8
    1849:	ba 20 06 00 00       	mov    $0x620,%edx
    184e:	4c 89 e7             	mov    %r12,%rdi
    1851:	4c 89 c6             	mov    %r8,%rsi
    1854:	e8 a7 41 00 00       	callq  5a00 <pqcrystals_kyber1024_ref_verify>
    1859:	ba 20 06 00 00       	mov    $0x620,%edx
    185e:	4c 89 e6             	mov    %r12,%rsi
    1861:	4c 89 ff             	mov    %r15,%rdi
    1864:	89 c5                	mov    %eax,%ebp
    1866:	e8 25 87 00 00       	callq  9f90 <pqcrystals_kyber_fips202_ref_sha3_256>
    186b:	40 0f b6 cd          	movzbl %bpl,%ecx
    186f:	ba 20 00 00 00       	mov    $0x20,%edx
    1874:	4c 89 f7             	mov    %r14,%rdi
    1877:	48 8d b3 40 0c 00 00 	lea    0xc40(%rbx),%rsi
    187e:	e8 9d 43 00 00       	callq  5c20 <pqcrystals_kyber1024_ref_cmov>
    1883:	b9 40 00 00 00       	mov    $0x40,%ecx
    1888:	4c 89 f2             	mov    %r14,%rdx
    188b:	4c 89 ef             	mov    %r13,%rdi
    188e:	be 20 00 00 00       	mov    $0x20,%esi
    1893:	e8 b8 7f 00 00       	callq  9850 <pqcrystals_kyber_fips202_ref_shake256>
    1898:	48 8b 84 24 b8 06 00 	mov    0x6b8(%rsp),%rax
    189f:	00 
    18a0:	64 48 33 04 25 28 00 	xor    %fs:0x28,%rax
    18a7:	00 00 
    18a9:	75 14                	jne    18bf <pqcrystals_kyber1024_ref_dec+0x10f>
    18ab:	48 81 c4 c8 06 00 00 	add    $0x6c8,%rsp
    18b2:	31 c0                	xor    %eax,%eax
    18b4:	5b                   	pop    %rbx
    18b5:	5d                   	pop    %rbp
    18b6:	41 5c                	pop    %r12
    18b8:	41 5d                	pop    %r13
    18ba:	41 5e                	pop    %r14
    18bc:	41 5f                	pop    %r15
    18be:	c3                   	retq   
    18bf:	e8 bc f8 ff ff       	callq  1180 <__stack_chk_fail@plt>
    18c4:	66 2e 0f 1f 84 00 00 	nopw   %cs:0x0(%rax,%rax,1)
    18cb:	00 00 00 
    18ce:	66 90                	xchg   %ax,%ax

00000000000018d0 <pqcrystals_kyber1024_ref_gen_matrix>:
    18d0:	f3 0f 1e fa          	endbr64 
    18d4:	41 57                	push   %r15
    18d6:	41 56                	push   %r14
    18d8:	41 55                	push   %r13
    18da:	41 54                	push   %r12
    18dc:	55                   	push   %rbp
    18dd:	53                   	push   %rbx
    18de:	48 81 ec 18 03 00 00 	sub    $0x318,%rsp
    18e5:	48 89 74 24 20       	mov    %rsi,0x20(%rsp)
    18ea:	48 8d 6c 24 30       	lea    0x30(%rsp),%rbp
    18ef:	4c 8d b4 24 00 01 00 	lea    0x100(%rsp),%r14
    18f6:	00 
    18f7:	89 54 24 14          	mov    %edx,0x14(%rsp)
    18fb:	4c 8d bc 24 a8 01 00 	lea    0x1a8(%rsp),%r15
    1902:	00 
    1903:	64 48 8b 04 25 28 00 	mov    %fs:0x28,%rax
    190a:	00 00 
    190c:	48 89 84 24 08 03 00 	mov    %rax,0x308(%rsp)
    1913:	00 
    1914:	31 c0                	xor    %eax,%eax
    1916:	48 8d 84 24 f8 02 00 	lea    0x2f8(%rsp),%rax
    191d:	00 
    191e:	48 89 7c 24 28       	mov    %rdi,0x28(%rsp)
    1923:	c7 44 24 10 00 00 00 	movl   $0x0,0x10(%rsp)
    192a:	00 
    192b:	48 89 44 24 18       	mov    %rax,0x18(%rsp)
    1930:	c7 44 24 0c 00 00 00 	movl   $0x0,0xc(%rsp)
    1937:	00 
    1938:	48 8b 5c 24 28       	mov    0x28(%rsp),%rbx
    193d:	8b 44 24 14          	mov    0x14(%rsp),%eax
    1941:	85 c0                	test   %eax,%eax
    1943:	0f 84 ff 00 00 00    	je     1a48 <pqcrystals_kyber1024_ref_gen_matrix+0x178>
    1949:	8b 4c 24 0c          	mov    0xc(%rsp),%ecx
    194d:	8b 54 24 10          	mov    0x10(%rsp),%edx
    1951:	48 89 ef             	mov    %rbp,%rdi
    1954:	48 8b 74 24 20       	mov    0x20(%rsp),%rsi
    1959:	e8 42 88 00 00       	callq  a1a0 <pqcrystals_kyber1024_ref_kyber_shake128_absorb>
    195e:	4c 89 f7             	mov    %r14,%rdi
    1961:	48 89 ea             	mov    %rbp,%rdx
    1964:	be 03 00 00 00       	mov    $0x3,%esi
    1969:	45 31 ed             	xor    %r13d,%r13d
    196c:	e8 3f 65 00 00       	callq  7eb0 <pqcrystals_kyber_fips202_ref_shake128_squeezeblocks>
    1971:	48 8b 7c 24 18       	mov    0x18(%rsp),%rdi
    1976:	4c 89 f1             	mov    %r14,%rcx
    1979:	eb 12                	jmp    198d <pqcrystals_kyber1024_ref_gen_matrix+0xbd>
    197b:	0f 1f 44 00 00       	nopl   0x0(%rax,%rax,1)
    1980:	48 83 c1 03          	add    $0x3,%rcx
    1984:	48 39 cf             	cmp    %rcx,%rdi
    1987:	0f 84 db 00 00 00    	je     1a68 <pqcrystals_kyber1024_ref_gen_matrix+0x198>
    198d:	0f b6 41 01          	movzbl 0x1(%rcx),%eax
    1991:	0f b6 31             	movzbl (%rcx),%esi
    1994:	89 c2                	mov    %eax,%edx
    1996:	c0 e8 04             	shr    $0x4,%al
    1999:	c1 e2 08             	shl    $0x8,%edx
    199c:	0f b6 c0             	movzbl %al,%eax
    199f:	09 f2                	or     %esi,%edx
    19a1:	0f b6 71 02          	movzbl 0x2(%rcx),%esi
    19a5:	66 81 e2 ff 0f       	and    $0xfff,%dx
    19aa:	c1 e6 04             	shl    $0x4,%esi
    19ad:	09 f0                	or     %esi,%eax
    19af:	66 81 fa 00 0d       	cmp    $0xd00,%dx
    19b4:	77 0b                	ja     19c1 <pqcrystals_kyber1024_ref_gen_matrix+0xf1>
    19b6:	44 89 ee             	mov    %r13d,%esi
    19b9:	41 83 c5 01          	add    $0x1,%r13d
    19bd:	66 89 14 73          	mov    %dx,(%rbx,%rsi,2)
    19c1:	41 81 fd ff 00 00 00 	cmp    $0xff,%r13d
    19c8:	77 11                	ja     19db <pqcrystals_kyber1024_ref_gen_matrix+0x10b>
    19ca:	66 3d 00 0d          	cmp    $0xd00,%ax
    19ce:	77 0b                	ja     19db <pqcrystals_kyber1024_ref_gen_matrix+0x10b>
    19d0:	44 89 ea             	mov    %r13d,%edx
    19d3:	41 83 c5 01          	add    $0x1,%r13d
    19d7:	66 89 04 53          	mov    %ax,(%rbx,%rdx,2)
    19db:	41 81 fd 00 01 00 00 	cmp    $0x100,%r13d
    19e2:	75 9c                	jne    1980 <pqcrystals_kyber1024_ref_gen_matrix+0xb0>
    19e4:	83 44 24 0c 01       	addl   $0x1,0xc(%rsp)
    19e9:	8b 44 24 0c          	mov    0xc(%rsp),%eax
    19ed:	48 81 c3 00 02 00 00 	add    $0x200,%rbx
    19f4:	83 f8 04             	cmp    $0x4,%eax
    19f7:	0f 85 40 ff ff ff    	jne    193d <pqcrystals_kyber1024_ref_gen_matrix+0x6d>
    19fd:	83 44 24 10 01       	addl   $0x1,0x10(%rsp)
    1a02:	8b 44 24 10          	mov    0x10(%rsp),%eax
    1a06:	48 81 44 24 28 00 08 	addq   $0x800,0x28(%rsp)
    1a0d:	00 00 
    1a0f:	83 f8 04             	cmp    $0x4,%eax
    1a12:	0f 85 18 ff ff ff    	jne    1930 <pqcrystals_kyber1024_ref_gen_matrix+0x60>
    1a18:	48 8b 84 24 08 03 00 	mov    0x308(%rsp),%rax
    1a1f:	00 
    1a20:	64 48 33 04 25 28 00 	xor    %fs:0x28,%rax
    1a27:	00 00 
    1a29:	0f 85 d8 00 00 00    	jne    1b07 <pqcrystals_kyber1024_ref_gen_matrix+0x237>
    1a2f:	48 81 c4 18 03 00 00 	add    $0x318,%rsp
    1a36:	5b                   	pop    %rbx
    1a37:	5d                   	pop    %rbp
    1a38:	41 5c                	pop    %r12
    1a3a:	41 5d                	pop    %r13
    1a3c:	41 5e                	pop    %r14
    1a3e:	41 5f                	pop    %r15
    1a40:	c3                   	retq   
    1a41:	0f 1f 80 00 00 00 00 	nopl   0x0(%rax)
    1a48:	8b 4c 24 10          	mov    0x10(%rsp),%ecx
    1a4c:	8b 54 24 0c          	mov    0xc(%rsp),%edx
    1a50:	48 89 ef             	mov    %rbp,%rdi
    1a53:	48 8b 74 24 20       	mov    0x20(%rsp),%rsi
    1a58:	e8 43 87 00 00       	callq  a1a0 <pqcrystals_kyber1024_ref_kyber_shake128_absorb>
    1a5d:	e9 fc fe ff ff       	jmpq   195e <pqcrystals_kyber1024_ref_gen_matrix+0x8e>
    1a62:	66 0f 1f 44 00 00    	nopw   0x0(%rax,%rax,1)
    1a68:	41 bc 00 01 00 00    	mov    $0x100,%r12d
    1a6e:	66 90                	xchg   %ax,%ax
    1a70:	4c 89 f7             	mov    %r14,%rdi
    1a73:	48 89 ea             	mov    %rbp,%rdx
    1a76:	be 01 00 00 00       	mov    $0x1,%esi
    1a7b:	e8 30 64 00 00       	callq  7eb0 <pqcrystals_kyber_fips202_ref_shake128_squeezeblocks>
    1a80:	45 89 e1             	mov    %r12d,%r9d
    1a83:	44 89 e8             	mov    %r13d,%eax
    1a86:	4c 89 f7             	mov    %r14,%rdi
    1a89:	45 29 e9             	sub    %r13d,%r9d
    1a8c:	4c 8d 04 43          	lea    (%rbx,%rax,2),%r8
    1a90:	31 c9                	xor    %ecx,%ecx
    1a92:	eb 22                	jmp    1ab6 <pqcrystals_kyber1024_ref_gen_matrix+0x1e6>
    1a94:	0f 1f 40 00          	nopl   0x0(%rax)
    1a98:	66 3d 00 0d          	cmp    $0xd00,%ax
    1a9c:	77 0a                	ja     1aa8 <pqcrystals_kyber1024_ref_gen_matrix+0x1d8>
    1a9e:	89 ca                	mov    %ecx,%edx
    1aa0:	83 c1 01             	add    $0x1,%ecx
    1aa3:	66 41 89 04 50       	mov    %ax,(%r8,%rdx,2)
    1aa8:	41 39 c9             	cmp    %ecx,%r9d
    1aab:	76 45                	jbe    1af2 <pqcrystals_kyber1024_ref_gen_matrix+0x222>
    1aad:	48 83 c7 03          	add    $0x3,%rdi
    1ab1:	49 39 ff             	cmp    %rdi,%r15
    1ab4:	74 3c                	je     1af2 <pqcrystals_kyber1024_ref_gen_matrix+0x222>
    1ab6:	0f b6 57 01          	movzbl 0x1(%rdi),%edx
    1aba:	0f b6 07             	movzbl (%rdi),%eax
    1abd:	89 d6                	mov    %edx,%esi
    1abf:	c0 ea 04             	shr    $0x4,%dl
    1ac2:	c1 e6 08             	shl    $0x8,%esi
    1ac5:	09 c6                	or     %eax,%esi
    1ac7:	0f b6 47 02          	movzbl 0x2(%rdi),%eax
    1acb:	66 81 e6 ff 0f       	and    $0xfff,%si
    1ad0:	c1 e0 04             	shl    $0x4,%eax
    1ad3:	41 89 c2             	mov    %eax,%r10d
    1ad6:	0f b6 c2             	movzbl %dl,%eax
    1ad9:	44 09 d0             	or     %r10d,%eax
    1adc:	66 81 fe 00 0d       	cmp    $0xd00,%si
    1ae1:	77 0a                	ja     1aed <pqcrystals_kyber1024_ref_gen_matrix+0x21d>
    1ae3:	89 ca                	mov    %ecx,%edx
    1ae5:	83 c1 01             	add    $0x1,%ecx
    1ae8:	66 41 89 34 50       	mov    %si,(%r8,%rdx,2)
    1aed:	41 39 c9             	cmp    %ecx,%r9d
    1af0:	77 a6                	ja     1a98 <pqcrystals_kyber1024_ref_gen_matrix+0x1c8>
    1af2:	41 01 cd             	add    %ecx,%r13d
    1af5:	41 81 fd ff 00 00 00 	cmp    $0xff,%r13d
    1afc:	0f 86 6e ff ff ff    	jbe    1a70 <pqcrystals_kyber1024_ref_gen_matrix+0x1a0>
    1b02:	e9 dd fe ff ff       	jmpq   19e4 <pqcrystals_kyber1024_ref_gen_matrix+0x114>
    1b07:	e8 74 f6 ff ff       	callq  1180 <__stack_chk_fail@plt>
    1b0c:	0f 1f 40 00          	nopl   0x0(%rax)

0000000000001b10 <pqcrystals_kyber1024_ref_indcpa_keypair>:
    1b10:	f3 0f 1e fa          	endbr64 
    1b14:	41 57                	push   %r15
    1b16:	41 56                	push   %r14
    1b18:	41 55                	push   %r13
    1b1a:	41 54                	push   %r12
    1b1c:	55                   	push   %rbp
    1b1d:	53                   	push   %rbx
    1b1e:	48 81 ec 00 10 00 00 	sub    $0x1000,%rsp
    1b25:	48 83 0c 24 00       	orq    $0x0,(%rsp)
    1b2a:	48 81 ec 00 10 00 00 	sub    $0x1000,%rsp
    1b31:	48 83 0c 24 00       	orq    $0x0,(%rsp)
    1b36:	48 81 ec 00 10 00 00 	sub    $0x1000,%rsp
    1b3d:	48 83 0c 24 00       	orq    $0x0,(%rsp)
    1b42:	48 81 ec a8 0a 00 00 	sub    $0xaa8,%rsp
    1b49:	45 31 f6             	xor    %r14d,%r14d
    1b4c:	48 89 7c 24 40       	mov    %rdi,0x40(%rsp)
    1b51:	4c 8d bc 24 50 10 00 	lea    0x1050(%rsp),%r15
    1b58:	00 
    1b59:	48 8d ac 24 90 38 00 	lea    0x3890(%rsp),%rbp
    1b60:	00 
    1b61:	48 89 74 24 48       	mov    %rsi,0x48(%rsp)
    1b66:	be 20 00 00 00       	mov    $0x20,%esi
    1b6b:	64 48 8b 04 25 28 00 	mov    %fs:0x28,%rax
    1b72:	00 00 
    1b74:	48 89 84 24 98 3a 00 	mov    %rax,0x3a98(%rsp)
    1b7b:	00 
    1b7c:	31 c0                	xor    %eax,%eax
    1b7e:	48 8d 44 24 50       	lea    0x50(%rsp),%rax
    1b83:	48 89 44 24 30       	mov    %rax,0x30(%rsp)
    1b88:	48 89 05 b1 e4 00 00 	mov    %rax,0xe4b1(%rip)        # 10040 <e_phys>
    1b8f:	48 8d 84 24 50 38 00 	lea    0x3850(%rsp),%rax
    1b96:	00 
    1b97:	48 89 c3             	mov    %rax,%rbx
    1b9a:	48 89 c7             	mov    %rax,%rdi
    1b9d:	48 89 44 24 20       	mov    %rax,0x20(%rsp)
    1ba2:	e8 b9 86 00 00       	callq  a260 <randombytes>
    1ba7:	ba 20 00 00 00       	mov    $0x20,%edx
    1bac:	48 89 de             	mov    %rbx,%rsi
    1baf:	48 89 df             	mov    %rbx,%rdi
    1bb2:	e8 59 84 00 00       	callq  a010 <pqcrystals_kyber_fips202_ref_sha3_512>
    1bb7:	48 8d 84 24 50 18 00 	lea    0x1850(%rsp),%rax
    1bbe:	00 
    1bbf:	48 89 44 24 38       	mov    %rax,0x38(%rsp)
    1bc4:	48 89 44 24 28       	mov    %rax,0x28(%rsp)
    1bc9:	48 8d 84 24 88 3a 00 	lea    0x3a88(%rsp),%rax
    1bd0:	00 
    1bd1:	48 89 44 24 08       	mov    %rax,0x8(%rsp)
    1bd6:	48 8d 84 24 38 39 00 	lea    0x3938(%rsp),%rax
    1bdd:	00 
    1bde:	48 89 44 24 10       	mov    %rax,0x10(%rsp)
    1be3:	4c 8b 6c 24 28       	mov    0x28(%rsp),%r13
    1be8:	44 89 74 24 1c       	mov    %r14d,0x1c(%rsp)
    1bed:	31 db                	xor    %ebx,%ebx
    1bef:	49 89 ee             	mov    %rbp,%r14
    1bf2:	4c 89 ed             	mov    %r13,%rbp
    1bf5:	8b 4c 24 1c          	mov    0x1c(%rsp),%ecx
    1bf9:	48 8b 74 24 20       	mov    0x20(%rsp),%rsi
    1bfe:	89 da                	mov    %ebx,%edx
    1c00:	4c 89 ff             	mov    %r15,%rdi
    1c03:	45 31 e4             	xor    %r12d,%r12d
    1c06:	e8 95 85 00 00       	callq  a1a0 <pqcrystals_kyber1024_ref_kyber_shake128_absorb>
    1c0b:	be 03 00 00 00       	mov    $0x3,%esi
    1c10:	4c 89 fa             	mov    %r15,%rdx
    1c13:	4c 89 f7             	mov    %r14,%rdi
    1c16:	e8 95 62 00 00       	callq  7eb0 <pqcrystals_kyber_fips202_ref_shake128_squeezeblocks>
    1c1b:	4c 89 f6             	mov    %r14,%rsi
    1c1e:	eb 0f                	jmp    1c2f <pqcrystals_kyber1024_ref_indcpa_keypair+0x11f>
    1c20:	48 83 c6 03          	add    $0x3,%rsi
    1c24:	48 3b 74 24 08       	cmp    0x8(%rsp),%rsi
    1c29:	0f 84 21 02 00 00    	je     1e50 <pqcrystals_kyber1024_ref_indcpa_keypair+0x340>
    1c2f:	0f b6 56 01          	movzbl 0x1(%rsi),%edx
    1c33:	0f b6 06             	movzbl (%rsi),%eax
    1c36:	89 d1                	mov    %edx,%ecx
    1c38:	c0 ea 04             	shr    $0x4,%dl
    1c3b:	c1 e1 08             	shl    $0x8,%ecx
    1c3e:	09 c1                	or     %eax,%ecx
    1c40:	0f b6 46 02          	movzbl 0x2(%rsi),%eax
    1c44:	66 81 e1 ff 0f       	and    $0xfff,%cx
    1c49:	c1 e0 04             	shl    $0x4,%eax
    1c4c:	89 c7                	mov    %eax,%edi
    1c4e:	0f b6 c2             	movzbl %dl,%eax
    1c51:	09 f8                	or     %edi,%eax
    1c53:	66 81 f9 00 0d       	cmp    $0xd00,%cx
    1c58:	77 0c                	ja     1c66 <pqcrystals_kyber1024_ref_indcpa_keypair+0x156>
    1c5a:	44 89 e2             	mov    %r12d,%edx
    1c5d:	41 83 c4 01          	add    $0x1,%r12d
    1c61:	66 89 4c 55 00       	mov    %cx,0x0(%rbp,%rdx,2)
    1c66:	41 81 fc ff 00 00 00 	cmp    $0xff,%r12d
    1c6d:	77 12                	ja     1c81 <pqcrystals_kyber1024_ref_indcpa_keypair+0x171>
    1c6f:	66 3d 00 0d          	cmp    $0xd00,%ax
    1c73:	77 0c                	ja     1c81 <pqcrystals_kyber1024_ref_indcpa_keypair+0x171>
    1c75:	44 89 e2             	mov    %r12d,%edx
    1c78:	41 83 c4 01          	add    $0x1,%r12d
    1c7c:	66 89 44 55 00       	mov    %ax,0x0(%rbp,%rdx,2)
    1c81:	41 81 fc 00 01 00 00 	cmp    $0x100,%r12d
    1c88:	75 96                	jne    1c20 <pqcrystals_kyber1024_ref_indcpa_keypair+0x110>
    1c8a:	83 c3 01             	add    $0x1,%ebx
    1c8d:	48 81 c5 00 02 00 00 	add    $0x200,%rbp
    1c94:	83 fb 04             	cmp    $0x4,%ebx
    1c97:	0f 85 58 ff ff ff    	jne    1bf5 <pqcrystals_kyber1024_ref_indcpa_keypair+0xe5>
    1c9d:	48 81 44 24 28 00 08 	addq   $0x800,0x28(%rsp)
    1ca4:	00 00 
    1ca6:	4c 89 f5             	mov    %r14,%rbp
    1ca9:	44 8b 74 24 1c       	mov    0x1c(%rsp),%r14d
    1cae:	41 83 c6 01          	add    $0x1,%r14d
    1cb2:	41 83 fe 04          	cmp    $0x4,%r14d
    1cb6:	0f 85 27 ff ff ff    	jne    1be3 <pqcrystals_kyber1024_ref_indcpa_keypair+0xd3>
    1cbc:	48 8d ac 24 70 38 00 	lea    0x3870(%rsp),%rbp
    1cc3:	00 
    1cc4:	4c 89 ff             	mov    %r15,%rdi
    1cc7:	31 d2                	xor    %edx,%edx
    1cc9:	48 89 ee             	mov    %rbp,%rsi
    1ccc:	e8 bf 2b 00 00       	callq  4890 <pqcrystals_kyber1024_ref_poly_getnoise_eta1>
    1cd1:	48 89 ee             	mov    %rbp,%rsi
    1cd4:	ba 01 00 00 00       	mov    $0x1,%edx
    1cd9:	48 8d bc 24 50 12 00 	lea    0x1250(%rsp),%rdi
    1ce0:	00 
    1ce1:	e8 aa 2b 00 00       	callq  4890 <pqcrystals_kyber1024_ref_poly_getnoise_eta1>
    1ce6:	48 89 ee             	mov    %rbp,%rsi
    1ce9:	ba 02 00 00 00       	mov    $0x2,%edx
    1cee:	48 8d bc 24 50 14 00 	lea    0x1450(%rsp),%rdi
    1cf5:	00 
    1cf6:	e8 95 2b 00 00       	callq  4890 <pqcrystals_kyber1024_ref_poly_getnoise_eta1>
    1cfb:	48 89 ee             	mov    %rbp,%rsi
    1cfe:	ba 03 00 00 00       	mov    $0x3,%edx
    1d03:	48 8d bc 24 50 16 00 	lea    0x1650(%rsp),%rdi
    1d0a:	00 
    1d0b:	e8 80 2b 00 00       	callq  4890 <pqcrystals_kyber1024_ref_poly_getnoise_eta1>
    1d10:	48 8b 5c 24 30       	mov    0x30(%rsp),%rbx
    1d15:	48 89 ee             	mov    %rbp,%rsi
    1d18:	ba 04 00 00 00       	mov    $0x4,%edx
    1d1d:	48 89 df             	mov    %rbx,%rdi
    1d20:	e8 6b 2b 00 00       	callq  4890 <pqcrystals_kyber1024_ref_poly_getnoise_eta1>
    1d25:	48 89 ee             	mov    %rbp,%rsi
    1d28:	ba 05 00 00 00       	mov    $0x5,%edx
    1d2d:	48 8d bc 24 50 02 00 	lea    0x250(%rsp),%rdi
    1d34:	00 
    1d35:	e8 56 2b 00 00       	callq  4890 <pqcrystals_kyber1024_ref_poly_getnoise_eta1>
    1d3a:	48 89 ee             	mov    %rbp,%rsi
    1d3d:	ba 06 00 00 00       	mov    $0x6,%edx
    1d42:	48 8d bc 24 50 04 00 	lea    0x450(%rsp),%rdi
    1d49:	00 
    1d4a:	e8 41 2b 00 00       	callq  4890 <pqcrystals_kyber1024_ref_poly_getnoise_eta1>
    1d4f:	48 89 ee             	mov    %rbp,%rsi
    1d52:	ba 07 00 00 00       	mov    $0x7,%edx
    1d57:	48 8d bc 24 50 06 00 	lea    0x650(%rsp),%rdi
    1d5e:	00 
    1d5f:	e8 2c 2b 00 00       	callq  4890 <pqcrystals_kyber1024_ref_poly_getnoise_eta1>
    1d64:	4c 89 ff             	mov    %r15,%rdi
    1d67:	48 8d ac 24 50 08 00 	lea    0x850(%rsp),%rbp
    1d6e:	00 
    1d6f:	4c 8d bc 24 50 10 00 	lea    0x1050(%rsp),%r15
    1d76:	00 
    1d77:	e8 54 0c 00 00       	callq  29d0 <pqcrystals_kyber1024_ref_polyvec_ntt>
    1d7c:	48 89 de             	mov    %rbx,%rsi
    1d7f:	b9 00 01 00 00       	mov    $0x100,%ecx
    1d84:	49 89 ec             	mov    %rbp,%r12
    1d87:	48 8d 3d b2 c2 00 00 	lea    0xc2b2(%rip),%rdi        # e040 <e_copy>
    1d8e:	48 89 5c 24 30       	mov    %rbx,0x30(%rsp)
    1d93:	f3 48 a5             	rep movsq %ds:(%rsi),%es:(%rdi)
    1d96:	48 89 df             	mov    %rbx,%rdi
    1d99:	e8 32 0c 00 00       	callq  29d0 <pqcrystals_kyber1024_ref_polyvec_ntt>
    1d9e:	48 8b 5c 24 38       	mov    0x38(%rsp),%rbx
    1da3:	48 89 de             	mov    %rbx,%rsi
    1da6:	4c 89 e7             	mov    %r12,%rdi
    1da9:	4c 89 fa             	mov    %r15,%rdx
    1dac:	48 81 c3 00 08 00 00 	add    $0x800,%rbx
    1db3:	e8 98 0c 00 00       	callq  2a50 <pqcrystals_kyber1024_ref_polyvec_basemul_acc_montgomery>
    1db8:	4c 89 e7             	mov    %r12,%rdi
    1dbb:	49 81 c4 00 02 00 00 	add    $0x200,%r12
    1dc2:	e8 79 2c 00 00       	callq  4a40 <pqcrystals_kyber1024_ref_poly_tomont>
    1dc7:	4d 39 fc             	cmp    %r15,%r12
    1dca:	75 d7                	jne    1da3 <pqcrystals_kyber1024_ref_indcpa_keypair+0x293>
    1dcc:	48 8b 54 24 30       	mov    0x30(%rsp),%rdx
    1dd1:	48 89 ee             	mov    %rbp,%rsi
    1dd4:	48 89 ef             	mov    %rbp,%rdi
    1dd7:	e8 54 0d 00 00       	callq  2b30 <pqcrystals_kyber1024_ref_polyvec_add>
    1ddc:	48 89 ef             	mov    %rbp,%rdi
    1ddf:	e8 0c 0d 00 00       	callq  2af0 <pqcrystals_kyber1024_ref_polyvec_reduce>
    1de4:	48 8b 7c 24 48       	mov    0x48(%rsp),%rdi
    1de9:	4c 89 e6             	mov    %r12,%rsi
    1dec:	e8 5f 0b 00 00       	callq  2950 <pqcrystals_kyber1024_ref_polyvec_tobytes>
    1df1:	48 8b 5c 24 40       	mov    0x40(%rsp),%rbx
    1df6:	48 89 ee             	mov    %rbp,%rsi
    1df9:	48 89 df             	mov    %rbx,%rdi
    1dfc:	e8 4f 0b 00 00       	callq  2950 <pqcrystals_kyber1024_ref_polyvec_tobytes>
    1e01:	66 0f 6f 84 24 50 38 	movdqa 0x3850(%rsp),%xmm0
    1e08:	00 00 
    1e0a:	0f 11 83 00 06 00 00 	movups %xmm0,0x600(%rbx)
    1e11:	66 0f 6f 8c 24 60 38 	movdqa 0x3860(%rsp),%xmm1
    1e18:	00 00 
    1e1a:	0f 11 8b 10 06 00 00 	movups %xmm1,0x610(%rbx)
    1e21:	48 8b 84 24 98 3a 00 	mov    0x3a98(%rsp),%rax
    1e28:	00 
    1e29:	64 48 33 04 25 28 00 	xor    %fs:0x28,%rax
    1e30:	00 00 
    1e32:	0f 85 e3 00 00 00    	jne    1f1b <pqcrystals_kyber1024_ref_indcpa_keypair+0x40b>
    1e38:	48 81 c4 a8 3a 00 00 	add    $0x3aa8,%rsp
    1e3f:	5b                   	pop    %rbx
    1e40:	5d                   	pop    %rbp
    1e41:	41 5c                	pop    %r12
    1e43:	41 5d                	pop    %r13
    1e45:	41 5e                	pop    %r14
    1e47:	41 5f                	pop    %r15
    1e49:	c3                   	retq   
    1e4a:	66 0f 1f 44 00 00    	nopw   0x0(%rax,%rax,1)
    1e50:	4c 89 f0             	mov    %r14,%rax
    1e53:	41 bd 00 01 00 00    	mov    $0x100,%r13d
    1e59:	45 89 e6             	mov    %r12d,%r14d
    1e5c:	4d 89 fc             	mov    %r15,%r12
    1e5f:	49 89 c7             	mov    %rax,%r15
    1e62:	66 0f 1f 44 00 00    	nopw   0x0(%rax,%rax,1)
    1e68:	be 01 00 00 00       	mov    $0x1,%esi
    1e6d:	4c 89 e2             	mov    %r12,%rdx
    1e70:	4c 89 ff             	mov    %r15,%rdi
    1e73:	e8 38 60 00 00       	callq  7eb0 <pqcrystals_kyber_fips202_ref_shake128_squeezeblocks>
    1e78:	44 89 f0             	mov    %r14d,%eax
    1e7b:	45 89 ea             	mov    %r13d,%r10d
    1e7e:	4c 89 fe             	mov    %r15,%rsi
    1e81:	4c 8d 4c 45 00       	lea    0x0(%rbp,%rax,2),%r9
    1e86:	45 29 f2             	sub    %r14d,%r10d
    1e89:	31 c0                	xor    %eax,%eax
    1e8b:	eb 24                	jmp    1eb1 <pqcrystals_kyber1024_ref_indcpa_keypair+0x3a1>
    1e8d:	0f 1f 00             	nopl   (%rax)
    1e90:	66 81 fa 00 0d       	cmp    $0xd00,%dx
    1e95:	77 0a                	ja     1ea1 <pqcrystals_kyber1024_ref_indcpa_keypair+0x391>
    1e97:	89 c1                	mov    %eax,%ecx
    1e99:	83 c0 01             	add    $0x1,%eax
    1e9c:	66 41 89 14 49       	mov    %dx,(%r9,%rcx,2)
    1ea1:	41 39 c2             	cmp    %eax,%r10d
    1ea4:	76 47                	jbe    1eed <pqcrystals_kyber1024_ref_indcpa_keypair+0x3dd>
    1ea6:	48 83 c6 03          	add    $0x3,%rsi
    1eaa:	48 39 74 24 10       	cmp    %rsi,0x10(%rsp)
    1eaf:	74 3c                	je     1eed <pqcrystals_kyber1024_ref_indcpa_keypair+0x3dd>
    1eb1:	0f b6 4e 01          	movzbl 0x1(%rsi),%ecx
    1eb5:	0f b6 16             	movzbl (%rsi),%edx
    1eb8:	89 cf                	mov    %ecx,%edi
    1eba:	c0 e9 04             	shr    $0x4,%cl
    1ebd:	c1 e7 08             	shl    $0x8,%edi
    1ec0:	09 d7                	or     %edx,%edi
    1ec2:	0f b6 56 02          	movzbl 0x2(%rsi),%edx
    1ec6:	66 81 e7 ff 0f       	and    $0xfff,%di
    1ecb:	c1 e2 04             	shl    $0x4,%edx
    1ece:	41 89 d0             	mov    %edx,%r8d
    1ed1:	0f b6 d1             	movzbl %cl,%edx
    1ed4:	44 09 c2             	or     %r8d,%edx
    1ed7:	66 81 ff 00 0d       	cmp    $0xd00,%di
    1edc:	77 0a                	ja     1ee8 <pqcrystals_kyber1024_ref_indcpa_keypair+0x3d8>
    1ede:	89 c1                	mov    %eax,%ecx
    1ee0:	83 c0 01             	add    $0x1,%eax
    1ee3:	66 41 89 3c 49       	mov    %di,(%r9,%rcx,2)
    1ee8:	41 39 c2             	cmp    %eax,%r10d
    1eeb:	77 a3                	ja     1e90 <pqcrystals_kyber1024_ref_indcpa_keypair+0x380>
    1eed:	41 01 c6             	add    %eax,%r14d
    1ef0:	41 81 fe ff 00 00 00 	cmp    $0xff,%r14d
    1ef7:	0f 86 6b ff ff ff    	jbe    1e68 <pqcrystals_kyber1024_ref_indcpa_keypair+0x358>
    1efd:	83 c3 01             	add    $0x1,%ebx
    1f00:	4d 89 fe             	mov    %r15,%r14
    1f03:	48 81 c5 00 02 00 00 	add    $0x200,%rbp
    1f0a:	4d 89 e7             	mov    %r12,%r15
    1f0d:	83 fb 04             	cmp    $0x4,%ebx
    1f10:	0f 85 df fc ff ff    	jne    1bf5 <pqcrystals_kyber1024_ref_indcpa_keypair+0xe5>
    1f16:	e9 82 fd ff ff       	jmpq   1c9d <pqcrystals_kyber1024_ref_indcpa_keypair+0x18d>
    1f1b:	e8 60 f2 ff ff       	callq  1180 <__stack_chk_fail@plt>

0000000000001f20 <pqcrystals_kyber1024_ref_indcpa_enc>:
    1f20:	f3 0f 1e fa          	endbr64 
    1f24:	41 57                	push   %r15
    1f26:	41 56                	push   %r14
    1f28:	41 55                	push   %r13
    1f2a:	41 54                	push   %r12
    1f2c:	55                   	push   %rbp
    1f2d:	53                   	push   %rbx
    1f2e:	4c 8d 9c 24 00 c0 ff 	lea    -0x4000(%rsp),%r11
    1f35:	ff 
    1f36:	48 81 ec 00 10 00 00 	sub    $0x1000,%rsp
    1f3d:	48 83 0c 24 00       	orq    $0x0,(%rsp)
    1f42:	4c 39 dc             	cmp    %r11,%rsp
    1f45:	75 ef                	jne    1f36 <pqcrystals_kyber1024_ref_indcpa_enc+0x16>
    1f47:	48 81 ec 88 08 00 00 	sub    $0x888,%rsp
    1f4e:	45 31 ff             	xor    %r15d,%r15d
    1f51:	48 89 7c 24 28       	mov    %rdi,0x28(%rsp)
    1f56:	48 89 d3             	mov    %rdx,%rbx
    1f59:	48 89 f5             	mov    %rsi,%rbp
    1f5c:	48 89 d6             	mov    %rdx,%rsi
    1f5f:	48 89 4c 24 30       	mov    %rcx,0x30(%rsp)
    1f64:	4c 8d b4 24 50 1e 00 	lea    0x1e50(%rsp),%r14
    1f6b:	00 
    1f6c:	64 48 8b 04 25 28 00 	mov    %fs:0x28,%rax
    1f73:	00 00 
    1f75:	48 89 84 24 78 48 00 	mov    %rax,0x4878(%rsp)
    1f7c:	00 
    1f7d:	31 c0                	xor    %eax,%eax
    1f7f:	48 8d 84 24 50 0e 00 	lea    0xe50(%rsp),%rax
    1f86:	00 
    1f87:	48 89 c7             	mov    %rax,%rdi
    1f8a:	48 89 44 24 48       	mov    %rax,0x48(%rsp)
    1f8f:	e8 fc 09 00 00       	callq  2990 <pqcrystals_kyber1024_ref_polyvec_frombytes>
    1f94:	f3 0f 6f 83 00 06 00 	movdqu 0x600(%rbx),%xmm0
    1f9b:	00 
    1f9c:	48 8d 84 24 50 02 00 	lea    0x250(%rsp),%rax
    1fa3:	00 
    1fa4:	48 89 ee             	mov    %rbp,%rsi
    1fa7:	48 89 c7             	mov    %rax,%rdi
    1faa:	48 89 44 24 38       	mov    %rax,0x38(%rsp)
    1faf:	48 8d ac 24 70 46 00 	lea    0x4670(%rsp),%rbp
    1fb6:	00 
    1fb7:	0f 29 84 24 50 46 00 	movaps %xmm0,0x4650(%rsp)
    1fbe:	00 
    1fbf:	f3 0f 6f 8b 10 06 00 	movdqu 0x610(%rbx),%xmm1
    1fc6:	00 
    1fc7:	0f 29 8c 24 60 46 00 	movaps %xmm1,0x4660(%rsp)
    1fce:	00 
    1fcf:	e8 8c 0f 00 00       	callq  2f60 <pqcrystals_kyber1024_ref_poly_frommsg>
    1fd4:	48 8d 84 24 50 26 00 	lea    0x2650(%rsp),%rax
    1fdb:	00 
    1fdc:	48 89 44 24 40       	mov    %rax,0x40(%rsp)
    1fe1:	48 89 44 24 20       	mov    %rax,0x20(%rsp)
    1fe6:	48 8d 84 24 50 46 00 	lea    0x4650(%rsp),%rax
    1fed:	00 
    1fee:	48 89 44 24 18       	mov    %rax,0x18(%rsp)
    1ff3:	48 8d 84 24 68 48 00 	lea    0x4868(%rsp),%rax
    1ffa:	00 
    1ffb:	48 89 04 24          	mov    %rax,(%rsp)
    1fff:	48 8d 84 24 18 47 00 	lea    0x4718(%rsp),%rax
    2006:	00 
    2007:	48 89 44 24 08       	mov    %rax,0x8(%rsp)
    200c:	4c 8b 6c 24 20       	mov    0x20(%rsp),%r13
    2011:	44 89 7c 24 14       	mov    %r15d,0x14(%rsp)
    2016:	31 db                	xor    %ebx,%ebx
    2018:	49 89 ef             	mov    %rbp,%r15
    201b:	4c 89 ed             	mov    %r13,%rbp
    201e:	8b 54 24 14          	mov    0x14(%rsp),%edx
    2022:	48 8b 74 24 18       	mov    0x18(%rsp),%rsi
    2027:	89 d9                	mov    %ebx,%ecx
    2029:	4c 89 f7             	mov    %r14,%rdi
    202c:	45 31 e4             	xor    %r12d,%r12d
    202f:	e8 6c 81 00 00       	callq  a1a0 <pqcrystals_kyber1024_ref_kyber_shake128_absorb>
    2034:	be 03 00 00 00       	mov    $0x3,%esi
    2039:	4c 89 f2             	mov    %r14,%rdx
    203c:	4c 89 ff             	mov    %r15,%rdi
    203f:	e8 6c 5e 00 00       	callq  7eb0 <pqcrystals_kyber_fips202_ref_shake128_squeezeblocks>
    2044:	4c 89 fe             	mov    %r15,%rsi
    2047:	eb 15                	jmp    205e <pqcrystals_kyber1024_ref_indcpa_enc+0x13e>
    2049:	0f 1f 80 00 00 00 00 	nopl   0x0(%rax)
    2050:	48 83 c6 03          	add    $0x3,%rsi
    2054:	48 39 34 24          	cmp    %rsi,(%rsp)
    2058:	0f 84 62 02 00 00    	je     22c0 <pqcrystals_kyber1024_ref_indcpa_enc+0x3a0>
    205e:	0f b6 56 01          	movzbl 0x1(%rsi),%edx
    2062:	0f b6 06             	movzbl (%rsi),%eax
    2065:	89 d1                	mov    %edx,%ecx
    2067:	c0 ea 04             	shr    $0x4,%dl
    206a:	c1 e1 08             	shl    $0x8,%ecx
    206d:	09 c1                	or     %eax,%ecx
    206f:	0f b6 46 02          	movzbl 0x2(%rsi),%eax
    2073:	66 81 e1 ff 0f       	and    $0xfff,%cx
    2078:	c1 e0 04             	shl    $0x4,%eax
    207b:	89 c7                	mov    %eax,%edi
    207d:	0f b6 c2             	movzbl %dl,%eax
    2080:	09 f8                	or     %edi,%eax
    2082:	66 81 f9 00 0d       	cmp    $0xd00,%cx
    2087:	77 0c                	ja     2095 <pqcrystals_kyber1024_ref_indcpa_enc+0x175>
    2089:	44 89 e2             	mov    %r12d,%edx
    208c:	41 83 c4 01          	add    $0x1,%r12d
    2090:	66 89 4c 55 00       	mov    %cx,0x0(%rbp,%rdx,2)
    2095:	41 81 fc ff 00 00 00 	cmp    $0xff,%r12d
    209c:	77 12                	ja     20b0 <pqcrystals_kyber1024_ref_indcpa_enc+0x190>
    209e:	66 3d 00 0d          	cmp    $0xd00,%ax
    20a2:	77 0c                	ja     20b0 <pqcrystals_kyber1024_ref_indcpa_enc+0x190>
    20a4:	44 89 e2             	mov    %r12d,%edx
    20a7:	41 83 c4 01          	add    $0x1,%r12d
    20ab:	66 89 44 55 00       	mov    %ax,0x0(%rbp,%rdx,2)
    20b0:	41 81 fc 00 01 00 00 	cmp    $0x100,%r12d
    20b7:	75 97                	jne    2050 <pqcrystals_kyber1024_ref_indcpa_enc+0x130>
    20b9:	83 c3 01             	add    $0x1,%ebx
    20bc:	48 81 c5 00 02 00 00 	add    $0x200,%rbp
    20c3:	83 fb 04             	cmp    $0x4,%ebx
    20c6:	0f 85 52 ff ff ff    	jne    201e <pqcrystals_kyber1024_ref_indcpa_enc+0xfe>
    20cc:	48 81 44 24 20 00 08 	addq   $0x800,0x20(%rsp)
    20d3:	00 00 
    20d5:	4c 89 fd             	mov    %r15,%rbp
    20d8:	44 8b 7c 24 14       	mov    0x14(%rsp),%r15d
    20dd:	41 83 c7 01          	add    $0x1,%r15d
    20e1:	41 83 ff 04          	cmp    $0x4,%r15d
    20e5:	0f 85 21 ff ff ff    	jne    200c <pqcrystals_kyber1024_ref_indcpa_enc+0xec>
    20eb:	48 8b 5c 24 30       	mov    0x30(%rsp),%rbx
    20f0:	31 d2                	xor    %edx,%edx
    20f2:	4c 8d a4 24 50 06 00 	lea    0x650(%rsp),%r12
    20f9:	00 
    20fa:	4c 8d bc 24 50 16 00 	lea    0x1650(%rsp),%r15
    2101:	00 
    2102:	4c 89 e7             	mov    %r12,%rdi
    2105:	4c 8d ac 24 50 04 00 	lea    0x450(%rsp),%r13
    210c:	00 
    210d:	48 8d 6c 24 50       	lea    0x50(%rsp),%rbp
    2112:	48 89 de             	mov    %rbx,%rsi
    2115:	e8 76 27 00 00       	callq  4890 <pqcrystals_kyber1024_ref_poly_getnoise_eta1>
    211a:	48 89 de             	mov    %rbx,%rsi
    211d:	ba 01 00 00 00       	mov    $0x1,%edx
    2122:	48 8d bc 24 50 08 00 	lea    0x850(%rsp),%rdi
    2129:	00 
    212a:	e8 61 27 00 00       	callq  4890 <pqcrystals_kyber1024_ref_poly_getnoise_eta1>
    212f:	48 89 de             	mov    %rbx,%rsi
    2132:	ba 02 00 00 00       	mov    $0x2,%edx
    2137:	48 8d bc 24 50 0a 00 	lea    0xa50(%rsp),%rdi
    213e:	00 
    213f:	e8 4c 27 00 00       	callq  4890 <pqcrystals_kyber1024_ref_poly_getnoise_eta1>
    2144:	48 89 de             	mov    %rbx,%rsi
    2147:	ba 03 00 00 00       	mov    $0x3,%edx
    214c:	48 8d bc 24 50 0c 00 	lea    0xc50(%rsp),%rdi
    2153:	00 
    2154:	e8 37 27 00 00       	callq  4890 <pqcrystals_kyber1024_ref_poly_getnoise_eta1>
    2159:	48 89 de             	mov    %rbx,%rsi
    215c:	ba 04 00 00 00       	mov    $0x4,%edx
    2161:	4c 89 ff             	mov    %r15,%rdi
    2164:	e8 97 27 00 00       	callq  4900 <pqcrystals_kyber1024_ref_poly_getnoise_eta2>
    2169:	48 89 de             	mov    %rbx,%rsi
    216c:	ba 05 00 00 00       	mov    $0x5,%edx
    2171:	48 8d bc 24 50 18 00 	lea    0x1850(%rsp),%rdi
    2178:	00 
    2179:	e8 82 27 00 00       	callq  4900 <pqcrystals_kyber1024_ref_poly_getnoise_eta2>
    217e:	48 89 de             	mov    %rbx,%rsi
    2181:	ba 06 00 00 00       	mov    $0x6,%edx
    2186:	48 8d bc 24 50 1a 00 	lea    0x1a50(%rsp),%rdi
    218d:	00 
    218e:	e8 6d 27 00 00       	callq  4900 <pqcrystals_kyber1024_ref_poly_getnoise_eta2>
    2193:	48 89 de             	mov    %rbx,%rsi
    2196:	ba 07 00 00 00       	mov    $0x7,%edx
    219b:	48 8d bc 24 50 1c 00 	lea    0x1c50(%rsp),%rdi
    21a2:	00 
    21a3:	e8 58 27 00 00       	callq  4900 <pqcrystals_kyber1024_ref_poly_getnoise_eta2>
    21a8:	48 89 de             	mov    %rbx,%rsi
    21ab:	ba 08 00 00 00       	mov    $0x8,%edx
    21b0:	4c 89 ef             	mov    %r13,%rdi
    21b3:	e8 48 27 00 00       	callq  4900 <pqcrystals_kyber1024_ref_poly_getnoise_eta2>
    21b8:	4c 89 e7             	mov    %r12,%rdi
    21bb:	e8 10 08 00 00       	callq  29d0 <pqcrystals_kyber1024_ref_polyvec_ntt>
    21c0:	48 8b 74 24 40       	mov    0x40(%rsp),%rsi
    21c5:	4c 89 e2             	mov    %r12,%rdx
    21c8:	4c 89 f7             	mov    %r14,%rdi
    21cb:	e8 80 08 00 00       	callq  2a50 <pqcrystals_kyber1024_ref_polyvec_basemul_acc_montgomery>
    21d0:	48 8d b4 24 50 2e 00 	lea    0x2e50(%rsp),%rsi
    21d7:	00 
    21d8:	48 8d bc 24 50 20 00 	lea    0x2050(%rsp),%rdi
    21df:	00 
    21e0:	4c 89 e2             	mov    %r12,%rdx
    21e3:	e8 68 08 00 00       	callq  2a50 <pqcrystals_kyber1024_ref_polyvec_basemul_acc_montgomery>
    21e8:	48 8d b4 24 50 36 00 	lea    0x3650(%rsp),%rsi
    21ef:	00 
    21f0:	48 8d bc 24 50 22 00 	lea    0x2250(%rsp),%rdi
    21f7:	00 
    21f8:	4c 89 e2             	mov    %r12,%rdx
    21fb:	e8 50 08 00 00       	callq  2a50 <pqcrystals_kyber1024_ref_polyvec_basemul_acc_montgomery>
    2200:	48 8d b4 24 50 3e 00 	lea    0x3e50(%rsp),%rsi
    2207:	00 
    2208:	48 8d bc 24 50 24 00 	lea    0x2450(%rsp),%rdi
    220f:	00 
    2210:	4c 89 e2             	mov    %r12,%rdx
    2213:	e8 38 08 00 00       	callq  2a50 <pqcrystals_kyber1024_ref_polyvec_basemul_acc_montgomery>
    2218:	48 8b 74 24 48       	mov    0x48(%rsp),%rsi
    221d:	4c 89 e2             	mov    %r12,%rdx
    2220:	48 89 ef             	mov    %rbp,%rdi
    2223:	e8 28 08 00 00       	callq  2a50 <pqcrystals_kyber1024_ref_polyvec_basemul_acc_montgomery>
    2228:	4c 89 f7             	mov    %r14,%rdi
    222b:	e8 e0 07 00 00       	callq  2a10 <pqcrystals_kyber1024_ref_polyvec_invntt_tomont>
    2230:	48 89 ef             	mov    %rbp,%rdi
    2233:	e8 78 27 00 00       	callq  49b0 <pqcrystals_kyber1024_ref_poly_invntt_tomont>
    2238:	4c 89 fa             	mov    %r15,%rdx
    223b:	4c 89 f6             	mov    %r14,%rsi
    223e:	4c 89 f7             	mov    %r14,%rdi
    2241:	e8 ea 08 00 00       	callq  2b30 <pqcrystals_kyber1024_ref_polyvec_add>
    2246:	4c 89 ea             	mov    %r13,%rdx
    2249:	48 89 ee             	mov    %rbp,%rsi
    224c:	48 89 ef             	mov    %rbp,%rdi
    224f:	e8 6c 28 00 00       	callq  4ac0 <pqcrystals_kyber1024_ref_poly_add>
    2254:	48 8b 54 24 38       	mov    0x38(%rsp),%rdx
    2259:	48 89 ee             	mov    %rbp,%rsi
    225c:	48 89 ef             	mov    %rbp,%rdi
    225f:	e8 5c 28 00 00       	callq  4ac0 <pqcrystals_kyber1024_ref_poly_add>
    2264:	4c 89 f7             	mov    %r14,%rdi
    2267:	e8 84 08 00 00       	callq  2af0 <pqcrystals_kyber1024_ref_polyvec_reduce>
    226c:	48 89 ef             	mov    %rbp,%rdi
    226f:	e8 0c 28 00 00       	callq  4a80 <pqcrystals_kyber1024_ref_poly_reduce>
    2274:	48 8b 5c 24 28       	mov    0x28(%rsp),%rbx
    2279:	4c 89 f6             	mov    %r14,%rsi
    227c:	48 89 df             	mov    %rbx,%rdi
    227f:	e8 fc 01 00 00       	callq  2480 <pqcrystals_kyber1024_ref_polyvec_compress>
    2284:	48 89 df             	mov    %rbx,%rdi
    2287:	48 89 ee             	mov    %rbp,%rsi
    228a:	48 81 c7 80 05 00 00 	add    $0x580,%rdi
    2291:	e8 ea 08 00 00       	callq  2b80 <pqcrystals_kyber1024_ref_poly_compress>
    2296:	48 8b 84 24 78 48 00 	mov    0x4878(%rsp),%rax
    229d:	00 
    229e:	64 48 33 04 25 28 00 	xor    %fs:0x28,%rax
    22a5:	00 00 
    22a7:	0f 85 d3 00 00 00    	jne    2380 <pqcrystals_kyber1024_ref_indcpa_enc+0x460>
    22ad:	48 81 c4 88 48 00 00 	add    $0x4888,%rsp
    22b4:	5b                   	pop    %rbx
    22b5:	5d                   	pop    %rbp
    22b6:	41 5c                	pop    %r12
    22b8:	41 5d                	pop    %r13
    22ba:	41 5e                	pop    %r14
    22bc:	41 5f                	pop    %r15
    22be:	c3                   	retq   
    22bf:	90                   	nop
    22c0:	4c 89 f0             	mov    %r14,%rax
    22c3:	41 bd 00 01 00 00    	mov    $0x100,%r13d
    22c9:	45 89 e6             	mov    %r12d,%r14d
    22cc:	49 89 c4             	mov    %rax,%r12
    22cf:	90                   	nop
    22d0:	be 01 00 00 00       	mov    $0x1,%esi
    22d5:	4c 89 e2             	mov    %r12,%rdx
    22d8:	4c 89 ff             	mov    %r15,%rdi
    22db:	e8 d0 5b 00 00       	callq  7eb0 <pqcrystals_kyber_fips202_ref_shake128_squeezeblocks>
    22e0:	44 89 f0             	mov    %r14d,%eax
    22e3:	45 89 ea             	mov    %r13d,%r10d
    22e6:	4c 89 fe             	mov    %r15,%rsi
    22e9:	4c 8d 4c 45 00       	lea    0x0(%rbp,%rax,2),%r9
    22ee:	45 29 f2             	sub    %r14d,%r10d
    22f1:	31 c0                	xor    %eax,%eax
    22f3:	eb 24                	jmp    2319 <pqcrystals_kyber1024_ref_indcpa_enc+0x3f9>
    22f5:	0f 1f 00             	nopl   (%rax)
    22f8:	66 81 fa 00 0d       	cmp    $0xd00,%dx
    22fd:	77 0a                	ja     2309 <pqcrystals_kyber1024_ref_indcpa_enc+0x3e9>
    22ff:	89 c1                	mov    %eax,%ecx
    2301:	83 c0 01             	add    $0x1,%eax
    2304:	66 41 89 14 49       	mov    %dx,(%r9,%rcx,2)
    2309:	41 39 c2             	cmp    %eax,%r10d
    230c:	76 47                	jbe    2355 <pqcrystals_kyber1024_ref_indcpa_enc+0x435>
    230e:	48 83 c6 03          	add    $0x3,%rsi
    2312:	48 3b 74 24 08       	cmp    0x8(%rsp),%rsi
    2317:	74 3c                	je     2355 <pqcrystals_kyber1024_ref_indcpa_enc+0x435>
    2319:	0f b6 4e 01          	movzbl 0x1(%rsi),%ecx
    231d:	0f b6 16             	movzbl (%rsi),%edx
    2320:	89 cf                	mov    %ecx,%edi
    2322:	c0 e9 04             	shr    $0x4,%cl
    2325:	c1 e7 08             	shl    $0x8,%edi
    2328:	09 d7                	or     %edx,%edi
    232a:	0f b6 56 02          	movzbl 0x2(%rsi),%edx
    232e:	66 81 e7 ff 0f       	and    $0xfff,%di
    2333:	c1 e2 04             	shl    $0x4,%edx
    2336:	41 89 d0             	mov    %edx,%r8d
    2339:	0f b6 d1             	movzbl %cl,%edx
    233c:	44 09 c2             	or     %r8d,%edx
    233f:	66 81 ff 00 0d       	cmp    $0xd00,%di
    2344:	77 0a                	ja     2350 <pqcrystals_kyber1024_ref_indcpa_enc+0x430>
    2346:	89 c1                	mov    %eax,%ecx
    2348:	83 c0 01             	add    $0x1,%eax
    234b:	66 41 89 3c 49       	mov    %di,(%r9,%rcx,2)
    2350:	41 39 c2             	cmp    %eax,%r10d
    2353:	77 a3                	ja     22f8 <pqcrystals_kyber1024_ref_indcpa_enc+0x3d8>
    2355:	41 01 c6             	add    %eax,%r14d
    2358:	41 81 fe ff 00 00 00 	cmp    $0xff,%r14d
    235f:	0f 86 6b ff ff ff    	jbe    22d0 <pqcrystals_kyber1024_ref_indcpa_enc+0x3b0>
    2365:	83 c3 01             	add    $0x1,%ebx
    2368:	4d 89 e6             	mov    %r12,%r14
    236b:	48 81 c5 00 02 00 00 	add    $0x200,%rbp
    2372:	83 fb 04             	cmp    $0x4,%ebx
    2375:	0f 85 a3 fc ff ff    	jne    201e <pqcrystals_kyber1024_ref_indcpa_enc+0xfe>
    237b:	e9 4c fd ff ff       	jmpq   20cc <pqcrystals_kyber1024_ref_indcpa_enc+0x1ac>
    2380:	e8 fb ed ff ff       	callq  1180 <__stack_chk_fail@plt>
    2385:	66 66 2e 0f 1f 84 00 	data16 nopw %cs:0x0(%rax,%rax,1)
    238c:	00 00 00 00 

0000000000002390 <pqcrystals_kyber1024_ref_indcpa_dec>:
    2390:	f3 0f 1e fa          	endbr64 
    2394:	41 57                	push   %r15
    2396:	41 56                	push   %r14
    2398:	41 55                	push   %r13
    239a:	41 54                	push   %r12
    239c:	55                   	push   %rbp
    239d:	53                   	push   %rbx
    239e:	48 81 ec 00 10 00 00 	sub    $0x1000,%rsp
    23a5:	48 83 0c 24 00       	orq    $0x0,(%rsp)
    23aa:	48 81 ec 18 04 00 00 	sub    $0x418,%rsp
    23b1:	48 89 f5             	mov    %rsi,%rbp
    23b4:	49 89 fc             	mov    %rdi,%r12
    23b7:	49 89 e7             	mov    %rsp,%r15
    23ba:	49 89 d6             	mov    %rdx,%r14
    23bd:	4c 8d ac 24 00 04 00 	lea    0x400(%rsp),%r13
    23c4:	00 
    23c5:	48 8d 9c 24 00 0c 00 	lea    0xc00(%rsp),%rbx
    23cc:	00 
    23cd:	64 48 8b 04 25 28 00 	mov    %fs:0x28,%rax
    23d4:	00 00 
    23d6:	48 89 84 24 08 14 00 	mov    %rax,0x1408(%rsp)
    23dd:	00 
    23de:	31 c0                	xor    %eax,%eax
    23e0:	4c 89 ef             	mov    %r13,%rdi
    23e3:	e8 68 03 00 00       	callq  2750 <pqcrystals_kyber1024_ref_polyvec_decompress>
    23e8:	48 8d b5 80 05 00 00 	lea    0x580(%rbp),%rsi
    23ef:	4c 89 ff             	mov    %r15,%rdi
    23f2:	48 8d ac 24 00 02 00 	lea    0x200(%rsp),%rbp
    23f9:	00 
    23fa:	e8 61 09 00 00       	callq  2d60 <pqcrystals_kyber1024_ref_poly_decompress>
    23ff:	4c 89 f6             	mov    %r14,%rsi
    2402:	48 89 df             	mov    %rbx,%rdi
    2405:	e8 86 05 00 00       	callq  2990 <pqcrystals_kyber1024_ref_polyvec_frombytes>
    240a:	4c 89 ef             	mov    %r13,%rdi
    240d:	e8 be 05 00 00       	callq  29d0 <pqcrystals_kyber1024_ref_polyvec_ntt>
    2412:	4c 89 ea             	mov    %r13,%rdx
    2415:	48 89 de             	mov    %rbx,%rsi
    2418:	48 89 ef             	mov    %rbp,%rdi
    241b:	e8 30 06 00 00       	callq  2a50 <pqcrystals_kyber1024_ref_polyvec_basemul_acc_montgomery>
    2420:	48 89 ef             	mov    %rbp,%rdi
    2423:	e8 88 25 00 00       	callq  49b0 <pqcrystals_kyber1024_ref_poly_invntt_tomont>
    2428:	48 89 ea             	mov    %rbp,%rdx
    242b:	4c 89 fe             	mov    %r15,%rsi
    242e:	48 89 ef             	mov    %rbp,%rdi
    2431:	e8 ba 26 00 00       	callq  4af0 <pqcrystals_kyber1024_ref_poly_sub>
    2436:	48 89 ef             	mov    %rbp,%rdi
    2439:	e8 42 26 00 00       	callq  4a80 <pqcrystals_kyber1024_ref_poly_reduce>
    243e:	48 89 ee             	mov    %rbp,%rsi
    2441:	4c 89 e7             	mov    %r12,%rdi
    2444:	e8 07 11 00 00       	callq  3550 <pqcrystals_kyber1024_ref_poly_tomsg>
    2449:	48 8b 84 24 08 14 00 	mov    0x1408(%rsp),%rax
    2450:	00 
    2451:	64 48 33 04 25 28 00 	xor    %fs:0x28,%rax
    2458:	00 00 
    245a:	75 12                	jne    246e <pqcrystals_kyber1024_ref_indcpa_dec+0xde>
    245c:	48 81 c4 18 14 00 00 	add    $0x1418,%rsp
    2463:	5b                   	pop    %rbx
    2464:	5d                   	pop    %rbp
    2465:	41 5c                	pop    %r12
    2467:	41 5d                	pop    %r13
    2469:	41 5e                	pop    %r14
    246b:	41 5f                	pop    %r15
    246d:	c3                   	retq   
    246e:	e8 0d ed ff ff       	callq  1180 <__stack_chk_fail@plt>
    2473:	66 2e 0f 1f 84 00 00 	nopw   %cs:0x0(%rax,%rax,1)
    247a:	00 00 00 
    247d:	0f 1f 00             	nopl   (%rax)

0000000000002480 <pqcrystals_kyber1024_ref_polyvec_compress>:
    2480:	f3 0f 1e fa          	endbr64 
    2484:	41 57                	push   %r15
    2486:	48 89 f8             	mov    %rdi,%rax
    2489:	41 56                	push   %r14
    248b:	48 05 e0 06 00 00    	add    $0x6e0,%rax
    2491:	41 55                	push   %r13
    2493:	41 54                	push   %r12
    2495:	55                   	push   %rbp
    2496:	53                   	push   %rbx
    2497:	48 8d 9f 60 01 00 00 	lea    0x160(%rdi),%rbx
    249e:	48 89 5c 24 e8       	mov    %rbx,-0x18(%rsp)
    24a3:	48 89 74 24 f0       	mov    %rsi,-0x10(%rsp)
    24a8:	48 89 44 24 f8       	mov    %rax,-0x8(%rsp)
    24ad:	48 8b 44 24 e8       	mov    -0x18(%rsp),%rax
    24b2:	4c 8b 64 24 f0       	mov    -0x10(%rsp),%r12
    24b7:	4c 8d a8 a0 fe ff ff 	lea    -0x160(%rax),%r13
    24be:	66 90                	xchg   %ax,%ax
    24c0:	41 0f b7 04 24       	movzwl (%r12),%eax
    24c5:	41 0f b7 54 24 0c    	movzwl 0xc(%r12),%edx
    24cb:	41 89 c3             	mov    %eax,%r11d
    24ce:	66 41 c1 fb 0f       	sar    $0xf,%r11w
    24d3:	66 41 81 e3 01 0d    	and    $0xd01,%r11w
    24d9:	41 01 c3             	add    %eax,%r11d
    24dc:	41 0f b7 44 24 02    	movzwl 0x2(%r12),%eax
    24e2:	45 0f b7 db          	movzwl %r11w,%r11d
    24e6:	41 89 c2             	mov    %eax,%r10d
    24e9:	49 c1 e3 0b          	shl    $0xb,%r11
    24ed:	66 41 c1 fa 0f       	sar    $0xf,%r10w
    24f2:	49 81 c3 80 06 00 00 	add    $0x680,%r11
    24f9:	66 41 81 e2 01 0d    	and    $0xd01,%r10w
    24ff:	4d 69 db dc d7 09 00 	imul   $0x9d7dc,%r11,%r11
    2506:	41 01 c2             	add    %eax,%r10d
    2509:	41 0f b7 44 24 04    	movzwl 0x4(%r12),%eax
    250f:	45 0f b7 d2          	movzwl %r10w,%r10d
    2513:	49 c1 e2 0b          	shl    $0xb,%r10
    2517:	41 89 c1             	mov    %eax,%r9d
    251a:	49 c1 eb 1f          	shr    $0x1f,%r11
    251e:	66 41 c1 f9 0f       	sar    $0xf,%r9w
    2523:	49 81 c2 80 06 00 00 	add    $0x680,%r10
    252a:	66 41 81 e3 ff 07    	and    $0x7ff,%r11w
    2530:	66 41 81 e1 01 0d    	and    $0xd01,%r9w
    2536:	4d 69 d2 dc d7 09 00 	imul   $0x9d7dc,%r10,%r10
    253d:	41 01 c1             	add    %eax,%r9d
    2540:	41 0f b7 44 24 06    	movzwl 0x6(%r12),%eax
    2546:	45 0f b7 c9          	movzwl %r9w,%r9d
    254a:	49 c1 e1 0b          	shl    $0xb,%r9
    254e:	41 89 c0             	mov    %eax,%r8d
    2551:	49 c1 ea 1f          	shr    $0x1f,%r10
    2555:	66 41 c1 f8 0f       	sar    $0xf,%r8w
    255a:	49 81 c1 80 06 00 00 	add    $0x680,%r9
    2561:	45 89 d7             	mov    %r10d,%r15d
    2564:	66 41 81 e0 01 0d    	and    $0xd01,%r8w
    256a:	4d 69 c9 dc d7 09 00 	imul   $0x9d7dc,%r9,%r9
    2571:	66 41 81 e7 ff 07    	and    $0x7ff,%r15w
    2577:	41 01 c0             	add    %eax,%r8d
    257a:	45 0f b7 c0          	movzwl %r8w,%r8d
    257e:	49 c1 e0 0b          	shl    $0xb,%r8
    2582:	49 c1 e9 1f          	shr    $0x1f,%r9
    2586:	49 81 c0 80 06 00 00 	add    $0x680,%r8
    258d:	44 89 cd             	mov    %r9d,%ebp
    2590:	4d 69 c0 dc d7 09 00 	imul   $0x9d7dc,%r8,%r8
    2597:	66 81 e5 ff 07       	and    $0x7ff,%bp
    259c:	49 c1 e8 1f          	shr    $0x1f,%r8
    25a0:	44 89 c0             	mov    %r8d,%eax
    25a3:	66 25 ff 07          	and    $0x7ff,%ax
    25a7:	66 89 44 24 e4       	mov    %ax,-0x1c(%rsp)
    25ac:	41 0f b7 44 24 08    	movzwl 0x8(%r12),%eax
    25b2:	89 c7                	mov    %eax,%edi
    25b4:	66 c1 ff 0f          	sar    $0xf,%di
    25b8:	66 81 e7 01 0d       	and    $0xd01,%di
    25bd:	01 c7                	add    %eax,%edi
    25bf:	41 0f b7 44 24 0a    	movzwl 0xa(%r12),%eax
    25c5:	0f b7 ff             	movzwl %di,%edi
    25c8:	89 c6                	mov    %eax,%esi
    25ca:	48 c1 e7 0b          	shl    $0xb,%rdi
    25ce:	66 c1 fe 0f          	sar    $0xf,%si
    25d2:	48 81 c7 80 06 00 00 	add    $0x680,%rdi
    25d9:	66 81 e6 01 0d       	and    $0xd01,%si
    25de:	48 69 ff dc d7 09 00 	imul   $0x9d7dc,%rdi,%rdi
    25e5:	01 c6                	add    %eax,%esi
    25e7:	89 d0                	mov    %edx,%eax
    25e9:	66 c1 f8 0f          	sar    $0xf,%ax
    25ed:	0f b7 f6             	movzwl %si,%esi
    25f0:	48 c1 e6 0b          	shl    $0xb,%rsi
    25f4:	66 25 01 0d          	and    $0xd01,%ax
    25f8:	48 c1 ef 1f          	shr    $0x1f,%rdi
    25fc:	8d 0c 10             	lea    (%rax,%rdx,1),%ecx
    25ff:	41 0f b7 44 24 0e    	movzwl 0xe(%r12),%eax
    2605:	48 81 c6 80 06 00 00 	add    $0x680,%rsi
    260c:	89 fb                	mov    %edi,%ebx
    260e:	0f b7 c9             	movzwl %cx,%ecx
    2611:	48 69 f6 dc d7 09 00 	imul   $0x9d7dc,%rsi,%rsi
    2618:	66 81 e3 ff 07       	and    $0x7ff,%bx
    261d:	45 88 5d 00          	mov    %r11b,0x0(%r13)
    2621:	48 c1 e1 0b          	shl    $0xb,%rcx
    2625:	89 c2                	mov    %eax,%edx
    2627:	66 89 5c 24 e6       	mov    %bx,-0x1a(%rsp)
    262c:	66 41 c1 eb 08       	shr    $0x8,%r11w
    2631:	66 c1 fa 0f          	sar    $0xf,%dx
    2635:	48 81 c1 80 06 00 00 	add    $0x680,%rcx
    263c:	66 81 e2 01 0d       	and    $0xd01,%dx
    2641:	48 69 c9 dc d7 09 00 	imul   $0x9d7dc,%rcx,%rcx
    2648:	48 c1 ee 1f          	shr    $0x1f,%rsi
    264c:	01 d0                	add    %edx,%eax
    264e:	89 f3                	mov    %esi,%ebx
    2650:	0f b7 c0             	movzwl %ax,%eax
    2653:	66 81 e3 ff 07       	and    $0x7ff,%bx
    2658:	48 c1 e0 0b          	shl    $0xb,%rax
    265c:	48 c1 e9 1f          	shr    $0x1f,%rcx
    2660:	48 05 80 06 00 00    	add    $0x680,%rax
    2666:	41 89 ce             	mov    %ecx,%r14d
    2669:	48 69 c0 dc d7 09 00 	imul   $0x9d7dc,%rax,%rax
    2670:	66 41 81 e6 ff 07    	and    $0x7ff,%r14w
    2676:	48 c1 e8 1f          	shr    $0x1f,%rax
    267a:	89 c2                	mov    %eax,%edx
    267c:	66 81 e2 ff 07       	and    $0x7ff,%dx
    2681:	41 c1 e2 03          	shl    $0x3,%r10d
    2685:	45 01 c0             	add    %r8d,%r8d
    2688:	49 83 c5 0b          	add    $0xb,%r13
    268c:	41 c1 e1 06          	shl    $0x6,%r9d
    2690:	66 41 c1 ef 05       	shr    $0x5,%r15w
    2695:	45 09 d3             	or     %r10d,%r11d
    2698:	49 83 c4 10          	add    $0x10,%r12
    269c:	c1 e7 04             	shl    $0x4,%edi
    269f:	45 09 cf             	or     %r9d,%r15d
    26a2:	41 89 e9             	mov    %ebp,%r9d
    26a5:	66 c1 ed 0a          	shr    $0xa,%bp
    26a9:	c1 e6 07             	shl    $0x7,%esi
    26ac:	44 09 c5             	or     %r8d,%ebp
    26af:	44 0f b7 44 24 e4    	movzwl -0x1c(%rsp),%r8d
    26b5:	c1 e1 02             	shl    $0x2,%ecx
    26b8:	66 41 c1 ee 06       	shr    $0x6,%r14w
    26bd:	c1 e0 05             	shl    $0x5,%eax
    26c0:	45 88 5d f6          	mov    %r11b,-0xa(%r13)
    26c4:	66 41 c1 e8 07       	shr    $0x7,%r8w
    26c9:	41 09 c6             	or     %eax,%r14d
    26cc:	66 c1 ea 03          	shr    $0x3,%dx
    26d0:	45 88 7d f7          	mov    %r15b,-0x9(%r13)
    26d4:	44 09 c7             	or     %r8d,%edi
    26d7:	66 41 c1 e9 02       	shr    $0x2,%r9w
    26dc:	41 88 6d f9          	mov    %bpl,-0x7(%r13)
    26e0:	41 88 7d fa          	mov    %dil,-0x6(%r13)
    26e4:	0f b7 7c 24 e6       	movzwl -0x1a(%rsp),%edi
    26e9:	45 88 4d f8          	mov    %r9b,-0x8(%r13)
    26ed:	66 c1 ef 04          	shr    $0x4,%di
    26f1:	45 88 75 fe          	mov    %r14b,-0x2(%r13)
    26f5:	09 fe                	or     %edi,%esi
    26f7:	41 88 55 ff          	mov    %dl,-0x1(%r13)
    26fb:	41 88 75 fb          	mov    %sil,-0x5(%r13)
    26ff:	89 de                	mov    %ebx,%esi
    2701:	66 c1 eb 09          	shr    $0x9,%bx
    2705:	66 d1 ee             	shr    %si
    2708:	09 cb                	or     %ecx,%ebx
    270a:	41 88 75 fc          	mov    %sil,-0x4(%r13)
    270e:	41 88 5d fd          	mov    %bl,-0x3(%r13)
    2712:	4c 3b 6c 24 e8       	cmp    -0x18(%rsp),%r13
    2717:	0f 85 a3 fd ff ff    	jne    24c0 <pqcrystals_kyber1024_ref_polyvec_compress+0x40>
    271d:	48 81 44 24 f0 00 02 	addq   $0x200,-0x10(%rsp)
    2724:	00 00 
    2726:	49 8d 85 60 01 00 00 	lea    0x160(%r13),%rax
    272d:	48 89 44 24 e8       	mov    %rax,-0x18(%rsp)
    2732:	48 39 44 24 f8       	cmp    %rax,-0x8(%rsp)
    2737:	0f 85 70 fd ff ff    	jne    24ad <pqcrystals_kyber1024_ref_polyvec_compress+0x2d>
    273d:	5b                   	pop    %rbx
    273e:	5d                   	pop    %rbp
    273f:	41 5c                	pop    %r12
    2741:	41 5d                	pop    %r13
    2743:	41 5e                	pop    %r14
    2745:	41 5f                	pop    %r15
    2747:	c3                   	retq   
    2748:	0f 1f 84 00 00 00 00 	nopl   0x0(%rax,%rax,1)
    274f:	00 

0000000000002750 <pqcrystals_kyber1024_ref_polyvec_decompress>:
    2750:	f3 0f 1e fa          	endbr64 
    2754:	41 57                	push   %r15
    2756:	48 89 f0             	mov    %rsi,%rax
    2759:	4c 8d be 60 01 00 00 	lea    0x160(%rsi),%r15
    2760:	41 56                	push   %r14
    2762:	48 05 e0 06 00 00    	add    $0x6e0,%rax
    2768:	41 55                	push   %r13
    276a:	41 54                	push   %r12
    276c:	55                   	push   %rbp
    276d:	53                   	push   %rbx
    276e:	48 89 7c 24 f0       	mov    %rdi,-0x10(%rsp)
    2773:	48 89 44 24 f8       	mov    %rax,-0x8(%rsp)
    2778:	48 8b 5c 24 f0       	mov    -0x10(%rsp),%rbx
    277d:	49 8d bf a0 fe ff ff 	lea    -0x160(%r15),%rdi
    2784:	0f 1f 40 00          	nopl   0x0(%rax)
    2788:	0f b6 6f 01          	movzbl 0x1(%rdi),%ebp
    278c:	0f b6 07             	movzbl (%rdi),%eax
    278f:	48 83 c7 0b          	add    $0xb,%rdi
    2793:	44 0f b6 57 f9       	movzbl -0x7(%rdi),%r10d
    2798:	44 0f b6 67 f8       	movzbl -0x8(%rdi),%r12d
    279d:	41 89 ee             	mov    %ebp,%r14d
    27a0:	44 0f b6 6f f7       	movzbl -0x9(%rdi),%r13d
    27a5:	40 c0 ed 03          	shr    $0x3,%bpl
    27a9:	44 0f b6 4f fc       	movzbl -0x4(%rdi),%r9d
    27ae:	41 c1 e6 08          	shl    $0x8,%r14d
    27b2:	40 0f b6 ed          	movzbl %bpl,%ebp
    27b6:	0f b6 57 fa          	movzbl -0x6(%rdi),%edx
    27ba:	0f b6 77 ff          	movzbl -0x1(%rdi),%esi
    27be:	41 09 c6             	or     %eax,%r14d
    27c1:	44 0f b6 5f fb       	movzbl -0x5(%rdi),%r11d
    27c6:	43 8d 0c 09          	lea    (%r9,%r9,1),%ecx
    27ca:	42 8d 04 a5 00 00 00 	lea    0x0(,%r12,4),%eax
    27d1:	00 
    27d2:	45 89 d4             	mov    %r10d,%r12d
    27d5:	41 81 e6 ff 07 00 00 	and    $0x7ff,%r14d
    27dc:	44 0f b6 47 fe       	movzbl -0x2(%rdi),%r8d
    27e1:	41 d0 ea             	shr    %r10b
    27e4:	41 c1 e4 0a          	shl    $0xa,%r12d
    27e8:	45 69 f6 01 0d 00 00 	imul   $0xd01,%r14d,%r14d
    27ef:	45 0f b6 d2          	movzbl %r10b,%r10d
    27f3:	c1 e6 03             	shl    $0x3,%esi
    27f6:	41 09 c4             	or     %eax,%r12d
    27f9:	44 89 e8             	mov    %r13d,%eax
    27fc:	41 c1 e5 05          	shl    $0x5,%r13d
    2800:	c0 e8 06             	shr    $0x6,%al
    2803:	44 09 ed             	or     %r13d,%ebp
    2806:	0f b6 c0             	movzbl %al,%eax
    2809:	81 e5 ff 07 00 00    	and    $0x7ff,%ebp
    280f:	41 81 c6 00 04 00 00 	add    $0x400,%r14d
    2816:	41 09 c4             	or     %eax,%r12d
    2819:	0f b6 47 fd          	movzbl -0x3(%rdi),%eax
    281d:	69 ed 01 0d 00 00    	imul   $0xd01,%ebp,%ebp
    2823:	41 c1 ee 0b          	shr    $0xb,%r14d
    2827:	41 81 e4 ff 07 00 00 	and    $0x7ff,%r12d
    282e:	66 44 89 33          	mov    %r14w,(%rbx)
    2832:	41 89 c1             	mov    %eax,%r9d
    2835:	45 69 e4 01 0d 00 00 	imul   $0xd01,%r12d,%r12d
    283c:	41 c1 e1 09          	shl    $0x9,%r9d
    2840:	81 c5 00 04 00 00    	add    $0x400,%ebp
    2846:	41 09 c9             	or     %ecx,%r9d
    2849:	44 89 d9             	mov    %r11d,%ecx
    284c:	c1 ed 0b             	shr    $0xb,%ebp
    284f:	c0 e9 07             	shr    $0x7,%cl
    2852:	66 89 6b 02          	mov    %bp,0x2(%rbx)
    2856:	0f b6 ea             	movzbl %dl,%ebp
    2859:	41 81 c4 00 04 00 00 	add    $0x400,%r12d
    2860:	c1 e5 07             	shl    $0x7,%ebp
    2863:	0f b6 c9             	movzbl %cl,%ecx
    2866:	41 c1 ec 0b          	shr    $0xb,%r12d
    286a:	41 09 c9             	or     %ecx,%r9d
    286d:	44 89 c1             	mov    %r8d,%ecx
    2870:	41 09 ea             	or     %ebp,%r10d
    2873:	66 44 89 63 04       	mov    %r12w,0x4(%rbx)
    2878:	c0 e9 05             	shr    $0x5,%cl
    287b:	83 e1 07             	and    $0x7,%ecx
    287e:	41 81 e2 ff 07 00 00 	and    $0x7ff,%r10d
    2885:	c0 ea 04             	shr    $0x4,%dl
    2888:	41 81 e1 ff 07 00 00 	and    $0x7ff,%r9d
    288f:	c0 e8 02             	shr    $0x2,%al
    2892:	0f b6 d2             	movzbl %dl,%edx
    2895:	41 c1 e3 04          	shl    $0x4,%r11d
    2899:	09 f1                	or     %esi,%ecx
    289b:	0f b6 c0             	movzbl %al,%eax
    289e:	41 c1 e0 06          	shl    $0x6,%r8d
    28a2:	44 09 da             	or     %r11d,%edx
    28a5:	48 83 c3 10          	add    $0x10,%rbx
    28a9:	44 09 c0             	or     %r8d,%eax
    28ac:	81 e2 ff 07 00 00    	and    $0x7ff,%edx
    28b2:	25 ff 07 00 00       	and    $0x7ff,%eax
    28b7:	45 69 d2 01 0d 00 00 	imul   $0xd01,%r10d,%r10d
    28be:	69 d2 01 0d 00 00    	imul   $0xd01,%edx,%edx
    28c4:	45 69 c9 01 0d 00 00 	imul   $0xd01,%r9d,%r9d
    28cb:	69 c0 01 0d 00 00    	imul   $0xd01,%eax,%eax
    28d1:	41 81 c2 00 04 00 00 	add    $0x400,%r10d
    28d8:	69 c9 01 0d 00 00    	imul   $0xd01,%ecx,%ecx
    28de:	81 c2 00 04 00 00    	add    $0x400,%edx
    28e4:	41 c1 ea 0b          	shr    $0xb,%r10d
    28e8:	41 81 c1 00 04 00 00 	add    $0x400,%r9d
    28ef:	c1 ea 0b             	shr    $0xb,%edx
    28f2:	66 44 89 53 f6       	mov    %r10w,-0xa(%rbx)
    28f7:	05 00 04 00 00       	add    $0x400,%eax
    28fc:	41 c1 e9 0b          	shr    $0xb,%r9d
    2900:	66 89 53 f8          	mov    %dx,-0x8(%rbx)
    2904:	81 c1 00 04 00 00    	add    $0x400,%ecx
    290a:	c1 e8 0b             	shr    $0xb,%eax
    290d:	66 44 89 4b fa       	mov    %r9w,-0x6(%rbx)
    2912:	c1 e9 0b             	shr    $0xb,%ecx
    2915:	66 89 43 fc          	mov    %ax,-0x4(%rbx)
    2919:	66 89 4b fe          	mov    %cx,-0x2(%rbx)
    291d:	4c 39 ff             	cmp    %r15,%rdi
    2920:	0f 85 62 fe ff ff    	jne    2788 <pqcrystals_kyber1024_ref_polyvec_decompress+0x38>
    2926:	48 81 44 24 f0 00 02 	addq   $0x200,-0x10(%rsp)
    292d:	00 00 
    292f:	4c 8d bf 60 01 00 00 	lea    0x160(%rdi),%r15
    2936:	4c 3b 7c 24 f8       	cmp    -0x8(%rsp),%r15
    293b:	0f 85 37 fe ff ff    	jne    2778 <pqcrystals_kyber1024_ref_polyvec_decompress+0x28>
    2941:	5b                   	pop    %rbx
    2942:	5d                   	pop    %rbp
    2943:	41 5c                	pop    %r12
    2945:	41 5d                	pop    %r13
    2947:	41 5e                	pop    %r14
    2949:	41 5f                	pop    %r15
    294b:	c3                   	retq   
    294c:	0f 1f 40 00          	nopl   0x0(%rax)

0000000000002950 <pqcrystals_kyber1024_ref_polyvec_tobytes>:
    2950:	f3 0f 1e fa          	endbr64 
    2954:	41 54                	push   %r12
    2956:	4c 8d a7 00 06 00 00 	lea    0x600(%rdi),%r12
    295d:	55                   	push   %rbp
    295e:	48 89 f5             	mov    %rsi,%rbp
    2961:	53                   	push   %rbx
    2962:	48 89 fb             	mov    %rdi,%rbx
    2965:	48 89 ee             	mov    %rbp,%rsi
    2968:	48 89 df             	mov    %rbx,%rdi
    296b:	48 81 c3 80 01 00 00 	add    $0x180,%rbx
    2972:	48 81 c5 00 02 00 00 	add    $0x200,%rbp
    2979:	e8 32 05 00 00       	callq  2eb0 <pqcrystals_kyber1024_ref_poly_tobytes>
    297e:	4c 39 e3             	cmp    %r12,%rbx
    2981:	75 e2                	jne    2965 <pqcrystals_kyber1024_ref_polyvec_tobytes+0x15>
    2983:	5b                   	pop    %rbx
    2984:	5d                   	pop    %rbp
    2985:	41 5c                	pop    %r12
    2987:	c3                   	retq   
    2988:	0f 1f 84 00 00 00 00 	nopl   0x0(%rax,%rax,1)
    298f:	00 

0000000000002990 <pqcrystals_kyber1024_ref_polyvec_frombytes>:
    2990:	f3 0f 1e fa          	endbr64 
    2994:	41 54                	push   %r12
    2996:	4c 8d a6 00 06 00 00 	lea    0x600(%rsi),%r12
    299d:	55                   	push   %rbp
    299e:	48 89 fd             	mov    %rdi,%rbp
    29a1:	53                   	push   %rbx
    29a2:	48 89 f3             	mov    %rsi,%rbx
    29a5:	48 89 de             	mov    %rbx,%rsi
    29a8:	48 89 ef             	mov    %rbp,%rdi
    29ab:	48 81 c3 80 01 00 00 	add    $0x180,%rbx
    29b2:	48 81 c5 00 02 00 00 	add    $0x200,%rbp
    29b9:	e8 52 05 00 00       	callq  2f10 <pqcrystals_kyber1024_ref_poly_frombytes>
    29be:	49 39 dc             	cmp    %rbx,%r12
    29c1:	75 e2                	jne    29a5 <pqcrystals_kyber1024_ref_polyvec_frombytes+0x15>
    29c3:	5b                   	pop    %rbx
    29c4:	5d                   	pop    %rbp
    29c5:	41 5c                	pop    %r12
    29c7:	c3                   	retq   
    29c8:	0f 1f 84 00 00 00 00 	nopl   0x0(%rax,%rax,1)
    29cf:	00 

00000000000029d0 <pqcrystals_kyber1024_ref_polyvec_ntt>:
    29d0:	f3 0f 1e fa          	endbr64 
    29d4:	53                   	push   %rbx
    29d5:	48 89 fb             	mov    %rdi,%rbx
    29d8:	e8 93 1f 00 00       	callq  4970 <pqcrystals_kyber1024_ref_poly_ntt>
    29dd:	48 8d bb 00 02 00 00 	lea    0x200(%rbx),%rdi
    29e4:	e8 87 1f 00 00       	callq  4970 <pqcrystals_kyber1024_ref_poly_ntt>
    29e9:	48 8d bb 00 04 00 00 	lea    0x400(%rbx),%rdi
    29f0:	e8 7b 1f 00 00       	callq  4970 <pqcrystals_kyber1024_ref_poly_ntt>
    29f5:	48 8d bb 00 06 00 00 	lea    0x600(%rbx),%rdi
    29fc:	5b                   	pop    %rbx
    29fd:	e9 6e 1f 00 00       	jmpq   4970 <pqcrystals_kyber1024_ref_poly_ntt>
    2a02:	66 66 2e 0f 1f 84 00 	data16 nopw %cs:0x0(%rax,%rax,1)
    2a09:	00 00 00 00 
    2a0d:	0f 1f 00             	nopl   (%rax)

0000000000002a10 <pqcrystals_kyber1024_ref_polyvec_invntt_tomont>:
    2a10:	f3 0f 1e fa          	endbr64 
    2a14:	53                   	push   %rbx
    2a15:	48 89 fb             	mov    %rdi,%rbx
    2a18:	e8 93 1f 00 00       	callq  49b0 <pqcrystals_kyber1024_ref_poly_invntt_tomont>
    2a1d:	48 8d bb 00 02 00 00 	lea    0x200(%rbx),%rdi
    2a24:	e8 87 1f 00 00       	callq  49b0 <pqcrystals_kyber1024_ref_poly_invntt_tomont>
    2a29:	48 8d bb 00 04 00 00 	lea    0x400(%rbx),%rdi
    2a30:	e8 7b 1f 00 00       	callq  49b0 <pqcrystals_kyber1024_ref_poly_invntt_tomont>
    2a35:	48 8d bb 00 06 00 00 	lea    0x600(%rbx),%rdi
    2a3c:	5b                   	pop    %rbx
    2a3d:	e9 6e 1f 00 00       	jmpq   49b0 <pqcrystals_kyber1024_ref_poly_invntt_tomont>
    2a42:	66 66 2e 0f 1f 84 00 	data16 nopw %cs:0x0(%rax,%rax,1)
    2a49:	00 00 00 00 
    2a4d:	0f 1f 00             	nopl   (%rax)

0000000000002a50 <pqcrystals_kyber1024_ref_polyvec_basemul_acc_montgomery>:
    2a50:	f3 0f 1e fa          	endbr64 
    2a54:	41 56                	push   %r14
    2a56:	49 89 d6             	mov    %rdx,%r14
    2a59:	41 55                	push   %r13
    2a5b:	49 89 f5             	mov    %rsi,%r13
    2a5e:	41 54                	push   %r12
    2a60:	55                   	push   %rbp
    2a61:	48 89 fd             	mov    %rdi,%rbp
    2a64:	53                   	push   %rbx
    2a65:	bb 00 02 00 00       	mov    $0x200,%ebx
    2a6a:	48 81 ec 10 02 00 00 	sub    $0x210,%rsp
    2a71:	64 48 8b 04 25 28 00 	mov    %fs:0x28,%rax
    2a78:	00 00 
    2a7a:	48 89 84 24 08 02 00 	mov    %rax,0x208(%rsp)
    2a81:	00 
    2a82:	31 c0                	xor    %eax,%eax
    2a84:	49 89 e4             	mov    %rsp,%r12
    2a87:	e8 34 1f 00 00       	callq  49c0 <pqcrystals_kyber1024_ref_poly_basemul_montgomery>
    2a8c:	49 8d 14 1e          	lea    (%r14,%rbx,1),%rdx
    2a90:	49 8d 74 1d 00       	lea    0x0(%r13,%rbx,1),%rsi
    2a95:	4c 89 e7             	mov    %r12,%rdi
    2a98:	48 81 c3 00 02 00 00 	add    $0x200,%rbx
    2a9f:	e8 1c 1f 00 00       	callq  49c0 <pqcrystals_kyber1024_ref_poly_basemul_montgomery>
    2aa4:	4c 89 e2             	mov    %r12,%rdx
    2aa7:	48 89 ee             	mov    %rbp,%rsi
    2aaa:	48 89 ef             	mov    %rbp,%rdi
    2aad:	e8 0e 20 00 00       	callq  4ac0 <pqcrystals_kyber1024_ref_poly_add>
    2ab2:	48 81 fb 00 08 00 00 	cmp    $0x800,%rbx
    2ab9:	75 d1                	jne    2a8c <pqcrystals_kyber1024_ref_polyvec_basemul_acc_montgomery+0x3c>
    2abb:	48 89 ef             	mov    %rbp,%rdi
    2abe:	e8 bd 1f 00 00       	callq  4a80 <pqcrystals_kyber1024_ref_poly_reduce>
    2ac3:	48 8b 84 24 08 02 00 	mov    0x208(%rsp),%rax
    2aca:	00 
    2acb:	64 48 33 04 25 28 00 	xor    %fs:0x28,%rax
    2ad2:	00 00 
    2ad4:	75 10                	jne    2ae6 <pqcrystals_kyber1024_ref_polyvec_basemul_acc_montgomery+0x96>
    2ad6:	48 81 c4 10 02 00 00 	add    $0x210,%rsp
    2add:	5b                   	pop    %rbx
    2ade:	5d                   	pop    %rbp
    2adf:	41 5c                	pop    %r12
    2ae1:	41 5d                	pop    %r13
    2ae3:	41 5e                	pop    %r14
    2ae5:	c3                   	retq   
    2ae6:	e8 95 e6 ff ff       	callq  1180 <__stack_chk_fail@plt>
    2aeb:	0f 1f 44 00 00       	nopl   0x0(%rax,%rax,1)

0000000000002af0 <pqcrystals_kyber1024_ref_polyvec_reduce>:
    2af0:	f3 0f 1e fa          	endbr64 
    2af4:	53                   	push   %rbx
    2af5:	48 89 fb             	mov    %rdi,%rbx
    2af8:	e8 83 1f 00 00       	callq  4a80 <pqcrystals_kyber1024_ref_poly_reduce>
    2afd:	48 8d bb 00 02 00 00 	lea    0x200(%rbx),%rdi
    2b04:	e8 77 1f 00 00       	callq  4a80 <pqcrystals_kyber1024_ref_poly_reduce>
    2b09:	48 8d bb 00 04 00 00 	lea    0x400(%rbx),%rdi
    2b10:	e8 6b 1f 00 00       	callq  4a80 <pqcrystals_kyber1024_ref_poly_reduce>
    2b15:	48 8d bb 00 06 00 00 	lea    0x600(%rbx),%rdi
    2b1c:	5b                   	pop    %rbx
    2b1d:	e9 5e 1f 00 00       	jmpq   4a80 <pqcrystals_kyber1024_ref_poly_reduce>
    2b22:	66 66 2e 0f 1f 84 00 	data16 nopw %cs:0x0(%rax,%rax,1)
    2b29:	00 00 00 00 
    2b2d:	0f 1f 00             	nopl   (%rax)

0000000000002b30 <pqcrystals_kyber1024_ref_polyvec_add>:
    2b30:	f3 0f 1e fa          	endbr64 
    2b34:	41 55                	push   %r13
    2b36:	49 89 fd             	mov    %rdi,%r13
    2b39:	41 54                	push   %r12
    2b3b:	49 89 f4             	mov    %rsi,%r12
    2b3e:	55                   	push   %rbp
    2b3f:	48 89 d5             	mov    %rdx,%rbp
    2b42:	53                   	push   %rbx
    2b43:	31 db                	xor    %ebx,%ebx
    2b45:	48 83 ec 08          	sub    $0x8,%rsp
    2b49:	48 8d 54 1d 00       	lea    0x0(%rbp,%rbx,1),%rdx
    2b4e:	49 8d 34 1c          	lea    (%r12,%rbx,1),%rsi
    2b52:	49 8d 7c 1d 00       	lea    0x0(%r13,%rbx,1),%rdi
    2b57:	48 81 c3 00 02 00 00 	add    $0x200,%rbx
    2b5e:	e8 5d 1f 00 00       	callq  4ac0 <pqcrystals_kyber1024_ref_poly_add>
    2b63:	48 81 fb 00 08 00 00 	cmp    $0x800,%rbx
    2b6a:	75 dd                	jne    2b49 <pqcrystals_kyber1024_ref_polyvec_add+0x19>
    2b6c:	48 83 c4 08          	add    $0x8,%rsp
    2b70:	5b                   	pop    %rbx
    2b71:	5d                   	pop    %rbp
    2b72:	41 5c                	pop    %r12
    2b74:	41 5d                	pop    %r13
    2b76:	c3                   	retq   
    2b77:	66 0f 1f 84 00 00 00 	nopw   0x0(%rax,%rax,1)
    2b7e:	00 00 

0000000000002b80 <pqcrystals_kyber1024_ref_poly_compress>:
    2b80:	f3 0f 1e fa          	endbr64 
    2b84:	41 54                	push   %r12
    2b86:	49 89 f3             	mov    %rsi,%r11
    2b89:	55                   	push   %rbp
    2b8a:	48 8d af a0 00 00 00 	lea    0xa0(%rdi),%rbp
    2b91:	53                   	push   %rbx
    2b92:	48 89 fb             	mov    %rdi,%rbx
    2b95:	0f 1f 00             	nopl   (%rax)
    2b98:	41 0f b7 03          	movzwl (%r11),%eax
    2b9c:	41 0f b7 4b 08       	movzwl 0x8(%r11),%ecx
    2ba1:	41 0f b7 73 0c       	movzwl 0xc(%r11),%esi
    2ba6:	45 0f b7 63 0e       	movzwl 0xe(%r11),%r12d
    2bab:	41 89 c2             	mov    %eax,%r10d
    2bae:	66 41 c1 fa 0f       	sar    $0xf,%r10w
    2bb3:	66 41 81 e2 01 0d    	and    $0xd01,%r10w
    2bb9:	41 01 c2             	add    %eax,%r10d
    2bbc:	41 0f b7 43 02       	movzwl 0x2(%r11),%eax
    2bc1:	45 0f bf d2          	movswl %r10w,%r10d
    2bc5:	89 c2                	mov    %eax,%edx
    2bc7:	41 c1 e2 05          	shl    $0x5,%r10d
    2bcb:	66 c1 fa 0f          	sar    $0xf,%dx
    2bcf:	41 81 c2 80 06 00 00 	add    $0x680,%r10d
    2bd6:	66 81 e2 01 0d       	and    $0xd01,%dx
    2bdb:	45 69 d2 7e 9d 00 00 	imul   $0x9d7e,%r10d,%r10d
    2be2:	01 c2                	add    %eax,%edx
    2be4:	41 0f b7 43 04       	movzwl 0x4(%r11),%eax
    2be9:	0f bf d2             	movswl %dx,%edx
    2bec:	41 89 c1             	mov    %eax,%r9d
    2bef:	c1 e2 05             	shl    $0x5,%edx
    2bf2:	66 41 c1 f9 0f       	sar    $0xf,%r9w
    2bf7:	81 c2 80 06 00 00    	add    $0x680,%edx
    2bfd:	66 41 81 e1 01 0d    	and    $0xd01,%r9w
    2c03:	69 d2 7e 9d 00 00    	imul   $0x9d7e,%edx,%edx
    2c09:	41 01 c1             	add    %eax,%r9d
    2c0c:	41 0f b7 43 06       	movzwl 0x6(%r11),%eax
    2c11:	45 0f bf c9          	movswl %r9w,%r9d
    2c15:	41 c1 e1 05          	shl    $0x5,%r9d
    2c19:	89 c7                	mov    %eax,%edi
    2c1b:	c1 ea 1b             	shr    $0x1b,%edx
    2c1e:	66 c1 ff 0f          	sar    $0xf,%di
    2c22:	41 81 c1 80 06 00 00 	add    $0x680,%r9d
    2c29:	66 81 e7 01 0d       	and    $0xd01,%di
    2c2e:	45 69 c9 7e 9d 00 00 	imul   $0x9d7e,%r9d,%r9d
    2c35:	01 c7                	add    %eax,%edi
    2c37:	89 c8                	mov    %ecx,%eax
    2c39:	66 c1 f8 0f          	sar    $0xf,%ax
    2c3d:	0f bf ff             	movswl %di,%edi
    2c40:	66 25 01 0d          	and    $0xd01,%ax
    2c44:	c1 e7 05             	shl    $0x5,%edi
    2c47:	01 c8                	add    %ecx,%eax
    2c49:	81 c7 80 06 00 00    	add    $0x680,%edi
    2c4f:	41 0f b7 4b 0a       	movzwl 0xa(%r11),%ecx
    2c54:	98                   	cwtl   
    2c55:	69 ff 7e 9d 00 00    	imul   $0x9d7e,%edi,%edi
    2c5b:	c1 e0 05             	shl    $0x5,%eax
    2c5e:	41 89 c8             	mov    %ecx,%r8d
    2c61:	05 80 06 00 00       	add    $0x680,%eax
    2c66:	69 c0 7e 9d 00 00    	imul   $0x9d7e,%eax,%eax
    2c6c:	c1 ef 1b             	shr    $0x1b,%edi
    2c6f:	c1 e8 1b             	shr    $0x1b,%eax
    2c72:	66 41 c1 f8 0f       	sar    $0xf,%r8w
    2c77:	41 c1 e9 1b          	shr    $0x1b,%r9d
    2c7b:	66 41 81 e0 01 0d    	and    $0xd01,%r8w
    2c81:	41 c1 ea 1b          	shr    $0x1b,%r10d
    2c85:	41 01 c8             	add    %ecx,%r8d
    2c88:	89 f1                	mov    %esi,%ecx
    2c8a:	41 c1 e1 02          	shl    $0x2,%r9d
    2c8e:	66 c1 f9 0f          	sar    $0xf,%cx
    2c92:	45 0f bf c0          	movswl %r8w,%r8d
    2c96:	66 81 e1 01 0d       	and    $0xd01,%cx
    2c9b:	41 c1 e0 05          	shl    $0x5,%r8d
    2c9f:	01 f1                	add    %esi,%ecx
    2ca1:	44 89 e6             	mov    %r12d,%esi
    2ca4:	41 81 c0 80 06 00 00 	add    $0x680,%r8d
    2cab:	66 c1 fe 0f          	sar    $0xf,%si
    2caf:	45 69 c0 7e 9d 00 00 	imul   $0x9d7e,%r8d,%r8d
    2cb6:	0f bf c9             	movswl %cx,%ecx
    2cb9:	66 81 e6 01 0d       	and    $0xd01,%si
    2cbe:	c1 e1 05             	shl    $0x5,%ecx
    2cc1:	44 01 e6             	add    %r12d,%esi
    2cc4:	41 89 d4             	mov    %edx,%r12d
    2cc7:	c0 ea 03             	shr    $0x3,%dl
    2cca:	81 c1 80 06 00 00    	add    $0x680,%ecx
    2cd0:	44 09 ca             	or     %r9d,%edx
    2cd3:	41 89 f9             	mov    %edi,%r9d
    2cd6:	0f bf f6             	movswl %si,%esi
    2cd9:	41 c1 e4 05          	shl    $0x5,%r12d
    2cdd:	41 c1 e1 07          	shl    $0x7,%r9d
    2ce1:	69 c9 7e 9d 00 00    	imul   $0x9d7e,%ecx,%ecx
    2ce7:	c1 e6 05             	shl    $0x5,%esi
    2cea:	45 09 e2             	or     %r12d,%r10d
    2ced:	44 09 ca             	or     %r9d,%edx
    2cf0:	81 c6 80 06 00 00    	add    $0x680,%esi
    2cf6:	40 d0 ef             	shr    %dil
    2cf9:	44 88 13             	mov    %r10b,(%rbx)
    2cfc:	88 53 01             	mov    %dl,0x1(%rbx)
    2cff:	89 c2                	mov    %eax,%edx
    2d01:	69 f6 7e 9d 00 00    	imul   $0x9d7e,%esi,%esi
    2d07:	c1 e2 04             	shl    $0x4,%edx
    2d0a:	c1 e9 1b             	shr    $0x1b,%ecx
    2d0d:	09 d7                	or     %edx,%edi
    2d0f:	41 c1 e8 1b          	shr    $0x1b,%r8d
    2d13:	48 83 c3 05          	add    $0x5,%rbx
    2d17:	49 83 c3 10          	add    $0x10,%r11
    2d1b:	c0 e8 04             	shr    $0x4,%al
    2d1e:	45 01 c0             	add    %r8d,%r8d
    2d21:	c1 ee 1b             	shr    $0x1b,%esi
    2d24:	40 88 7b fd          	mov    %dil,-0x3(%rbx)
    2d28:	44 09 c0             	or     %r8d,%eax
    2d2b:	41 89 c8             	mov    %ecx,%r8d
    2d2e:	c1 e6 03             	shl    $0x3,%esi
    2d31:	41 c1 e0 06          	shl    $0x6,%r8d
    2d35:	c0 e9 02             	shr    $0x2,%cl
    2d38:	44 09 c0             	or     %r8d,%eax
    2d3b:	09 f1                	or     %esi,%ecx
    2d3d:	88 43 fe             	mov    %al,-0x2(%rbx)
    2d40:	88 4b ff             	mov    %cl,-0x1(%rbx)
    2d43:	48 39 eb             	cmp    %rbp,%rbx
    2d46:	0f 85 4c fe ff ff    	jne    2b98 <pqcrystals_kyber1024_ref_poly_compress+0x18>
    2d4c:	5b                   	pop    %rbx
    2d4d:	5d                   	pop    %rbp
    2d4e:	41 5c                	pop    %r12
    2d50:	c3                   	retq   
    2d51:	66 66 2e 0f 1f 84 00 	data16 nopw %cs:0x0(%rax,%rax,1)
    2d58:	00 00 00 00 
    2d5c:	0f 1f 40 00          	nopl   0x0(%rax)

0000000000002d60 <pqcrystals_kyber1024_ref_poly_decompress>:
    2d60:	f3 0f 1e fa          	endbr64 
    2d64:	48 8d 8e a0 00 00 00 	lea    0xa0(%rsi),%rcx
    2d6b:	0f 1f 44 00 00       	nopl   0x0(%rax,%rax,1)
    2d70:	44 0f b6 16          	movzbl (%rsi),%r10d
    2d74:	44 0f b6 4e 01       	movzbl 0x1(%rsi),%r9d
    2d79:	48 83 c6 05          	add    $0x5,%rsi
    2d7d:	44 0f b6 46 fd       	movzbl -0x3(%rsi),%r8d
    2d82:	0f b6 56 fe          	movzbl -0x2(%rsi),%edx
    2d86:	45 89 d3             	mov    %r10d,%r11d
    2d89:	0f b6 46 ff          	movzbl -0x1(%rsi),%eax
    2d8d:	41 83 e3 1f          	and    $0x1f,%r11d
    2d91:	45 69 db 01 0d 00 00 	imul   $0xd01,%r11d,%r11d
    2d98:	41 83 c3 10          	add    $0x10,%r11d
    2d9c:	41 c1 eb 05          	shr    $0x5,%r11d
    2da0:	66 44 89 1f          	mov    %r11w,(%rdi)
    2da4:	45 89 d3             	mov    %r10d,%r11d
    2da7:	46 8d 14 cd 00 00 00 	lea    0x0(,%r9,8),%r10d
    2dae:	00 
    2daf:	41 c0 eb 05          	shr    $0x5,%r11b
    2db3:	45 09 da             	or     %r11d,%r10d
    2db6:	41 83 e2 1f          	and    $0x1f,%r10d
    2dba:	45 69 d2 01 0d 00 00 	imul   $0xd01,%r10d,%r10d
    2dc1:	41 83 c2 10          	add    $0x10,%r10d
    2dc5:	41 c1 ea 05          	shr    $0x5,%r10d
    2dc9:	66 44 89 57 02       	mov    %r10w,0x2(%rdi)
    2dce:	45 89 ca             	mov    %r9d,%r10d
    2dd1:	41 c0 e9 07          	shr    $0x7,%r9b
    2dd5:	41 c0 ea 02          	shr    $0x2,%r10b
    2dd9:	41 83 e2 1f          	and    $0x1f,%r10d
    2ddd:	45 69 d2 01 0d 00 00 	imul   $0xd01,%r10d,%r10d
    2de4:	41 83 c2 10          	add    $0x10,%r10d
    2de8:	41 c1 ea 05          	shr    $0x5,%r10d
    2dec:	66 44 89 57 04       	mov    %r10w,0x4(%rdi)
    2df1:	45 89 ca             	mov    %r9d,%r10d
    2df4:	47 8d 0c 00          	lea    (%r8,%r8,1),%r9d
    2df8:	45 09 d1             	or     %r10d,%r9d
    2dfb:	41 83 e1 1f          	and    $0x1f,%r9d
    2dff:	45 69 c9 01 0d 00 00 	imul   $0xd01,%r9d,%r9d
    2e06:	41 83 c1 10          	add    $0x10,%r9d
    2e0a:	41 c1 e9 05          	shr    $0x5,%r9d
    2e0e:	66 44 89 4f 06       	mov    %r9w,0x6(%rdi)
    2e13:	45 89 c1             	mov    %r8d,%r9d
    2e16:	41 89 d0             	mov    %edx,%r8d
    2e19:	41 c0 e9 04          	shr    $0x4,%r9b
    2e1d:	41 c1 e0 04          	shl    $0x4,%r8d
    2e21:	45 09 c8             	or     %r9d,%r8d
    2e24:	41 83 e0 1f          	and    $0x1f,%r8d
    2e28:	45 69 c0 01 0d 00 00 	imul   $0xd01,%r8d,%r8d
    2e2f:	41 83 c0 10          	add    $0x10,%r8d
    2e33:	41 c1 e8 05          	shr    $0x5,%r8d
    2e37:	66 44 89 47 08       	mov    %r8w,0x8(%rdi)
    2e3c:	41 89 d0             	mov    %edx,%r8d
    2e3f:	41 d0 e8             	shr    %r8b
    2e42:	41 83 e0 1f          	and    $0x1f,%r8d
    2e46:	45 69 c0 01 0d 00 00 	imul   $0xd01,%r8d,%r8d
    2e4d:	41 83 c0 10          	add    $0x10,%r8d
    2e51:	c0 ea 06             	shr    $0x6,%dl
    2e54:	48 83 c7 10          	add    $0x10,%rdi
    2e58:	41 c1 e8 05          	shr    $0x5,%r8d
    2e5c:	66 44 89 47 fa       	mov    %r8w,-0x6(%rdi)
    2e61:	41 89 d0             	mov    %edx,%r8d
    2e64:	8d 14 85 00 00 00 00 	lea    0x0(,%rax,4),%edx
    2e6b:	c0 e8 03             	shr    $0x3,%al
    2e6e:	44 09 c2             	or     %r8d,%edx
    2e71:	0f b6 c0             	movzbl %al,%eax
    2e74:	83 e2 1f             	and    $0x1f,%edx
    2e77:	69 c0 01 0d 00 00    	imul   $0xd01,%eax,%eax
    2e7d:	69 d2 01 0d 00 00    	imul   $0xd01,%edx,%edx
    2e83:	83 c0 10             	add    $0x10,%eax
    2e86:	83 c2 10             	add    $0x10,%edx
    2e89:	c1 e8 05             	shr    $0x5,%eax
    2e8c:	c1 ea 05             	shr    $0x5,%edx
    2e8f:	66 89 47 fe          	mov    %ax,-0x2(%rdi)
    2e93:	66 89 57 fc          	mov    %dx,-0x4(%rdi)
    2e97:	48 39 ce             	cmp    %rcx,%rsi
    2e9a:	0f 85 d0 fe ff ff    	jne    2d70 <pqcrystals_kyber1024_ref_poly_decompress+0x10>
    2ea0:	c3                   	retq   
    2ea1:	66 66 2e 0f 1f 84 00 	data16 nopw %cs:0x0(%rax,%rax,1)
    2ea8:	00 00 00 00 
    2eac:	0f 1f 40 00          	nopl   0x0(%rax)

0000000000002eb0 <pqcrystals_kyber1024_ref_poly_tobytes>:
    2eb0:	f3 0f 1e fa          	endbr64 
    2eb4:	4c 8d 87 80 01 00 00 	lea    0x180(%rdi),%r8
    2ebb:	0f 1f 44 00 00       	nopl   0x0(%rax,%rax,1)
    2ec0:	0f b7 06             	movzwl (%rsi),%eax
    2ec3:	0f b7 4e 02          	movzwl 0x2(%rsi),%ecx
    2ec7:	48 83 c7 03          	add    $0x3,%rdi
    2ecb:	48 83 c6 04          	add    $0x4,%rsi
    2ecf:	89 c2                	mov    %eax,%edx
    2ed1:	66 c1 fa 0f          	sar    $0xf,%dx
    2ed5:	66 81 e2 01 0d       	and    $0xd01,%dx
    2eda:	01 c2                	add    %eax,%edx
    2edc:	89 c8                	mov    %ecx,%eax
    2ede:	66 c1 f8 0f          	sar    $0xf,%ax
    2ee2:	88 57 fd             	mov    %dl,-0x3(%rdi)
    2ee5:	66 c1 ea 08          	shr    $0x8,%dx
    2ee9:	66 25 01 0d          	and    $0xd01,%ax
    2eed:	01 c8                	add    %ecx,%eax
    2eef:	89 c1                	mov    %eax,%ecx
    2ef1:	66 c1 e8 04          	shr    $0x4,%ax
    2ef5:	c1 e1 04             	shl    $0x4,%ecx
    2ef8:	88 47 ff             	mov    %al,-0x1(%rdi)
    2efb:	09 ca                	or     %ecx,%edx
    2efd:	88 57 fe             	mov    %dl,-0x2(%rdi)
    2f00:	49 39 f8             	cmp    %rdi,%r8
    2f03:	75 bb                	jne    2ec0 <pqcrystals_kyber1024_ref_poly_tobytes+0x10>
    2f05:	c3                   	retq   
    2f06:	66 2e 0f 1f 84 00 00 	nopw   %cs:0x0(%rax,%rax,1)
    2f0d:	00 00 00 

0000000000002f10 <pqcrystals_kyber1024_ref_poly_frombytes>:
    2f10:	f3 0f 1e fa          	endbr64 
    2f14:	48 8d 8e 80 01 00 00 	lea    0x180(%rsi),%rcx
    2f1b:	0f 1f 44 00 00       	nopl   0x0(%rax,%rax,1)
    2f20:	0f b6 46 01          	movzbl 0x1(%rsi),%eax
    2f24:	48 83 c6 03          	add    $0x3,%rsi
    2f28:	48 83 c7 04          	add    $0x4,%rdi
    2f2c:	c1 e0 08             	shl    $0x8,%eax
    2f2f:	89 c2                	mov    %eax,%edx
    2f31:	0f b6 46 fd          	movzbl -0x3(%rsi),%eax
    2f35:	09 d0                	or     %edx,%eax
    2f37:	66 25 ff 0f          	and    $0xfff,%ax
    2f3b:	66 89 47 fc          	mov    %ax,-0x4(%rdi)
    2f3f:	0f b6 46 fe          	movzbl -0x2(%rsi),%eax
    2f43:	0f b6 56 ff          	movzbl -0x1(%rsi),%edx
    2f47:	c0 e8 04             	shr    $0x4,%al
    2f4a:	0f b6 c0             	movzbl %al,%eax
    2f4d:	c1 e2 04             	shl    $0x4,%edx
    2f50:	09 d0                	or     %edx,%eax
    2f52:	66 89 47 fe          	mov    %ax,-0x2(%rdi)
    2f56:	48 39 f1             	cmp    %rsi,%rcx
    2f59:	75 c5                	jne    2f20 <pqcrystals_kyber1024_ref_poly_frombytes+0x10>
    2f5b:	c3                   	retq   
    2f5c:	0f 1f 40 00          	nopl   0x0(%rax)

0000000000002f60 <pqcrystals_kyber1024_ref_poly_frommsg>:
    2f60:	f3 0f 1e fa          	endbr64 
    2f64:	48 8d 4e 20          	lea    0x20(%rsi),%rcx
    2f68:	48 89 f8             	mov    %rdi,%rax
    2f6b:	48 89 f2             	mov    %rsi,%rdx
    2f6e:	48 39 cf             	cmp    %rcx,%rdi
    2f71:	73 10                	jae    2f83 <pqcrystals_kyber1024_ref_poly_frommsg+0x23>
    2f73:	48 8d b7 00 02 00 00 	lea    0x200(%rdi),%rsi
    2f7a:	48 39 f2             	cmp    %rsi,%rdx
    2f7d:	0f 82 15 05 00 00    	jb     3498 <pqcrystals_kyber1024_ref_poly_frommsg+0x538>
    2f83:	66 44 0f 6f 2d 94 80 	movdqa 0x8094(%rip),%xmm13        # b020 <_IO_stdin_used+0x20>
    2f8a:	00 00 
    2f8c:	66 45 0f ef db       	pxor   %xmm11,%xmm11
    2f91:	66 45 0f ef e4       	pxor   %xmm12,%xmm12
    2f96:	f3 0f 6f 3a          	movdqu (%rdx),%xmm7
    2f9a:	66 41 0f 6f d4       	movdqa %xmm12,%xmm2
    2f9f:	66 41 0f 6f f4       	movdqa %xmm12,%xmm6
    2fa4:	66 0f 6f 05 64 80 00 	movdqa 0x8064(%rip),%xmm0        # b010 <_IO_stdin_used+0x10>
    2fab:	00 
    2fac:	66 45 0f 6f f4       	movdqa %xmm12,%xmm14
    2fb1:	66 45 0f 6f d4       	movdqa %xmm12,%xmm10
    2fb6:	66 45 0f 6f fc       	movdqa %xmm12,%xmm15
    2fbb:	48 83 c2 10          	add    $0x10,%rdx
    2fbf:	66 0f db c7          	pand   %xmm7,%xmm0
    2fc3:	66 0f 6f e7          	movdqa %xmm7,%xmm4
    2fc7:	66 41 0f 68 fb       	punpckhbw %xmm11,%xmm7
    2fcc:	48 05 00 01 00 00    	add    $0x100,%rax
    2fd2:	66 0f 6f c8          	movdqa %xmm0,%xmm1
    2fd6:	66 41 0f 60 e3       	punpcklbw %xmm11,%xmm4
    2fdb:	66 0f 6f df          	movdqa %xmm7,%xmm3
    2fdf:	66 41 0f 60 cb       	punpcklbw %xmm11,%xmm1
    2fe4:	66 0f 71 d3 01       	psrlw  $0x1,%xmm3
    2fe9:	66 41 0f 68 c3       	punpckhbw %xmm11,%xmm0
    2fee:	66 0f f9 d1          	psubw  %xmm1,%xmm2
    2ff2:	66 0f db 1d 36 80 00 	pand   0x8036(%rip),%xmm3        # b030 <_IO_stdin_used+0x30>
    2ff9:	00 
    2ffa:	66 0f f9 f0          	psubw  %xmm0,%xmm6
    2ffe:	66 0f 6f ca          	movdqa %xmm2,%xmm1
    3002:	66 0f 6f d4          	movdqa %xmm4,%xmm2
    3006:	66 0f 6f c6          	movdqa %xmm6,%xmm0
    300a:	66 0f 71 d2 01       	psrlw  $0x1,%xmm2
    300f:	66 41 0f 6f f4       	movdqa %xmm12,%xmm6
    3014:	66 0f 6f ec          	movdqa %xmm4,%xmm5
    3018:	66 0f 71 d5 02       	psrlw  $0x2,%xmm5
    301d:	66 44 0f 6f c4       	movdqa %xmm4,%xmm8
    3022:	66 44 0f 6f cf       	movdqa %xmm7,%xmm9
    3027:	66 41 0f 71 d0 03    	psrlw  $0x3,%xmm8
    302d:	66 41 0f db cd       	pand   %xmm13,%xmm1
    3032:	66 41 0f db c5       	pand   %xmm13,%xmm0
    3037:	66 0f db 15 f1 7f 00 	pand   0x7ff1(%rip),%xmm2        # b030 <_IO_stdin_used+0x30>
    303e:	00 
    303f:	66 0f db 2d e9 7f 00 	pand   0x7fe9(%rip),%xmm5        # b030 <_IO_stdin_used+0x30>
    3046:	00 
    3047:	66 44 0f db 05 e0 7f 	pand   0x7fe0(%rip),%xmm8        # b030 <_IO_stdin_used+0x30>
    304e:	00 00 
    3050:	66 41 0f 71 d1 04    	psrlw  $0x4,%xmm9
    3056:	66 44 0f db 0d d1 7f 	pand   0x7fd1(%rip),%xmm9        # b030 <_IO_stdin_used+0x30>
    305d:	00 00 
    305f:	66 0f 67 d3          	packuswb %xmm3,%xmm2
    3063:	66 0f db 15 a5 7f 00 	pand   0x7fa5(%rip),%xmm2        # b010 <_IO_stdin_used+0x10>
    306a:	00 
    306b:	66 0f 6f da          	movdqa %xmm2,%xmm3
    306f:	66 41 0f 68 d3       	punpckhbw %xmm11,%xmm2
    3074:	66 41 0f 60 db       	punpcklbw %xmm11,%xmm3
    3079:	66 0f f9 f3          	psubw  %xmm3,%xmm6
    307d:	66 0f 6f de          	movdqa %xmm6,%xmm3
    3081:	66 41 0f 6f f4       	movdqa %xmm12,%xmm6
    3086:	66 0f f9 f2          	psubw  %xmm2,%xmm6
    308a:	66 41 0f db dd       	pand   %xmm13,%xmm3
    308f:	66 0f 6f d6          	movdqa %xmm6,%xmm2
    3093:	66 0f 6f f7          	movdqa %xmm7,%xmm6
    3097:	66 0f 71 d6 02       	psrlw  $0x2,%xmm6
    309c:	66 0f db 35 8c 7f 00 	pand   0x7f8c(%rip),%xmm6        # b030 <_IO_stdin_used+0x30>
    30a3:	00 
    30a4:	66 41 0f db d5       	pand   %xmm13,%xmm2
    30a9:	66 0f 67 ee          	packuswb %xmm6,%xmm5
    30ad:	66 0f db 2d 5b 7f 00 	pand   0x7f5b(%rip),%xmm5        # b010 <_IO_stdin_used+0x10>
    30b4:	00 
    30b5:	66 0f 6f f5          	movdqa %xmm5,%xmm6
    30b9:	66 41 0f 68 eb       	punpckhbw %xmm11,%xmm5
    30be:	66 44 0f f9 f5       	psubw  %xmm5,%xmm14
    30c3:	66 41 0f 60 f3       	punpcklbw %xmm11,%xmm6
    30c8:	66 41 0f 6f ee       	movdqa %xmm14,%xmm5
    30cd:	66 44 0f f9 d6       	psubw  %xmm6,%xmm10
    30d2:	66 44 0f 6f f4       	movdqa %xmm4,%xmm14
    30d7:	66 41 0f db ed       	pand   %xmm13,%xmm5
    30dc:	66 41 0f 71 d6 04    	psrlw  $0x4,%xmm14
    30e2:	66 41 0f 6f f2       	movdqa %xmm10,%xmm6
    30e7:	0f 29 6c 24 a8       	movaps %xmm5,-0x58(%rsp)
    30ec:	66 0f 6f ef          	movdqa %xmm7,%xmm5
    30f0:	66 45 0f 6f d4       	movdqa %xmm12,%xmm10
    30f5:	66 41 0f db f5       	pand   %xmm13,%xmm6
    30fa:	66 0f 71 d5 03       	psrlw  $0x3,%xmm5
    30ff:	66 0f db 2d 29 7f 00 	pand   0x7f29(%rip),%xmm5        # b030 <_IO_stdin_used+0x30>
    3106:	00 
    3107:	66 44 0f 67 c5       	packuswb %xmm5,%xmm8
    310c:	66 44 0f db 05 fb 7e 	pand   0x7efb(%rip),%xmm8        # b010 <_IO_stdin_used+0x10>
    3113:	00 00 
    3115:	66 41 0f 6f e8       	movdqa %xmm8,%xmm5
    311a:	66 45 0f 68 c3       	punpckhbw %xmm11,%xmm8
    311f:	66 45 0f f9 d0       	psubw  %xmm8,%xmm10
    3124:	66 41 0f 60 eb       	punpcklbw %xmm11,%xmm5
    3129:	66 45 0f 6f c2       	movdqa %xmm10,%xmm8
    312e:	66 44 0f f9 fd       	psubw  %xmm5,%xmm15
    3133:	66 45 0f 6f d4       	movdqa %xmm12,%xmm10
    3138:	66 45 0f db c5       	pand   %xmm13,%xmm8
    313d:	66 41 0f 6f ef       	movdqa %xmm15,%xmm5
    3142:	66 45 0f 6f fc       	movdqa %xmm12,%xmm15
    3147:	44 0f 29 44 24 b8    	movaps %xmm8,-0x48(%rsp)
    314d:	66 45 0f 6f c6       	movdqa %xmm14,%xmm8
    3152:	66 41 0f db ed       	pand   %xmm13,%xmm5
    3157:	66 44 0f db 05 d0 7e 	pand   0x7ed0(%rip),%xmm8        # b030 <_IO_stdin_used+0x30>
    315e:	00 00 
    3160:	66 45 0f 67 c1       	packuswb %xmm9,%xmm8
    3165:	66 44 0f db 05 a2 7e 	pand   0x7ea2(%rip),%xmm8        # b010 <_IO_stdin_used+0x10>
    316c:	00 00 
    316e:	66 45 0f 6f c8       	movdqa %xmm8,%xmm9
    3173:	66 45 0f 68 c3       	punpckhbw %xmm11,%xmm8
    3178:	66 45 0f 60 cb       	punpcklbw %xmm11,%xmm9
    317d:	66 45 0f f9 d0       	psubw  %xmm8,%xmm10
    3182:	66 45 0f f9 f9       	psubw  %xmm9,%xmm15
    3187:	66 45 0f 6f f2       	movdqa %xmm10,%xmm14
    318c:	66 44 0f 6f d7       	movdqa %xmm7,%xmm10
    3191:	66 45 0f 6f cf       	movdqa %xmm15,%xmm9
    3196:	66 44 0f 6f fc       	movdqa %xmm4,%xmm15
    319b:	66 45 0f db f5       	pand   %xmm13,%xmm14
    31a0:	66 45 0f db cd       	pand   %xmm13,%xmm9
    31a5:	66 41 0f 71 d7 05    	psrlw  $0x5,%xmm15
    31ab:	44 0f 29 74 24 d8    	movaps %xmm14,-0x28(%rsp)
    31b1:	66 45 0f 6f f4       	movdqa %xmm12,%xmm14
    31b6:	66 41 0f 71 d2 05    	psrlw  $0x5,%xmm10
    31bc:	44 0f 29 4c 24 c8    	movaps %xmm9,-0x38(%rsp)
    31c2:	66 45 0f 6f c7       	movdqa %xmm15,%xmm8
    31c7:	66 44 0f db 05 60 7e 	pand   0x7e60(%rip),%xmm8        # b030 <_IO_stdin_used+0x30>
    31ce:	00 00 
    31d0:	66 45 0f 6f ca       	movdqa %xmm10,%xmm9
    31d5:	66 45 0f 6f d4       	movdqa %xmm12,%xmm10
    31da:	66 44 0f db 0d 4d 7e 	pand   0x7e4d(%rip),%xmm9        # b030 <_IO_stdin_used+0x30>
    31e1:	00 00 
    31e3:	66 45 0f 67 c1       	packuswb %xmm9,%xmm8
    31e8:	66 44 0f 6f cf       	movdqa %xmm7,%xmm9
    31ed:	66 44 0f db 05 1a 7e 	pand   0x7e1a(%rip),%xmm8        # b010 <_IO_stdin_used+0x10>
    31f4:	00 00 
    31f6:	66 41 0f 71 d1 06    	psrlw  $0x6,%xmm9
    31fc:	66 0f 71 d7 07       	psrlw  $0x7,%xmm7
    3201:	66 44 0f db 0d 26 7e 	pand   0x7e26(%rip),%xmm9        # b030 <_IO_stdin_used+0x30>
    3208:	00 00 
    320a:	66 45 0f 6f f8       	movdqa %xmm8,%xmm15
    320f:	66 45 0f 68 c3       	punpckhbw %xmm11,%xmm8
    3214:	66 0f db 3d 14 7e 00 	pand   0x7e14(%rip),%xmm7        # b030 <_IO_stdin_used+0x30>
    321b:	00 
    321c:	66 45 0f 60 fb       	punpcklbw %xmm11,%xmm15
    3221:	66 45 0f f9 d7       	psubw  %xmm15,%xmm10
    3226:	66 45 0f 6f fc       	movdqa %xmm12,%xmm15
    322b:	66 45 0f f9 f8       	psubw  %xmm8,%xmm15
    3230:	66 44 0f 6f c4       	movdqa %xmm4,%xmm8
    3235:	66 45 0f db d5       	pand   %xmm13,%xmm10
    323a:	66 41 0f 71 d0 06    	psrlw  $0x6,%xmm8
    3240:	66 0f 71 d4 07       	psrlw  $0x7,%xmm4
    3245:	66 45 0f db fd       	pand   %xmm13,%xmm15
    324a:	66 44 0f db 05 dd 7d 	pand   0x7ddd(%rip),%xmm8        # b030 <_IO_stdin_used+0x30>
    3251:	00 00 
    3253:	66 0f db 25 d5 7d 00 	pand   0x7dd5(%rip),%xmm4        # b030 <_IO_stdin_used+0x30>
    325a:	00 
    325b:	44 0f 29 7c 24 e8    	movaps %xmm15,-0x18(%rsp)
    3261:	66 45 0f 6f fc       	movdqa %xmm12,%xmm15
    3266:	66 45 0f 67 c1       	packuswb %xmm9,%xmm8
    326b:	66 0f 67 e7          	packuswb %xmm7,%xmm4
    326f:	66 44 0f db 05 98 7d 	pand   0x7d98(%rip),%xmm8        # b010 <_IO_stdin_used+0x10>
    3276:	00 00 
    3278:	66 0f 6f fc          	movdqa %xmm4,%xmm7
    327c:	66 41 0f 68 e3       	punpckhbw %xmm11,%xmm4
    3281:	66 45 0f 6f c8       	movdqa %xmm8,%xmm9
    3286:	66 41 0f 60 fb       	punpcklbw %xmm11,%xmm7
    328b:	66 45 0f 68 c3       	punpckhbw %xmm11,%xmm8
    3290:	66 45 0f 60 cb       	punpcklbw %xmm11,%xmm9
    3295:	66 44 0f f9 f7       	psubw  %xmm7,%xmm14
    329a:	66 0f 6f 7c 24 c8    	movdqa -0x38(%rsp),%xmm7
    32a0:	66 45 0f f9 f9       	psubw  %xmm9,%xmm15
    32a5:	66 45 0f 6f cc       	movdqa %xmm12,%xmm9
    32aa:	66 45 0f db f5       	pand   %xmm13,%xmm14
    32af:	66 45 0f f9 c8       	psubw  %xmm8,%xmm9
    32b4:	66 45 0f 6f c4       	movdqa %xmm12,%xmm8
    32b9:	66 45 0f db fd       	pand   %xmm13,%xmm15
    32be:	66 44 0f f9 c4       	psubw  %xmm4,%xmm8
    32c3:	66 0f 6f e1          	movdqa %xmm1,%xmm4
    32c7:	66 0f 69 cf          	punpckhwd %xmm7,%xmm1
    32cb:	66 0f 61 e7          	punpcklwd %xmm7,%xmm4
    32cf:	66 0f 6f fb          	movdqa %xmm3,%xmm7
    32d3:	66 41 0f 69 da       	punpckhwd %xmm10,%xmm3
    32d8:	66 41 0f 61 fa       	punpcklwd %xmm10,%xmm7
    32dd:	66 44 0f 6f d6       	movdqa %xmm6,%xmm10
    32e2:	66 41 0f 69 f7       	punpckhwd %xmm15,%xmm6
    32e7:	66 45 0f 61 d7       	punpcklwd %xmm15,%xmm10
    32ec:	66 44 0f 6f fd       	movdqa %xmm5,%xmm15
    32f1:	66 41 0f 69 ee       	punpckhwd %xmm14,%xmm5
    32f6:	66 45 0f 61 fe       	punpcklwd %xmm14,%xmm15
    32fb:	66 44 0f 6f f4       	movdqa %xmm4,%xmm14
    3300:	66 41 0f 69 e2       	punpckhwd %xmm10,%xmm4
    3305:	66 45 0f 61 f2       	punpcklwd %xmm10,%xmm14
    330a:	66 44 0f 6f d1       	movdqa %xmm1,%xmm10
    330f:	66 0f 69 ce          	punpckhwd %xmm6,%xmm1
    3313:	66 44 0f 61 d6       	punpcklwd %xmm6,%xmm10
    3318:	66 0f 6f f7          	movdqa %xmm7,%xmm6
    331c:	66 41 0f 69 ff       	punpckhwd %xmm15,%xmm7
    3321:	66 41 0f 61 f7       	punpcklwd %xmm15,%xmm6
    3326:	66 44 0f 6f fb       	movdqa %xmm3,%xmm15
    332b:	66 0f 69 dd          	punpckhwd %xmm5,%xmm3
    332f:	66 44 0f 61 fd       	punpcklwd %xmm5,%xmm15
    3334:	66 41 0f 6f ee       	movdqa %xmm14,%xmm5
    3339:	66 44 0f 69 f6       	punpckhwd %xmm6,%xmm14
    333e:	66 0f 61 ee          	punpcklwd %xmm6,%xmm5
    3342:	66 0f 6f f4          	movdqa %xmm4,%xmm6
    3346:	66 0f 69 e7          	punpckhwd %xmm7,%xmm4
    334a:	44 0f 11 b0 10 ff ff 	movups %xmm14,-0xf0(%rax)
    3351:	ff 
    3352:	66 0f 61 f7          	punpcklwd %xmm7,%xmm6
    3356:	66 45 0f db c5       	pand   %xmm13,%xmm8
    335b:	66 45 0f db cd       	pand   %xmm13,%xmm9
    3360:	0f 11 a0 30 ff ff ff 	movups %xmm4,-0xd0(%rax)
    3367:	0f 11 b0 20 ff ff ff 	movups %xmm6,-0xe0(%rax)
    336e:	66 41 0f 6f f2       	movdqa %xmm10,%xmm6
    3373:	66 0f 6f e1          	movdqa %xmm1,%xmm4
    3377:	66 0f 69 cb          	punpckhwd %xmm3,%xmm1
    337b:	66 41 0f 61 f7       	punpcklwd %xmm15,%xmm6
    3380:	66 0f 61 e3          	punpcklwd %xmm3,%xmm4
    3384:	66 45 0f 69 d7       	punpckhwd %xmm15,%xmm10
    3389:	0f 11 a8 00 ff ff ff 	movups %xmm5,-0x100(%rax)
    3390:	0f 11 b0 40 ff ff ff 	movups %xmm6,-0xc0(%rax)
    3397:	66 0f 6f 7c 24 e8    	movdqa -0x18(%rsp),%xmm7
    339d:	66 0f 6f f0          	movdqa %xmm0,%xmm6
    33a1:	66 0f 6f 5c 24 a8    	movdqa -0x58(%rsp),%xmm3
    33a7:	0f 11 88 70 ff ff ff 	movups %xmm1,-0x90(%rax)
    33ae:	66 0f 6f 4c 24 d8    	movdqa -0x28(%rsp),%xmm1
    33b4:	0f 11 a0 60 ff ff ff 	movups %xmm4,-0xa0(%rax)
    33bb:	66 0f 6f 64 24 b8    	movdqa -0x48(%rsp),%xmm4
    33c1:	66 0f 6f eb          	movdqa %xmm3,%xmm5
    33c5:	66 41 0f 69 d9       	punpckhwd %xmm9,%xmm3
    33ca:	66 0f 61 f1          	punpcklwd %xmm1,%xmm6
    33ce:	66 0f 69 c1          	punpckhwd %xmm1,%xmm0
    33d2:	66 0f 6f ca          	movdqa %xmm2,%xmm1
    33d6:	44 0f 11 90 50 ff ff 	movups %xmm10,-0xb0(%rax)
    33dd:	ff 
    33de:	66 0f 61 cf          	punpcklwd %xmm7,%xmm1
    33e2:	66 0f 69 d7          	punpckhwd %xmm7,%xmm2
    33e6:	66 0f 6f fc          	movdqa %xmm4,%xmm7
    33ea:	66 41 0f 69 e0       	punpckhwd %xmm8,%xmm4
    33ef:	66 41 0f 61 f8       	punpcklwd %xmm8,%xmm7
    33f4:	66 41 0f 61 e9       	punpcklwd %xmm9,%xmm5
    33f9:	66 44 0f 6f c4       	movdqa %xmm4,%xmm8
    33fe:	66 0f 6f e6          	movdqa %xmm6,%xmm4
    3402:	66 0f 69 f5          	punpckhwd %xmm5,%xmm6
    3406:	66 0f 61 e5          	punpcklwd %xmm5,%xmm4
    340a:	66 0f 6f e8          	movdqa %xmm0,%xmm5
    340e:	66 0f 69 c3          	punpckhwd %xmm3,%xmm0
    3412:	66 0f 61 eb          	punpcklwd %xmm3,%xmm5
    3416:	66 0f 6f d9          	movdqa %xmm1,%xmm3
    341a:	66 0f 69 cf          	punpckhwd %xmm7,%xmm1
    341e:	66 0f 61 df          	punpcklwd %xmm7,%xmm3
    3422:	66 0f 6f fa          	movdqa %xmm2,%xmm7
    3426:	66 41 0f 69 d0       	punpckhwd %xmm8,%xmm2
    342b:	66 41 0f 61 f8       	punpcklwd %xmm8,%xmm7
    3430:	66 44 0f 6f c4       	movdqa %xmm4,%xmm8
    3435:	66 0f 69 e3          	punpckhwd %xmm3,%xmm4
    3439:	66 44 0f 61 c3       	punpcklwd %xmm3,%xmm8
    343e:	66 0f 6f de          	movdqa %xmm6,%xmm3
    3442:	0f 11 60 90          	movups %xmm4,-0x70(%rax)
    3446:	66 0f 61 d9          	punpcklwd %xmm1,%xmm3
    344a:	44 0f 11 40 80       	movups %xmm8,-0x80(%rax)
    344f:	0f 11 58 a0          	movups %xmm3,-0x60(%rax)
    3453:	66 0f 6f de          	movdqa %xmm6,%xmm3
    3457:	66 0f 69 d9          	punpckhwd %xmm1,%xmm3
    345b:	66 0f 6f cd          	movdqa %xmm5,%xmm1
    345f:	66 0f 61 cf          	punpcklwd %xmm7,%xmm1
    3463:	0f 11 58 b0          	movups %xmm3,-0x50(%rax)
    3467:	0f 11 48 c0          	movups %xmm1,-0x40(%rax)
    346b:	66 0f 6f cd          	movdqa %xmm5,%xmm1
    346f:	66 0f 69 cf          	punpckhwd %xmm7,%xmm1
    3473:	0f 11 48 d0          	movups %xmm1,-0x30(%rax)
    3477:	66 0f 6f c8          	movdqa %xmm0,%xmm1
    347b:	66 0f 69 c2          	punpckhwd %xmm2,%xmm0
    347f:	66 0f 61 ca          	punpcklwd %xmm2,%xmm1
    3483:	0f 11 40 f0          	movups %xmm0,-0x10(%rax)
    3487:	0f 11 48 e0          	movups %xmm1,-0x20(%rax)
    348b:	48 39 ca             	cmp    %rcx,%rdx
    348e:	0f 85 02 fb ff ff    	jne    2f96 <pqcrystals_kyber1024_ref_poly_frommsg+0x36>
    3494:	c3                   	retq   
    3495:	0f 1f 00             	nopl   (%rax)
    3498:	0f b6 0a             	movzbl (%rdx),%ecx
    349b:	48 83 c0 10          	add    $0x10,%rax
    349f:	48 83 c2 01          	add    $0x1,%rdx
    34a3:	83 e1 01             	and    $0x1,%ecx
    34a6:	f7 d9                	neg    %ecx
    34a8:	66 81 e1 81 06       	and    $0x681,%cx
    34ad:	66 89 48 f0          	mov    %cx,-0x10(%rax)
    34b1:	0f b6 4a ff          	movzbl -0x1(%rdx),%ecx
    34b5:	d1 f9                	sar    %ecx
    34b7:	83 e1 01             	and    $0x1,%ecx
    34ba:	f7 d9                	neg    %ecx
    34bc:	66 81 e1 81 06       	and    $0x681,%cx
    34c1:	66 89 48 f2          	mov    %cx,-0xe(%rax)
    34c5:	0f b6 4a ff          	movzbl -0x1(%rdx),%ecx
    34c9:	c1 f9 02             	sar    $0x2,%ecx
    34cc:	83 e1 01             	and    $0x1,%ecx
    34cf:	f7 d9                	neg    %ecx
    34d1:	66 81 e1 81 06       	and    $0x681,%cx
    34d6:	66 89 48 f4          	mov    %cx,-0xc(%rax)
    34da:	0f b6 4a ff          	movzbl -0x1(%rdx),%ecx
    34de:	c1 f9 03             	sar    $0x3,%ecx
    34e1:	83 e1 01             	and    $0x1,%ecx
    34e4:	f7 d9                	neg    %ecx
    34e6:	66 81 e1 81 06       	and    $0x681,%cx
    34eb:	66 89 48 f6          	mov    %cx,-0xa(%rax)
    34ef:	0f b6 4a ff          	movzbl -0x1(%rdx),%ecx
    34f3:	c1 f9 04             	sar    $0x4,%ecx
    34f6:	83 e1 01             	and    $0x1,%ecx
    34f9:	f7 d9                	neg    %ecx
    34fb:	66 81 e1 81 06       	and    $0x681,%cx
    3500:	66 89 48 f8          	mov    %cx,-0x8(%rax)
    3504:	0f b6 4a ff          	movzbl -0x1(%rdx),%ecx
    3508:	c1 f9 05             	sar    $0x5,%ecx
    350b:	83 e1 01             	and    $0x1,%ecx
    350e:	f7 d9                	neg    %ecx
    3510:	66 81 e1 81 06       	and    $0x681,%cx
    3515:	66 89 48 fa          	mov    %cx,-0x6(%rax)
    3519:	0f b6 4a ff          	movzbl -0x1(%rdx),%ecx
    351d:	c1 f9 06             	sar    $0x6,%ecx
    3520:	83 e1 01             	and    $0x1,%ecx
    3523:	f7 d9                	neg    %ecx
    3525:	66 81 e1 81 06       	and    $0x681,%cx
    352a:	66 89 48 fc          	mov    %cx,-0x4(%rax)
    352e:	0f b6 4a ff          	movzbl -0x1(%rdx),%ecx
    3532:	c1 f9 07             	sar    $0x7,%ecx
    3535:	f7 d9                	neg    %ecx
    3537:	66 81 e1 81 06       	and    $0x681,%cx
    353c:	66 89 48 fe          	mov    %cx,-0x2(%rax)
    3540:	48 39 f0             	cmp    %rsi,%rax
    3543:	0f 85 4f ff ff ff    	jne    3498 <pqcrystals_kyber1024_ref_poly_frommsg+0x538>
    3549:	c3                   	retq   
    354a:	66 0f 1f 44 00 00    	nopw   0x0(%rax,%rax,1)

0000000000003550 <pqcrystals_kyber1024_ref_poly_tomsg>:
    3550:	f3 0f 1e fa          	endbr64 
    3554:	48 8d 47 20          	lea    0x20(%rdi),%rax
    3558:	48 89 f9             	mov    %rdi,%rcx
    355b:	48 89 f2             	mov    %rsi,%rdx
    355e:	48 39 c6             	cmp    %rax,%rsi
    3561:	73 10                	jae    3573 <pqcrystals_kyber1024_ref_poly_tomsg+0x23>
    3563:	48 8d be 00 02 00 00 	lea    0x200(%rsi),%rdi
    356a:	48 39 f9             	cmp    %rdi,%rcx
    356d:	0f 82 1d 12 00 00    	jb     4790 <pqcrystals_kyber1024_ref_poly_tomsg+0x1240>
    3573:	66 0f ef c0          	pxor   %xmm0,%xmm0
    3577:	48 83 c1 10          	add    $0x10,%rcx
    357b:	48 81 c2 00 01 00 00 	add    $0x100,%rdx
    3582:	0f 11 41 f0          	movups %xmm0,-0x10(%rcx)
    3586:	f3 0f 6f a2 00 ff ff 	movdqu -0x100(%rdx),%xmm4
    358d:	ff 
    358e:	f3 44 0f 6f 82 10 ff 	movdqu -0xf0(%rdx),%xmm8
    3595:	ff ff 
    3597:	f3 0f 6f aa 20 ff ff 	movdqu -0xe0(%rdx),%xmm5
    359e:	ff 
    359f:	f3 0f 6f b2 30 ff ff 	movdqu -0xd0(%rdx),%xmm6
    35a6:	ff 
    35a7:	66 0f 6f fc          	movdqa %xmm4,%xmm7
    35ab:	66 0f 6f cc          	movdqa %xmm4,%xmm1
    35af:	f3 0f 6f 82 40 ff ff 	movdqu -0xc0(%rdx),%xmm0
    35b6:	ff 
    35b7:	66 41 0f 61 e0       	punpcklwd %xmm8,%xmm4
    35bc:	66 41 0f 61 f8       	punpcklwd %xmm8,%xmm7
    35c1:	66 41 0f 69 c8       	punpckhwd %xmm8,%xmm1
    35c6:	66 44 0f 6f c5       	movdqa %xmm5,%xmm8
    35cb:	f3 0f 6f 9a 50 ff ff 	movdqu -0xb0(%rdx),%xmm3
    35d2:	ff 
    35d3:	66 44 0f 6f d7       	movdqa %xmm7,%xmm10
    35d8:	66 0f 61 e1          	punpcklwd %xmm1,%xmm4
    35dc:	66 44 0f 61 c6       	punpcklwd %xmm6,%xmm8
    35e1:	f3 0f 6f 92 60 ff ff 	movdqu -0xa0(%rdx),%xmm2
    35e8:	ff 
    35e9:	66 44 0f 69 d1       	punpckhwd %xmm1,%xmm10
    35ee:	66 0f 61 f9          	punpcklwd %xmm1,%xmm7
    35f2:	66 0f 6f cd          	movdqa %xmm5,%xmm1
    35f6:	f3 44 0f 6f 8a 70 ff 	movdqu -0x90(%rdx),%xmm9
    35fd:	ff ff 
    35ff:	66 0f 69 ce          	punpckhwd %xmm6,%xmm1
    3603:	66 41 0f 61 fa       	punpcklwd %xmm10,%xmm7
    3608:	66 41 0f 69 e2       	punpckhwd %xmm10,%xmm4
    360d:	f3 44 0f 6f 62 b0    	movdqu -0x50(%rdx),%xmm12
    3613:	66 45 0f 6f d0       	movdqa %xmm8,%xmm10
    3618:	66 0f 61 ee          	punpcklwd %xmm6,%xmm5
    361c:	66 0f 6f f0          	movdqa %xmm0,%xmm6
    3620:	f3 44 0f 6f 7a e0    	movdqu -0x20(%rdx),%xmm15
    3626:	66 44 0f 69 d1       	punpckhwd %xmm1,%xmm10
    362b:	66 0f 61 f3          	punpcklwd %xmm3,%xmm6
    362f:	66 44 0f 61 c1       	punpcklwd %xmm1,%xmm8
    3634:	66 0f 61 e9          	punpcklwd %xmm1,%xmm5
    3638:	66 0f 6f c8          	movdqa %xmm0,%xmm1
    363c:	66 45 0f 61 c2       	punpcklwd %xmm10,%xmm8
    3641:	66 41 0f 69 ea       	punpckhwd %xmm10,%xmm5
    3646:	66 0f 69 cb          	punpckhwd %xmm3,%xmm1
    364a:	66 44 0f 6f d6       	movdqa %xmm6,%xmm10
    364f:	66 0f 61 c3          	punpcklwd %xmm3,%xmm0
    3653:	66 44 0f 69 d1       	punpckhwd %xmm1,%xmm10
    3658:	66 0f 61 f1          	punpcklwd %xmm1,%xmm6
    365c:	66 0f 61 c1          	punpcklwd %xmm1,%xmm0
    3660:	66 0f 6f ca          	movdqa %xmm2,%xmm1
    3664:	66 0f 6f da          	movdqa %xmm2,%xmm3
    3668:	66 41 0f 61 c9       	punpcklwd %xmm9,%xmm1
    366d:	66 41 0f 69 d9       	punpckhwd %xmm9,%xmm3
    3672:	66 41 0f 61 f2       	punpcklwd %xmm10,%xmm6
    3677:	66 41 0f 69 c2       	punpckhwd %xmm10,%xmm0
    367c:	66 41 0f 61 d1       	punpcklwd %xmm9,%xmm2
    3681:	66 44 0f 6f d1       	movdqa %xmm1,%xmm10
    3686:	66 44 0f 69 d3       	punpckhwd %xmm3,%xmm10
    368b:	66 0f 61 cb          	punpcklwd %xmm3,%xmm1
    368f:	66 0f 61 d3          	punpcklwd %xmm3,%xmm2
    3693:	66 0f 6f df          	movdqa %xmm7,%xmm3
    3697:	66 44 0f 6f cf       	movdqa %xmm7,%xmm9
    369c:	66 41 0f 61 ca       	punpcklwd %xmm10,%xmm1
    36a1:	66 41 0f 61 d8       	punpcklwd %xmm8,%xmm3
    36a6:	66 41 0f 69 d2       	punpckhwd %xmm10,%xmm2
    36ab:	66 45 0f 69 c8       	punpckhwd %xmm8,%xmm9
    36b0:	66 44 0f 6f d3       	movdqa %xmm3,%xmm10
    36b5:	66 41 0f 61 f8       	punpcklwd %xmm8,%xmm7
    36ba:	66 44 0f 6f c6       	movdqa %xmm6,%xmm8
    36bf:	66 45 0f 69 d1       	punpckhwd %xmm9,%xmm10
    36c4:	66 44 0f 61 c1       	punpcklwd %xmm1,%xmm8
    36c9:	66 41 0f 61 d9       	punpcklwd %xmm9,%xmm3
    36ce:	66 41 0f 61 f9       	punpcklwd %xmm9,%xmm7
    36d3:	66 44 0f 6f ce       	movdqa %xmm6,%xmm9
    36d8:	66 41 0f 61 da       	punpcklwd %xmm10,%xmm3
    36dd:	66 44 0f 69 c9       	punpckhwd %xmm1,%xmm9
    36e2:	66 41 0f 69 fa       	punpckhwd %xmm10,%xmm7
    36e7:	66 0f 61 f1          	punpcklwd %xmm1,%xmm6
    36eb:	66 45 0f 6f d0       	movdqa %xmm8,%xmm10
    36f0:	66 0f 6f cc          	movdqa %xmm4,%xmm1
    36f4:	66 45 0f 61 c1       	punpcklwd %xmm9,%xmm8
    36f9:	66 45 0f 69 d1       	punpckhwd %xmm9,%xmm10
    36fe:	66 0f 61 cd          	punpcklwd %xmm5,%xmm1
    3702:	66 41 0f 61 f1       	punpcklwd %xmm9,%xmm6
    3707:	66 44 0f 6f cc       	movdqa %xmm4,%xmm9
    370c:	66 45 0f 61 c2       	punpcklwd %xmm10,%xmm8
    3711:	66 41 0f 69 f2       	punpckhwd %xmm10,%xmm6
    3716:	66 44 0f 69 cd       	punpckhwd %xmm5,%xmm9
    371b:	66 44 0f 6f d1       	movdqa %xmm1,%xmm10
    3720:	66 0f 61 e5          	punpcklwd %xmm5,%xmm4
    3724:	66 0f 6f e8          	movdqa %xmm0,%xmm5
    3728:	66 45 0f 69 d1       	punpckhwd %xmm9,%xmm10
    372d:	66 41 0f 61 c9       	punpcklwd %xmm9,%xmm1
    3732:	66 0f 61 ea          	punpcklwd %xmm2,%xmm5
    3736:	66 41 0f 61 e1       	punpcklwd %xmm9,%xmm4
    373b:	66 44 0f 6f c8       	movdqa %xmm0,%xmm9
    3740:	66 44 0f 69 ca       	punpckhwd %xmm2,%xmm9
    3745:	66 41 0f 61 ca       	punpcklwd %xmm10,%xmm1
    374a:	66 41 0f 69 e2       	punpckhwd %xmm10,%xmm4
    374f:	66 44 0f 6f db       	movdqa %xmm3,%xmm11
    3754:	66 44 0f 6f d5       	movdqa %xmm5,%xmm10
    3759:	66 0f 61 c2          	punpcklwd %xmm2,%xmm0
    375d:	66 45 0f 69 d1       	punpckhwd %xmm9,%xmm10
    3762:	66 45 0f 61 d8       	punpcklwd %xmm8,%xmm11
    3767:	66 41 0f 61 e9       	punpcklwd %xmm9,%xmm5
    376c:	66 0f 6f d3          	movdqa %xmm3,%xmm2
    3770:	66 41 0f 61 ea       	punpcklwd %xmm10,%xmm5
    3775:	66 41 0f 61 c1       	punpcklwd %xmm9,%xmm0
    377a:	66 41 0f 69 d0       	punpckhwd %xmm8,%xmm2
    377f:	66 45 0f 6f cb       	movdqa %xmm11,%xmm9
    3784:	66 41 0f 61 d8       	punpcklwd %xmm8,%xmm3
    3789:	66 44 0f 69 ca       	punpckhwd %xmm2,%xmm9
    378e:	66 44 0f 61 da       	punpcklwd %xmm2,%xmm11
    3793:	66 0f 61 da          	punpcklwd %xmm2,%xmm3
    3797:	66 44 0f 6f e9       	movdqa %xmm1,%xmm13
    379c:	66 0f 6f d1          	movdqa %xmm1,%xmm2
    37a0:	66 0f 61 cd          	punpcklwd %xmm5,%xmm1
    37a4:	66 0f 69 d5          	punpckhwd %xmm5,%xmm2
    37a8:	66 44 0f 61 ed       	punpcklwd %xmm5,%xmm13
    37ad:	66 0f 6f e9          	movdqa %xmm1,%xmm5
    37b1:	66 45 0f 6f c5       	movdqa %xmm13,%xmm8
    37b6:	66 0f 61 ea          	punpcklwd %xmm2,%xmm5
    37ba:	66 44 0f 61 ea       	punpcklwd %xmm2,%xmm13
    37bf:	66 44 0f 69 c2       	punpckhwd %xmm2,%xmm8
    37c4:	66 0f 6f d5          	movdqa %xmm5,%xmm2
    37c8:	66 45 0f 61 d9       	punpcklwd %xmm9,%xmm11
    37cd:	66 41 0f 69 d9       	punpckhwd %xmm9,%xmm3
    37d2:	66 41 0f 69 d0       	punpckhwd %xmm8,%xmm2
    37d7:	66 44 0f 6f cf       	movdqa %xmm7,%xmm9
    37dc:	66 44 0f 61 ce       	punpcklwd %xmm6,%xmm9
    37e1:	0f 29 54 24 c8       	movaps %xmm2,-0x38(%rsp)
    37e6:	66 0f 6f d7          	movdqa %xmm7,%xmm2
    37ea:	66 0f 61 fe          	punpcklwd %xmm6,%xmm7
    37ee:	66 0f 69 d6          	punpckhwd %xmm6,%xmm2
    37f2:	66 41 0f 6f e9       	movdqa %xmm9,%xmm5
    37f7:	66 41 0f 69 c2       	punpckhwd %xmm10,%xmm0
    37fc:	66 0f 69 ea          	punpckhwd %xmm2,%xmm5
    3800:	66 0f 61 fa          	punpcklwd %xmm2,%xmm7
    3804:	66 0f 6f f4          	movdqa %xmm4,%xmm6
    3808:	66 0f 61 f0          	punpcklwd %xmm0,%xmm6
    380c:	66 0f 69 fd          	punpckhwd %xmm5,%xmm7
    3810:	66 44 0f 61 ca       	punpcklwd %xmm2,%xmm9
    3815:	66 0f 6f d4          	movdqa %xmm4,%xmm2
    3819:	66 44 0f 61 cd       	punpcklwd %xmm5,%xmm9
    381e:	0f 29 7c 24 d8       	movaps %xmm7,-0x28(%rsp)
    3823:	66 0f 6f ee          	movdqa %xmm6,%xmm5
    3827:	66 0f 69 d0          	punpckhwd %xmm0,%xmm2
    382b:	66 0f 6f fe          	movdqa %xmm6,%xmm7
    382f:	66 45 0f 61 e8       	punpcklwd %xmm8,%xmm13
    3834:	f3 44 0f 6f 42 a0    	movdqu -0x60(%rdx),%xmm8
    383a:	66 0f 69 ea          	punpckhwd %xmm2,%xmm5
    383e:	66 0f 61 fa          	punpcklwd %xmm2,%xmm7
    3842:	66 0f 61 f2          	punpcklwd %xmm2,%xmm6
    3846:	f3 0f 6f 52 90       	movdqu -0x70(%rdx),%xmm2
    384b:	66 0f 61 fd          	punpcklwd %xmm5,%xmm7
    384f:	66 0f 69 f5          	punpckhwd %xmm5,%xmm6
    3853:	f3 0f 6f 6a 80       	movdqu -0x80(%rdx),%xmm5
    3858:	66 45 0f 6f f0       	movdqa %xmm8,%xmm14
    385d:	0f 29 74 24 e8       	movaps %xmm6,-0x18(%rsp)
    3862:	66 45 0f 61 f4       	punpcklwd %xmm12,%xmm14
    3867:	f3 0f 6f 62 c0       	movdqu -0x40(%rdx),%xmm4
    386c:	66 0f 6f cd          	movdqa %xmm5,%xmm1
    3870:	66 0f 6f c5          	movdqa %xmm5,%xmm0
    3874:	66 0f 61 ca          	punpcklwd %xmm2,%xmm1
    3878:	66 0f 69 c2          	punpckhwd %xmm2,%xmm0
    387c:	66 0f 6f f1          	movdqa %xmm1,%xmm6
    3880:	66 44 0f 6f d1       	movdqa %xmm1,%xmm10
    3885:	66 0f 6f e9          	movdqa %xmm1,%xmm5
    3889:	f3 0f 6f 4a d0       	movdqu -0x30(%rdx),%xmm1
    388e:	66 44 0f 69 d0       	punpckhwd %xmm0,%xmm10
    3893:	66 0f 61 f0          	punpcklwd %xmm0,%xmm6
    3897:	66 0f 61 e8          	punpcklwd %xmm0,%xmm5
    389b:	66 41 0f 61 f2       	punpcklwd %xmm10,%xmm6
    38a0:	66 41 0f 69 ea       	punpckhwd %xmm10,%xmm5
    38a5:	66 45 0f 6f d0       	movdqa %xmm8,%xmm10
    38aa:	66 45 0f 61 d4       	punpcklwd %xmm12,%xmm10
    38af:	66 41 0f 6f c0       	movdqa %xmm8,%xmm0
    38b4:	66 44 0f 6f c4       	movdqa %xmm4,%xmm8
    38b9:	66 41 0f 69 c4       	punpckhwd %xmm12,%xmm0
    38be:	66 41 0f 6f d2       	movdqa %xmm10,%xmm2
    38c3:	66 0f 69 d0          	punpckhwd %xmm0,%xmm2
    38c7:	66 44 0f 61 d0       	punpcklwd %xmm0,%xmm10
    38cc:	66 44 0f 61 f0       	punpcklwd %xmm0,%xmm14
    38d1:	66 44 0f 61 d2       	punpcklwd %xmm2,%xmm10
    38d6:	66 44 0f 69 f2       	punpckhwd %xmm2,%xmm14
    38db:	f3 0f 6f 52 d0       	movdqu -0x30(%rdx),%xmm2
    38e0:	66 0f 6f c4          	movdqa %xmm4,%xmm0
    38e4:	66 0f 61 e1          	punpcklwd %xmm1,%xmm4
    38e8:	f3 0f 6f 4a f0       	movdqu -0x10(%rdx),%xmm1
    38ed:	66 44 0f 61 c2       	punpcklwd %xmm2,%xmm8
    38f2:	66 0f 69 c2          	punpckhwd %xmm2,%xmm0
    38f6:	66 41 0f 6f d0       	movdqa %xmm8,%xmm2
    38fb:	66 0f 61 e0          	punpcklwd %xmm0,%xmm4
    38ff:	66 44 0f 61 c0       	punpcklwd %xmm0,%xmm8
    3904:	66 0f 69 d0          	punpckhwd %xmm0,%xmm2
    3908:	f3 0f 6f 42 f0       	movdqu -0x10(%rdx),%xmm0
    390d:	66 44 0f 61 c2       	punpcklwd %xmm2,%xmm8
    3912:	66 0f 69 e2          	punpckhwd %xmm2,%xmm4
    3916:	66 41 0f 6f d7       	movdqa %xmm15,%xmm2
    391b:	66 0f 69 d0          	punpckhwd %xmm0,%xmm2
    391f:	66 41 0f 6f c7       	movdqa %xmm15,%xmm0
    3924:	66 44 0f 61 f9       	punpcklwd %xmm1,%xmm15
    3929:	66 0f 61 c1          	punpcklwd %xmm1,%xmm0
    392d:	66 44 0f 61 fa       	punpcklwd %xmm2,%xmm15
    3932:	66 44 0f 6f e0       	movdqa %xmm0,%xmm12
    3937:	66 0f 61 c2          	punpcklwd %xmm2,%xmm0
    393b:	66 44 0f 69 e2       	punpckhwd %xmm2,%xmm12
    3940:	66 0f 6f d6          	movdqa %xmm6,%xmm2
    3944:	66 41 0f 61 c4       	punpcklwd %xmm12,%xmm0
    3949:	66 45 0f 69 fc       	punpckhwd %xmm12,%xmm15
    394e:	66 41 0f 61 d2       	punpcklwd %xmm10,%xmm2
    3953:	66 44 0f 6f e6       	movdqa %xmm6,%xmm12
    3958:	66 0f 6f ca          	movdqa %xmm2,%xmm1
    395c:	66 41 0f 61 f2       	punpcklwd %xmm10,%xmm6
    3961:	66 45 0f 69 e2       	punpckhwd %xmm10,%xmm12
    3966:	66 45 0f 6f d0       	movdqa %xmm8,%xmm10
    396b:	66 41 0f 69 cc       	punpckhwd %xmm12,%xmm1
    3970:	66 41 0f 61 d4       	punpcklwd %xmm12,%xmm2
    3975:	66 41 0f 61 f4       	punpcklwd %xmm12,%xmm6
    397a:	66 45 0f 6f e0       	movdqa %xmm8,%xmm12
    397f:	66 44 0f 61 c0       	punpcklwd %xmm0,%xmm8
    3984:	66 44 0f 69 d0       	punpckhwd %xmm0,%xmm10
    3989:	66 44 0f 61 e0       	punpcklwd %xmm0,%xmm12
    398e:	66 0f 61 d1          	punpcklwd %xmm1,%xmm2
    3992:	66 0f 69 f1          	punpckhwd %xmm1,%xmm6
    3996:	66 41 0f 6f c0       	movdqa %xmm8,%xmm0
    399b:	66 41 0f 6f cc       	movdqa %xmm12,%xmm1
    39a0:	66 44 0f 6f c5       	movdqa %xmm5,%xmm8
    39a5:	66 41 0f 69 ca       	punpckhwd %xmm10,%xmm1
    39aa:	66 41 0f 61 c2       	punpcklwd %xmm10,%xmm0
    39af:	66 45 0f 69 c6       	punpckhwd %xmm14,%xmm8
    39b4:	66 0f 69 c1          	punpckhwd %xmm1,%xmm0
    39b8:	66 45 0f 61 e2       	punpcklwd %xmm10,%xmm12
    39bd:	0f 29 44 24 b8       	movaps %xmm0,-0x48(%rsp)
    39c2:	66 0f 6f c5          	movdqa %xmm5,%xmm0
    39c6:	66 41 0f 61 ee       	punpcklwd %xmm14,%xmm5
    39cb:	66 44 0f 61 e1       	punpcklwd %xmm1,%xmm12
    39d0:	66 41 0f 61 c6       	punpcklwd %xmm14,%xmm0
    39d5:	66 41 0f 61 e8       	punpcklwd %xmm8,%xmm5
    39da:	66 44 0f 6f d0       	movdqa %xmm0,%xmm10
    39df:	66 41 0f 61 c0       	punpcklwd %xmm8,%xmm0
    39e4:	66 45 0f 69 d0       	punpckhwd %xmm8,%xmm10
    39e9:	66 44 0f 6f c4       	movdqa %xmm4,%xmm8
    39ee:	66 41 0f 61 c2       	punpcklwd %xmm10,%xmm0
    39f3:	66 41 0f 69 ea       	punpckhwd %xmm10,%xmm5
    39f8:	66 45 0f 61 c7       	punpcklwd %xmm15,%xmm8
    39fd:	66 44 0f 6f d4       	movdqa %xmm4,%xmm10
    3a02:	66 45 0f 6f f0       	movdqa %xmm8,%xmm14
    3a07:	66 41 0f 61 e7       	punpcklwd %xmm15,%xmm4
    3a0c:	66 45 0f 69 d7       	punpckhwd %xmm15,%xmm10
    3a11:	66 44 0f 6f 7c 24 b8 	movdqa -0x48(%rsp),%xmm15
    3a18:	66 45 0f 69 f2       	punpckhwd %xmm10,%xmm14
    3a1d:	66 45 0f 61 c2       	punpcklwd %xmm10,%xmm8
    3a22:	66 41 0f 61 e2       	punpcklwd %xmm10,%xmm4
    3a27:	66 44 0f 6f d2       	movdqa %xmm2,%xmm10
    3a2c:	66 45 0f 61 c6       	punpcklwd %xmm14,%xmm8
    3a31:	66 41 0f 69 e6       	punpckhwd %xmm14,%xmm4
    3a36:	66 45 0f 61 d4       	punpcklwd %xmm12,%xmm10
    3a3b:	66 44 0f 6f f2       	movdqa %xmm2,%xmm14
    3a40:	66 41 0f 61 d4       	punpcklwd %xmm12,%xmm2
    3a45:	66 45 0f 69 f4       	punpckhwd %xmm12,%xmm14
    3a4a:	66 41 0f 6f ca       	movdqa %xmm10,%xmm1
    3a4f:	66 44 0f 6f e0       	movdqa %xmm0,%xmm12
    3a54:	66 41 0f 69 ce       	punpckhwd %xmm14,%xmm1
    3a59:	66 45 0f 61 e0       	punpcklwd %xmm8,%xmm12
    3a5e:	66 45 0f 61 d6       	punpcklwd %xmm14,%xmm10
    3a63:	66 41 0f 61 d6       	punpcklwd %xmm14,%xmm2
    3a68:	66 44 0f 6f f0       	movdqa %xmm0,%xmm14
    3a6d:	66 44 0f 61 d1       	punpcklwd %xmm1,%xmm10
    3a72:	66 45 0f 69 f0       	punpckhwd %xmm8,%xmm14
    3a77:	66 0f 69 d1          	punpckhwd %xmm1,%xmm2
    3a7b:	66 41 0f 61 c0       	punpcklwd %xmm8,%xmm0
    3a80:	66 41 0f 6f cc       	movdqa %xmm12,%xmm1
    3a85:	66 41 0f 61 c6       	punpcklwd %xmm14,%xmm0
    3a8a:	66 45 0f 61 e6       	punpcklwd %xmm14,%xmm12
    3a8f:	66 41 0f 69 ce       	punpckhwd %xmm14,%xmm1
    3a94:	66 44 0f 6f c6       	movdqa %xmm6,%xmm8
    3a99:	66 44 0f 6f f6       	movdqa %xmm6,%xmm14
    3a9e:	66 0f 61 74 24 b8    	punpcklwd -0x48(%rsp),%xmm6
    3aa4:	66 45 0f 69 f7       	punpckhwd %xmm15,%xmm14
    3aa9:	66 45 0f 61 c7       	punpcklwd %xmm15,%xmm8
    3aae:	66 44 0f 61 e1       	punpcklwd %xmm1,%xmm12
    3ab3:	66 0f 69 c1          	punpckhwd %xmm1,%xmm0
    3ab7:	66 41 0f 6f c8       	movdqa %xmm8,%xmm1
    3abc:	66 41 0f 61 f6       	punpcklwd %xmm14,%xmm6
    3ac1:	66 41 0f 69 ce       	punpckhwd %xmm14,%xmm1
    3ac6:	66 45 0f 61 c6       	punpcklwd %xmm14,%xmm8
    3acb:	66 44 0f 6f f6       	movdqa %xmm6,%xmm14
    3ad0:	66 44 0f 61 c1       	punpcklwd %xmm1,%xmm8
    3ad5:	66 44 0f 69 f1       	punpckhwd %xmm1,%xmm14
    3ada:	66 0f 6f cd          	movdqa %xmm5,%xmm1
    3ade:	66 0f 69 cc          	punpckhwd %xmm4,%xmm1
    3ae2:	44 0f 29 74 24 b8    	movaps %xmm14,-0x48(%rsp)
    3ae8:	66 44 0f 6f f1       	movdqa %xmm1,%xmm14
    3aed:	66 0f 6f cd          	movdqa %xmm5,%xmm1
    3af1:	66 0f 61 ec          	punpcklwd %xmm4,%xmm5
    3af5:	66 0f 61 cc          	punpcklwd %xmm4,%xmm1
    3af9:	66 44 0f 6f fd       	movdqa %xmm5,%xmm15
    3afe:	66 0f ef ed          	pxor   %xmm5,%xmm5
    3b02:	66 41 0f 65 ed       	pcmpgtw %xmm13,%xmm5
    3b07:	66 0f 6f f1          	movdqa %xmm1,%xmm6
    3b0b:	66 45 0f 61 fe       	punpcklwd %xmm14,%xmm15
    3b10:	66 41 0f 69 ce       	punpckhwd %xmm14,%xmm1
    3b15:	66 41 0f 61 f6       	punpcklwd %xmm14,%xmm6
    3b1a:	66 0f 61 f1          	punpcklwd %xmm1,%xmm6
    3b1e:	66 44 0f 69 f9       	punpckhwd %xmm1,%xmm15
    3b23:	66 41 0f 6f cd       	movdqa %xmm13,%xmm1
    3b28:	66 0f 61 cd          	punpcklwd %xmm5,%xmm1
    3b2c:	66 44 0f 69 ed       	punpckhwd %xmm5,%xmm13
    3b31:	66 44 0f 6f f1       	movdqa %xmm1,%xmm14
    3b36:	66 41 0f 6f ed       	movdqa %xmm13,%xmm5
    3b3b:	66 41 0f 72 f6 01    	pslld  $0x1,%xmm14
    3b41:	66 0f 72 f5 01       	pslld  $0x1,%xmm5
    3b46:	66 44 0f fe 35 f1 74 	paddd  0x74f1(%rip),%xmm14        # b040 <_IO_stdin_used+0x40>
    3b4d:	00 00 
    3b4f:	66 0f fe 2d e9 74 00 	paddd  0x74e9(%rip),%xmm5        # b040 <_IO_stdin_used+0x40>
    3b56:	00 
    3b57:	66 41 0f 6f e6       	movdqa %xmm14,%xmm4
    3b5c:	66 44 0f 6f ed       	movdqa %xmm5,%xmm13
    3b61:	66 0f 72 f4 06       	pslld  $0x6,%xmm4
    3b66:	66 41 0f 72 f5 06    	pslld  $0x6,%xmm13
    3b6c:	66 41 0f fa e6       	psubd  %xmm14,%xmm4
    3b71:	66 44 0f fa ed       	psubd  %xmm5,%xmm13
    3b76:	66 0f 72 f4 08       	pslld  $0x8,%xmm4
    3b7b:	66 41 0f 72 f5 08    	pslld  $0x8,%xmm13
    3b81:	66 41 0f fa e6       	psubd  %xmm14,%xmm4
    3b86:	66 44 0f fa ed       	psubd  %xmm5,%xmm13
    3b8b:	66 0f 6f cc          	movdqa %xmm4,%xmm1
    3b8f:	66 41 0f 6f ed       	movdqa %xmm13,%xmm5
    3b94:	66 0f 72 f1 02       	pslld  $0x2,%xmm1
    3b99:	66 0f 72 f5 02       	pslld  $0x2,%xmm5
    3b9e:	66 0f fe e1          	paddd  %xmm1,%xmm4
    3ba2:	66 41 0f 6f cc       	movdqa %xmm12,%xmm1
    3ba7:	66 44 0f fe ed       	paddd  %xmm5,%xmm13
    3bac:	66 0f 72 d4 1c       	psrld  $0x1c,%xmm4
    3bb1:	66 41 0f 72 d5 1c    	psrld  $0x1c,%xmm13
    3bb7:	66 0f 6f ec          	movdqa %xmm4,%xmm5
    3bbb:	66 41 0f 61 e5       	punpcklwd %xmm13,%xmm4
    3bc0:	66 41 0f 69 ed       	punpckhwd %xmm13,%xmm5
    3bc5:	66 44 0f 6f ec       	movdqa %xmm4,%xmm13
    3bca:	66 0f 61 e5          	punpcklwd %xmm5,%xmm4
    3bce:	66 44 0f 69 ed       	punpckhwd %xmm5,%xmm13
    3bd3:	66 41 0f 61 e5       	punpcklwd %xmm13,%xmm4
    3bd8:	66 45 0f ef ed       	pxor   %xmm13,%xmm13
    3bdd:	66 0f db 25 4b 74 00 	pand   0x744b(%rip),%xmm4        # b030 <_IO_stdin_used+0x30>
    3be4:	00 
    3be5:	66 45 0f 65 ec       	pcmpgtw %xmm12,%xmm13
    3bea:	66 41 0f 61 cd       	punpcklwd %xmm13,%xmm1
    3bef:	66 45 0f 69 e5       	punpckhwd %xmm13,%xmm12
    3bf4:	66 44 0f 6f f1       	movdqa %xmm1,%xmm14
    3bf9:	66 41 0f 72 f4 01    	pslld  $0x1,%xmm12
    3bff:	66 44 0f fe 25 38 74 	paddd  0x7438(%rip),%xmm12        # b040 <_IO_stdin_used+0x40>
    3c06:	00 00 
    3c08:	66 41 0f 72 f6 01    	pslld  $0x1,%xmm14
    3c0e:	66 44 0f fe 35 29 74 	paddd  0x7429(%rip),%xmm14        # b040 <_IO_stdin_used+0x40>
    3c15:	00 00 
    3c17:	66 45 0f 6f ec       	movdqa %xmm12,%xmm13
    3c1c:	66 41 0f 6f ee       	movdqa %xmm14,%xmm5
    3c21:	66 41 0f 72 f5 06    	pslld  $0x6,%xmm13
    3c27:	66 0f 72 f5 06       	pslld  $0x6,%xmm5
    3c2c:	66 45 0f fa ec       	psubd  %xmm12,%xmm13
    3c31:	66 41 0f fa ee       	psubd  %xmm14,%xmm5
    3c36:	66 41 0f 72 f5 08    	pslld  $0x8,%xmm13
    3c3c:	66 0f 72 f5 08       	pslld  $0x8,%xmm5
    3c41:	66 45 0f fa ec       	psubd  %xmm12,%xmm13
    3c46:	66 41 0f fa ee       	psubd  %xmm14,%xmm5
    3c4b:	66 45 0f 6f e5       	movdqa %xmm13,%xmm12
    3c50:	66 0f 6f cd          	movdqa %xmm5,%xmm1
    3c54:	66 41 0f 72 f5 02    	pslld  $0x2,%xmm13
    3c5a:	66 0f 72 f1 02       	pslld  $0x2,%xmm1
    3c5f:	66 45 0f fe e5       	paddd  %xmm13,%xmm12
    3c64:	66 0f fe e9          	paddd  %xmm1,%xmm5
    3c68:	66 41 0f 72 d4 1c    	psrld  $0x1c,%xmm12
    3c6e:	66 0f 6f cf          	movdqa %xmm7,%xmm1
    3c72:	66 0f 72 d5 1c       	psrld  $0x1c,%xmm5
    3c77:	66 44 0f 6f ed       	movdqa %xmm5,%xmm13
    3c7c:	66 41 0f 61 ec       	punpcklwd %xmm12,%xmm5
    3c81:	66 45 0f 69 ec       	punpckhwd %xmm12,%xmm13
    3c86:	66 44 0f 6f e5       	movdqa %xmm5,%xmm12
    3c8b:	66 45 0f 69 e5       	punpckhwd %xmm13,%xmm12
    3c90:	66 41 0f 61 ed       	punpcklwd %xmm13,%xmm5
    3c95:	66 41 0f 61 ec       	punpcklwd %xmm12,%xmm5
    3c9a:	66 0f db 2d 8e 73 00 	pand   0x738e(%rip),%xmm5        # b030 <_IO_stdin_used+0x30>
    3ca1:	00 
    3ca2:	66 45 0f 6f e3       	movdqa %xmm11,%xmm12
    3ca7:	66 44 0f 6f 2d a0 73 	movdqa 0x73a0(%rip),%xmm13        # b050 <_IO_stdin_used+0x50>
    3cae:	00 00 
    3cb0:	66 0f 67 e5          	packuswb %xmm5,%xmm4
    3cb4:	66 0f ef ed          	pxor   %xmm5,%xmm5
    3cb8:	66 41 0f 65 eb       	pcmpgtw %xmm11,%xmm5
    3cbd:	66 0f fc e4          	paddb  %xmm4,%xmm4
    3cc1:	66 44 0f db ec       	pand   %xmm4,%xmm13
    3cc6:	66 44 0f 69 dd       	punpckhwd %xmm5,%xmm11
    3ccb:	66 44 0f 61 e5       	punpcklwd %xmm5,%xmm12
    3cd0:	66 41 0f 6f eb       	movdqa %xmm11,%xmm5
    3cd5:	66 41 0f 72 f4 01    	pslld  $0x1,%xmm12
    3cdb:	66 44 0f fe 25 5c 73 	paddd  0x735c(%rip),%xmm12        # b040 <_IO_stdin_used+0x40>
    3ce2:	00 00 
    3ce4:	66 0f 72 f5 01       	pslld  $0x1,%xmm5
    3ce9:	66 0f fe 2d 4f 73 00 	paddd  0x734f(%rip),%xmm5        # b040 <_IO_stdin_used+0x40>
    3cf0:	00 
    3cf1:	66 41 0f 6f e4       	movdqa %xmm12,%xmm4
    3cf6:	66 44 0f 6f dd       	movdqa %xmm5,%xmm11
    3cfb:	66 0f 72 f4 06       	pslld  $0x6,%xmm4
    3d00:	66 41 0f 72 f3 06    	pslld  $0x6,%xmm11
    3d06:	66 41 0f fa e4       	psubd  %xmm12,%xmm4
    3d0b:	66 44 0f fa dd       	psubd  %xmm5,%xmm11
    3d10:	66 0f 72 f4 08       	pslld  $0x8,%xmm4
    3d15:	66 41 0f 72 f3 08    	pslld  $0x8,%xmm11
    3d1b:	66 41 0f fa e4       	psubd  %xmm12,%xmm4
    3d20:	66 44 0f fa dd       	psubd  %xmm5,%xmm11
    3d25:	66 44 0f 6f e4       	movdqa %xmm4,%xmm12
    3d2a:	66 41 0f 6f eb       	movdqa %xmm11,%xmm5
    3d2f:	66 41 0f 72 f4 02    	pslld  $0x2,%xmm12
    3d35:	66 0f 72 f5 02       	pslld  $0x2,%xmm5
    3d3a:	66 41 0f fe e4       	paddd  %xmm12,%xmm4
    3d3f:	66 45 0f 6f e2       	movdqa %xmm10,%xmm12
    3d44:	66 44 0f fe dd       	paddd  %xmm5,%xmm11
    3d49:	66 0f 72 d4 1c       	psrld  $0x1c,%xmm4
    3d4e:	66 41 0f 72 d3 1c    	psrld  $0x1c,%xmm11
    3d54:	66 0f 6f ec          	movdqa %xmm4,%xmm5
    3d58:	66 41 0f 61 e3       	punpcklwd %xmm11,%xmm4
    3d5d:	66 41 0f 69 eb       	punpckhwd %xmm11,%xmm5
    3d62:	66 44 0f 6f dc       	movdqa %xmm4,%xmm11
    3d67:	66 0f 61 e5          	punpcklwd %xmm5,%xmm4
    3d6b:	66 44 0f 69 dd       	punpckhwd %xmm5,%xmm11
    3d70:	66 41 0f 61 e3       	punpcklwd %xmm11,%xmm4
    3d75:	66 45 0f ef db       	pxor   %xmm11,%xmm11
    3d7a:	66 0f db 25 ae 72 00 	pand   0x72ae(%rip),%xmm4        # b030 <_IO_stdin_used+0x30>
    3d81:	00 
    3d82:	66 45 0f 65 da       	pcmpgtw %xmm10,%xmm11
    3d87:	66 45 0f 61 e3       	punpcklwd %xmm11,%xmm12
    3d8c:	66 45 0f 69 d3       	punpckhwd %xmm11,%xmm10
    3d91:	66 41 0f 72 f4 01    	pslld  $0x1,%xmm12
    3d97:	66 41 0f 72 f2 01    	pslld  $0x1,%xmm10
    3d9d:	66 44 0f fe 25 9a 72 	paddd  0x729a(%rip),%xmm12        # b040 <_IO_stdin_used+0x40>
    3da4:	00 00 
    3da6:	66 44 0f fe 15 91 72 	paddd  0x7291(%rip),%xmm10        # b040 <_IO_stdin_used+0x40>
    3dad:	00 00 
    3daf:	66 41 0f 6f ec       	movdqa %xmm12,%xmm5
    3db4:	66 45 0f 6f da       	movdqa %xmm10,%xmm11
    3db9:	66 0f 72 f5 06       	pslld  $0x6,%xmm5
    3dbe:	66 41 0f fa ec       	psubd  %xmm12,%xmm5
    3dc3:	66 41 0f 72 f3 06    	pslld  $0x6,%xmm11
    3dc9:	66 45 0f fa da       	psubd  %xmm10,%xmm11
    3dce:	66 0f 72 f5 08       	pslld  $0x8,%xmm5
    3dd3:	66 41 0f fa ec       	psubd  %xmm12,%xmm5
    3dd8:	66 41 0f 72 f3 08    	pslld  $0x8,%xmm11
    3dde:	66 44 0f 6f e5       	movdqa %xmm5,%xmm12
    3de3:	66 45 0f fa da       	psubd  %xmm10,%xmm11
    3de8:	66 45 0f 6f d3       	movdqa %xmm11,%xmm10
    3ded:	66 41 0f 72 f4 02    	pslld  $0x2,%xmm12
    3df3:	66 41 0f 72 f3 02    	pslld  $0x2,%xmm11
    3df9:	66 41 0f fe ec       	paddd  %xmm12,%xmm5
    3dfe:	66 45 0f fe d3       	paddd  %xmm11,%xmm10
    3e03:	66 0f 72 d5 1c       	psrld  $0x1c,%xmm5
    3e08:	66 41 0f 72 d2 1c    	psrld  $0x1c,%xmm10
    3e0e:	66 44 0f 6f dd       	movdqa %xmm5,%xmm11
    3e13:	66 41 0f 61 ea       	punpcklwd %xmm10,%xmm5
    3e18:	66 45 0f 69 da       	punpckhwd %xmm10,%xmm11
    3e1d:	66 44 0f 6f d5       	movdqa %xmm5,%xmm10
    3e22:	66 41 0f 61 eb       	punpcklwd %xmm11,%xmm5
    3e27:	66 45 0f 69 d3       	punpckhwd %xmm11,%xmm10
    3e2c:	66 41 0f 61 ea       	punpcklwd %xmm10,%xmm5
    3e31:	66 0f db 2d f7 71 00 	pand   0x71f7(%rip),%xmm5        # b030 <_IO_stdin_used+0x30>
    3e38:	00 
    3e39:	66 45 0f 6f d1       	movdqa %xmm9,%xmm10
    3e3e:	66 0f 67 e5          	packuswb %xmm5,%xmm4
    3e42:	66 0f db 25 c6 71 00 	pand   0x71c6(%rip),%xmm4        # b010 <_IO_stdin_used+0x10>
    3e49:	00 
    3e4a:	66 44 0f eb ec       	por    %xmm4,%xmm13
    3e4f:	66 0f ef e4          	pxor   %xmm4,%xmm4
    3e53:	66 41 0f 65 e1       	pcmpgtw %xmm9,%xmm4
    3e58:	66 44 0f 61 d4       	punpcklwd %xmm4,%xmm10
    3e5d:	66 44 0f 69 cc       	punpckhwd %xmm4,%xmm9
    3e62:	66 41 0f 6f e1       	movdqa %xmm9,%xmm4
    3e67:	66 41 0f 72 f2 01    	pslld  $0x1,%xmm10
    3e6d:	66 44 0f fe 15 ca 71 	paddd  0x71ca(%rip),%xmm10        # b040 <_IO_stdin_used+0x40>
    3e74:	00 00 
    3e76:	66 0f 72 f4 01       	pslld  $0x1,%xmm4
    3e7b:	66 0f fe 25 bd 71 00 	paddd  0x71bd(%rip),%xmm4        # b040 <_IO_stdin_used+0x40>
    3e82:	00 
    3e83:	66 41 0f 6f ea       	movdqa %xmm10,%xmm5
    3e88:	66 44 0f 6f cc       	movdqa %xmm4,%xmm9
    3e8d:	66 0f 72 f5 06       	pslld  $0x6,%xmm5
    3e92:	66 41 0f fa ea       	psubd  %xmm10,%xmm5
    3e97:	66 41 0f 72 f1 06    	pslld  $0x6,%xmm9
    3e9d:	66 44 0f fa cc       	psubd  %xmm4,%xmm9
    3ea2:	66 0f 72 f5 08       	pslld  $0x8,%xmm5
    3ea7:	66 41 0f fa ea       	psubd  %xmm10,%xmm5
    3eac:	66 41 0f 72 f1 08    	pslld  $0x8,%xmm9
    3eb2:	66 44 0f 6f d5       	movdqa %xmm5,%xmm10
    3eb7:	66 44 0f fa cc       	psubd  %xmm4,%xmm9
    3ebc:	66 41 0f 72 f2 02    	pslld  $0x2,%xmm10
    3ec2:	66 41 0f 6f e1       	movdqa %xmm9,%xmm4
    3ec7:	66 41 0f 72 f1 02    	pslld  $0x2,%xmm9
    3ecd:	66 41 0f fe ea       	paddd  %xmm10,%xmm5
    3ed2:	66 45 0f 6f d0       	movdqa %xmm8,%xmm10
    3ed7:	66 41 0f fe e1       	paddd  %xmm9,%xmm4
    3edc:	66 0f 72 d5 1c       	psrld  $0x1c,%xmm5
    3ee1:	66 0f 72 d4 1c       	psrld  $0x1c,%xmm4
    3ee6:	66 44 0f 6f cd       	movdqa %xmm5,%xmm9
    3eeb:	66 0f 61 ec          	punpcklwd %xmm4,%xmm5
    3eef:	66 44 0f 69 cc       	punpckhwd %xmm4,%xmm9
    3ef4:	66 0f 6f e5          	movdqa %xmm5,%xmm4
    3ef8:	66 41 0f 61 e9       	punpcklwd %xmm9,%xmm5
    3efd:	66 41 0f 69 e1       	punpckhwd %xmm9,%xmm4
    3f02:	66 45 0f ef c9       	pxor   %xmm9,%xmm9
    3f07:	66 45 0f 65 c8       	pcmpgtw %xmm8,%xmm9
    3f0c:	66 0f 61 ec          	punpcklwd %xmm4,%xmm5
    3f10:	66 0f db 2d 18 71 00 	pand   0x7118(%rip),%xmm5        # b030 <_IO_stdin_used+0x30>
    3f17:	00 
    3f18:	66 45 0f 61 d1       	punpcklwd %xmm9,%xmm10
    3f1d:	66 45 0f 69 c1       	punpckhwd %xmm9,%xmm8
    3f22:	66 41 0f 72 f2 01    	pslld  $0x1,%xmm10
    3f28:	66 41 0f 72 f0 01    	pslld  $0x1,%xmm8
    3f2e:	66 44 0f fe 15 09 71 	paddd  0x7109(%rip),%xmm10        # b040 <_IO_stdin_used+0x40>
    3f35:	00 00 
    3f37:	66 44 0f fe 05 00 71 	paddd  0x7100(%rip),%xmm8        # b040 <_IO_stdin_used+0x40>
    3f3e:	00 00 
    3f40:	66 41 0f 6f e2       	movdqa %xmm10,%xmm4
    3f45:	66 45 0f 6f c8       	movdqa %xmm8,%xmm9
    3f4a:	66 0f 72 f4 06       	pslld  $0x6,%xmm4
    3f4f:	66 41 0f fa e2       	psubd  %xmm10,%xmm4
    3f54:	66 41 0f 72 f1 06    	pslld  $0x6,%xmm9
    3f5a:	66 45 0f fa c8       	psubd  %xmm8,%xmm9
    3f5f:	66 0f 72 f4 08       	pslld  $0x8,%xmm4
    3f64:	66 41 0f fa e2       	psubd  %xmm10,%xmm4
    3f69:	66 41 0f 72 f1 08    	pslld  $0x8,%xmm9
    3f6f:	66 44 0f 6f d4       	movdqa %xmm4,%xmm10
    3f74:	66 45 0f fa c8       	psubd  %xmm8,%xmm9
    3f79:	66 45 0f 6f c1       	movdqa %xmm9,%xmm8
    3f7e:	66 41 0f 72 f2 02    	pslld  $0x2,%xmm10
    3f84:	66 41 0f 72 f1 02    	pslld  $0x2,%xmm9
    3f8a:	66 41 0f fe e2       	paddd  %xmm10,%xmm4
    3f8f:	66 45 0f fe c1       	paddd  %xmm9,%xmm8
    3f94:	66 0f 72 d4 1c       	psrld  $0x1c,%xmm4
    3f99:	66 41 0f 72 d0 1c    	psrld  $0x1c,%xmm8
    3f9f:	66 44 0f 6f cc       	movdqa %xmm4,%xmm9
    3fa4:	66 41 0f 61 e0       	punpcklwd %xmm8,%xmm4
    3fa9:	66 45 0f 69 c8       	punpckhwd %xmm8,%xmm9
    3fae:	66 44 0f 6f c4       	movdqa %xmm4,%xmm8
    3fb3:	66 41 0f 61 e1       	punpcklwd %xmm9,%xmm4
    3fb8:	66 45 0f 69 c1       	punpckhwd %xmm9,%xmm8
    3fbd:	66 41 0f 61 e0       	punpcklwd %xmm8,%xmm4
    3fc2:	66 0f db 25 66 70 00 	pand   0x7066(%rip),%xmm4        # b030 <_IO_stdin_used+0x30>
    3fc9:	00 
    3fca:	66 44 0f 6f c7       	movdqa %xmm7,%xmm8
    3fcf:	66 0f 67 ec          	packuswb %xmm4,%xmm5
    3fd3:	66 0f fc ed          	paddb  %xmm5,%xmm5
    3fd7:	66 0f fc ed          	paddb  %xmm5,%xmm5
    3fdb:	66 0f db 2d 7d 70 00 	pand   0x707d(%rip),%xmm5        # b060 <_IO_stdin_used+0x60>
    3fe2:	00 
    3fe3:	66 44 0f eb ed       	por    %xmm5,%xmm13
    3fe8:	66 0f ef ed          	pxor   %xmm5,%xmm5
    3fec:	66 0f 65 ef          	pcmpgtw %xmm7,%xmm5
    3ff0:	66 0f 69 cd          	punpckhwd %xmm5,%xmm1
    3ff4:	66 44 0f 61 c5       	punpcklwd %xmm5,%xmm8
    3ff9:	66 0f 6f e9          	movdqa %xmm1,%xmm5
    3ffd:	66 41 0f 72 f0 01    	pslld  $0x1,%xmm8
    4003:	66 44 0f fe 05 34 70 	paddd  0x7034(%rip),%xmm8        # b040 <_IO_stdin_used+0x40>
    400a:	00 00 
    400c:	66 0f 72 f5 01       	pslld  $0x1,%xmm5
    4011:	66 0f fe 2d 27 70 00 	paddd  0x7027(%rip),%xmm5        # b040 <_IO_stdin_used+0x40>
    4018:	00 
    4019:	66 41 0f 6f e0       	movdqa %xmm8,%xmm4
    401e:	66 0f 6f cd          	movdqa %xmm5,%xmm1
    4022:	66 0f 72 f4 06       	pslld  $0x6,%xmm4
    4027:	66 0f 72 f1 06       	pslld  $0x6,%xmm1
    402c:	66 41 0f fa e0       	psubd  %xmm8,%xmm4
    4031:	66 0f 6f f9          	movdqa %xmm1,%xmm7
    4035:	66 0f 72 f4 08       	pslld  $0x8,%xmm4
    403a:	66 0f fa fd          	psubd  %xmm5,%xmm7
    403e:	66 41 0f fa e0       	psubd  %xmm8,%xmm4
    4043:	66 0f 72 f7 08       	pslld  $0x8,%xmm7
    4048:	66 44 0f 6f c4       	movdqa %xmm4,%xmm8
    404d:	66 0f 6f cf          	movdqa %xmm7,%xmm1
    4051:	66 41 0f 72 f0 02    	pslld  $0x2,%xmm8
    4057:	66 0f fa cd          	psubd  %xmm5,%xmm1
    405b:	66 41 0f fe e0       	paddd  %xmm8,%xmm4
    4060:	66 44 0f 6f c6       	movdqa %xmm6,%xmm8
    4065:	66 0f 6f e9          	movdqa %xmm1,%xmm5
    4069:	66 0f 72 f1 02       	pslld  $0x2,%xmm1
    406e:	66 0f fe e9          	paddd  %xmm1,%xmm5
    4072:	66 0f 72 d4 1c       	psrld  $0x1c,%xmm4
    4077:	66 0f 72 d5 1c       	psrld  $0x1c,%xmm5
    407c:	66 0f 6f cc          	movdqa %xmm4,%xmm1
    4080:	66 0f 61 e5          	punpcklwd %xmm5,%xmm4
    4084:	66 0f 69 cd          	punpckhwd %xmm5,%xmm1
    4088:	66 0f 6f ec          	movdqa %xmm4,%xmm5
    408c:	66 0f 61 e1          	punpcklwd %xmm1,%xmm4
    4090:	66 0f 69 e9          	punpckhwd %xmm1,%xmm5
    4094:	66 0f 61 e5          	punpcklwd %xmm5,%xmm4
    4098:	66 0f ef ed          	pxor   %xmm5,%xmm5
    409c:	66 0f db 25 8c 6f 00 	pand   0x6f8c(%rip),%xmm4        # b030 <_IO_stdin_used+0x30>
    40a3:	00 
    40a4:	66 0f 65 ee          	pcmpgtw %xmm6,%xmm5
    40a8:	66 44 0f 61 c5       	punpcklwd %xmm5,%xmm8
    40ad:	66 41 0f 72 f0 01    	pslld  $0x1,%xmm8
    40b3:	66 44 0f fe 05 84 6f 	paddd  0x6f84(%rip),%xmm8        # b040 <_IO_stdin_used+0x40>
    40ba:	00 00 
    40bc:	66 41 0f 6f c8       	movdqa %xmm8,%xmm1
    40c1:	66 0f 72 f1 06       	pslld  $0x6,%xmm1
    40c6:	66 0f 6f f9          	movdqa %xmm1,%xmm7
    40ca:	66 0f 6f ce          	movdqa %xmm6,%xmm1
    40ce:	66 0f 69 cd          	punpckhwd %xmm5,%xmm1
    40d2:	66 41 0f fa f8       	psubd  %xmm8,%xmm7
    40d7:	66 0f 6f e9          	movdqa %xmm1,%xmm5
    40db:	66 0f 72 f7 08       	pslld  $0x8,%xmm7
    40e0:	66 0f 72 f5 01       	pslld  $0x1,%xmm5
    40e5:	66 0f fe 2d 53 6f 00 	paddd  0x6f53(%rip),%xmm5        # b040 <_IO_stdin_used+0x40>
    40ec:	00 
    40ed:	66 41 0f fa f8       	psubd  %xmm8,%xmm7
    40f2:	66 44 0f 6f c7       	movdqa %xmm7,%xmm8
    40f7:	66 0f 6f cd          	movdqa %xmm5,%xmm1
    40fb:	66 41 0f 72 f0 02    	pslld  $0x2,%xmm8
    4101:	66 0f 72 f1 06       	pslld  $0x6,%xmm1
    4106:	66 41 0f fe f8       	paddd  %xmm8,%xmm7
    410b:	66 0f 6f f1          	movdqa %xmm1,%xmm6
    410f:	66 0f 72 d7 1c       	psrld  $0x1c,%xmm7
    4114:	66 0f fa f5          	psubd  %xmm5,%xmm6
    4118:	66 0f 72 f6 08       	pslld  $0x8,%xmm6
    411d:	66 0f 6f ce          	movdqa %xmm6,%xmm1
    4121:	66 0f fa cd          	psubd  %xmm5,%xmm1
    4125:	66 0f 6f e9          	movdqa %xmm1,%xmm5
    4129:	66 0f 72 f1 02       	pslld  $0x2,%xmm1
    412e:	66 0f fe e9          	paddd  %xmm1,%xmm5
    4132:	66 0f 6f cf          	movdqa %xmm7,%xmm1
    4136:	66 0f 72 d5 1c       	psrld  $0x1c,%xmm5
    413b:	66 0f 61 fd          	punpcklwd %xmm5,%xmm7
    413f:	66 0f 69 cd          	punpckhwd %xmm5,%xmm1
    4143:	66 0f 6f ef          	movdqa %xmm7,%xmm5
    4147:	66 0f 61 f9          	punpcklwd %xmm1,%xmm7
    414b:	66 0f 69 e9          	punpckhwd %xmm1,%xmm5
    414f:	66 0f ef c9          	pxor   %xmm1,%xmm1
    4153:	66 0f 65 cb          	pcmpgtw %xmm3,%xmm1
    4157:	66 0f 61 fd          	punpcklwd %xmm5,%xmm7
    415b:	66 0f db 3d cd 6e 00 	pand   0x6ecd(%rip),%xmm7        # b030 <_IO_stdin_used+0x30>
    4162:	00 
    4163:	66 0f 67 e7          	packuswb %xmm7,%xmm4
    4167:	66 0f 6f f1          	movdqa %xmm1,%xmm6
    416b:	66 0f 6f cb          	movdqa %xmm3,%xmm1
    416f:	66 0f fc e4          	paddb  %xmm4,%xmm4
    4173:	66 0f 61 ce          	punpcklwd %xmm6,%xmm1
    4177:	66 0f 69 de          	punpckhwd %xmm6,%xmm3
    417b:	66 0f fc e4          	paddb  %xmm4,%xmm4
    417f:	66 0f 6f f9          	movdqa %xmm1,%xmm7
    4183:	66 0f 72 f3 01       	pslld  $0x1,%xmm3
    4188:	66 0f fc e4          	paddb  %xmm4,%xmm4
    418c:	66 0f 72 f7 01       	pslld  $0x1,%xmm7
    4191:	66 0f fe 3d a7 6e 00 	paddd  0x6ea7(%rip),%xmm7        # b040 <_IO_stdin_used+0x40>
    4198:	00 
    4199:	66 0f fe 1d 9f 6e 00 	paddd  0x6e9f(%rip),%xmm3        # b040 <_IO_stdin_used+0x40>
    41a0:	00 
    41a1:	66 0f db 25 c7 6e 00 	pand   0x6ec7(%rip),%xmm4        # b070 <_IO_stdin_used+0x70>
    41a8:	00 
    41a9:	66 0f 6f ef          	movdqa %xmm7,%xmm5
    41ad:	66 0f 72 f5 06       	pslld  $0x6,%xmm5
    41b2:	66 41 0f eb e5       	por    %xmm13,%xmm4
    41b7:	66 0f fa ef          	psubd  %xmm7,%xmm5
    41bb:	66 0f 72 f5 08       	pslld  $0x8,%xmm5
    41c0:	66 0f fa ef          	psubd  %xmm7,%xmm5
    41c4:	66 0f 6f cd          	movdqa %xmm5,%xmm1
    41c8:	66 0f 72 f1 02       	pslld  $0x2,%xmm1
    41cd:	66 0f fe e9          	paddd  %xmm1,%xmm5
    41d1:	66 0f 6f cb          	movdqa %xmm3,%xmm1
    41d5:	66 0f 72 f1 06       	pslld  $0x6,%xmm1
    41da:	66 0f 72 d5 1c       	psrld  $0x1c,%xmm5
    41df:	66 0f 6f f1          	movdqa %xmm1,%xmm6
    41e3:	66 0f fa f3          	psubd  %xmm3,%xmm6
    41e7:	66 0f 72 f6 08       	pslld  $0x8,%xmm6
    41ec:	66 0f 6f ce          	movdqa %xmm6,%xmm1
    41f0:	66 0f fa cb          	psubd  %xmm3,%xmm1
    41f4:	66 0f 6f d9          	movdqa %xmm1,%xmm3
    41f8:	66 0f 72 f1 02       	pslld  $0x2,%xmm1
    41fd:	66 0f fe d9          	paddd  %xmm1,%xmm3
    4201:	66 0f 6f cd          	movdqa %xmm5,%xmm1
    4205:	66 0f 72 d3 1c       	psrld  $0x1c,%xmm3
    420a:	66 0f 61 eb          	punpcklwd %xmm3,%xmm5
    420e:	66 0f 69 cb          	punpckhwd %xmm3,%xmm1
    4212:	66 0f 6f dd          	movdqa %xmm5,%xmm3
    4216:	66 0f 61 e9          	punpcklwd %xmm1,%xmm5
    421a:	66 0f 69 d9          	punpckhwd %xmm1,%xmm3
    421e:	66 0f 6f ca          	movdqa %xmm2,%xmm1
    4222:	66 0f 61 eb          	punpcklwd %xmm3,%xmm5
    4226:	66 0f ef db          	pxor   %xmm3,%xmm3
    422a:	66 0f 65 da          	pcmpgtw %xmm2,%xmm3
    422e:	66 0f 61 cb          	punpcklwd %xmm3,%xmm1
    4232:	66 0f 69 d3          	punpckhwd %xmm3,%xmm2
    4236:	66 0f 6f f9          	movdqa %xmm1,%xmm7
    423a:	66 0f 6f da          	movdqa %xmm2,%xmm3
    423e:	66 0f 72 f7 01       	pslld  $0x1,%xmm7
    4243:	66 0f fe 3d f5 6d 00 	paddd  0x6df5(%rip),%xmm7        # b040 <_IO_stdin_used+0x40>
    424a:	00 
    424b:	66 0f 72 f3 01       	pslld  $0x1,%xmm3
    4250:	66 0f fe 1d e8 6d 00 	paddd  0x6de8(%rip),%xmm3        # b040 <_IO_stdin_used+0x40>
    4257:	00 
    4258:	66 0f 6f cf          	movdqa %xmm7,%xmm1
    425c:	66 0f 72 f1 06       	pslld  $0x6,%xmm1
    4261:	66 0f 6f d3          	movdqa %xmm3,%xmm2
    4265:	66 0f 6f f1          	movdqa %xmm1,%xmm6
    4269:	66 0f 72 f2 06       	pslld  $0x6,%xmm2
    426e:	66 0f fa f7          	psubd  %xmm7,%xmm6
    4272:	66 0f fa d3          	psubd  %xmm3,%xmm2
    4276:	66 0f 72 f6 08       	pslld  $0x8,%xmm6
    427b:	66 0f 72 f2 08       	pslld  $0x8,%xmm2
    4280:	66 0f fa f7          	psubd  %xmm7,%xmm6
    4284:	66 0f fa d3          	psubd  %xmm3,%xmm2
    4288:	66 0f 6f 7c 24 c8    	movdqa -0x38(%rsp),%xmm7
    428e:	66 0f 6f ce          	movdqa %xmm6,%xmm1
    4292:	66 0f 6f da          	movdqa %xmm2,%xmm3
    4296:	66 0f 72 f1 02       	pslld  $0x2,%xmm1
    429b:	66 0f 72 f3 02       	pslld  $0x2,%xmm3
    42a0:	66 0f fe f1          	paddd  %xmm1,%xmm6
    42a4:	66 0f fe d3          	paddd  %xmm3,%xmm2
    42a8:	66 0f 72 d2 1c       	psrld  $0x1c,%xmm2
    42ad:	66 0f 72 d6 1c       	psrld  $0x1c,%xmm6
    42b2:	66 0f 6f de          	movdqa %xmm6,%xmm3
    42b6:	66 0f 61 f2          	punpcklwd %xmm2,%xmm6
    42ba:	66 0f 69 da          	punpckhwd %xmm2,%xmm3
    42be:	66 0f 6f d6          	movdqa %xmm6,%xmm2
    42c2:	66 0f 69 d3          	punpckhwd %xmm3,%xmm2
    42c6:	66 0f 61 f3          	punpcklwd %xmm3,%xmm6
    42ca:	66 0f 6f df          	movdqa %xmm7,%xmm3
    42ce:	66 0f 61 f2          	punpcklwd %xmm2,%xmm6
    42d2:	66 0f 6f 15 56 6d 00 	movdqa 0x6d56(%rip),%xmm2        # b030 <_IO_stdin_used+0x30>
    42d9:	00 
    42da:	66 0f db 35 4e 6d 00 	pand   0x6d4e(%rip),%xmm6        # b030 <_IO_stdin_used+0x30>
    42e1:	00 
    42e2:	66 0f db d5          	pand   %xmm5,%xmm2
    42e6:	66 0f 67 d6          	packuswb %xmm6,%xmm2
    42ea:	66 0f fc d2          	paddb  %xmm2,%xmm2
    42ee:	66 0f fc d2          	paddb  %xmm2,%xmm2
    42f2:	66 0f fc d2          	paddb  %xmm2,%xmm2
    42f6:	66 0f fc d2          	paddb  %xmm2,%xmm2
    42fa:	66 0f db 15 7e 6d 00 	pand   0x6d7e(%rip),%xmm2        # b080 <_IO_stdin_used+0x80>
    4301:	00 
    4302:	66 0f eb d4          	por    %xmm4,%xmm2
    4306:	66 0f ef e4          	pxor   %xmm4,%xmm4
    430a:	66 0f 65 e7          	pcmpgtw %xmm7,%xmm4
    430e:	66 0f 61 dc          	punpcklwd %xmm4,%xmm3
    4312:	66 0f 72 f3 01       	pslld  $0x1,%xmm3
    4317:	66 0f fe 1d 21 6d 00 	paddd  0x6d21(%rip),%xmm3        # b040 <_IO_stdin_used+0x40>
    431e:	00 
    431f:	66 0f 6f eb          	movdqa %xmm3,%xmm5
    4323:	66 0f 72 f5 06       	pslld  $0x6,%xmm5
    4328:	66 0f fa eb          	psubd  %xmm3,%xmm5
    432c:	66 0f 72 f5 08       	pslld  $0x8,%xmm5
    4331:	66 0f fa eb          	psubd  %xmm3,%xmm5
    4335:	66 0f 6f dd          	movdqa %xmm5,%xmm3
    4339:	66 0f 72 f3 02       	pslld  $0x2,%xmm3
    433e:	66 0f fe eb          	paddd  %xmm3,%xmm5
    4342:	66 0f 6f df          	movdqa %xmm7,%xmm3
    4346:	66 0f 69 dc          	punpckhwd %xmm4,%xmm3
    434a:	66 0f 72 d5 1c       	psrld  $0x1c,%xmm5
    434f:	66 0f 72 f3 01       	pslld  $0x1,%xmm3
    4354:	66 0f fe 1d e4 6c 00 	paddd  0x6ce4(%rip),%xmm3        # b040 <_IO_stdin_used+0x40>
    435b:	00 
    435c:	66 0f 6f e3          	movdqa %xmm3,%xmm4
    4360:	66 0f 72 f4 06       	pslld  $0x6,%xmm4
    4365:	66 0f fa e3          	psubd  %xmm3,%xmm4
    4369:	66 0f 72 f4 08       	pslld  $0x8,%xmm4
    436e:	66 0f fa e3          	psubd  %xmm3,%xmm4
    4372:	66 0f 6f cc          	movdqa %xmm4,%xmm1
    4376:	66 0f 6f dc          	movdqa %xmm4,%xmm3
    437a:	66 0f 6f e5          	movdqa %xmm5,%xmm4
    437e:	66 0f 72 f1 02       	pslld  $0x2,%xmm1
    4383:	66 0f fe d9          	paddd  %xmm1,%xmm3
    4387:	66 0f 6f cd          	movdqa %xmm5,%xmm1
    438b:	66 0f ef ed          	pxor   %xmm5,%xmm5
    438f:	66 0f 72 d3 1c       	psrld  $0x1c,%xmm3
    4394:	66 0f 65 e8          	pcmpgtw %xmm0,%xmm5
    4398:	66 0f 61 cb          	punpcklwd %xmm3,%xmm1
    439c:	66 0f 69 e3          	punpckhwd %xmm3,%xmm4
    43a0:	66 0f 6f d9          	movdqa %xmm1,%xmm3
    43a4:	66 0f 61 cc          	punpcklwd %xmm4,%xmm1
    43a8:	66 0f 69 dc          	punpckhwd %xmm4,%xmm3
    43ac:	66 0f 6f e0          	movdqa %xmm0,%xmm4
    43b0:	66 0f 69 c5          	punpckhwd %xmm5,%xmm0
    43b4:	66 0f 61 e5          	punpcklwd %xmm5,%xmm4
    43b8:	66 0f 61 cb          	punpcklwd %xmm3,%xmm1
    43bc:	66 0f ef ed          	pxor   %xmm5,%xmm5
    43c0:	66 0f 72 f4 01       	pslld  $0x1,%xmm4
    43c5:	66 0f fe 25 73 6c 00 	paddd  0x6c73(%rip),%xmm4        # b040 <_IO_stdin_used+0x40>
    43cc:	00 
    43cd:	66 0f 6f 7c 24 d8    	movdqa -0x28(%rsp),%xmm7
    43d3:	66 0f 72 f0 01       	pslld  $0x1,%xmm0
    43d8:	66 0f fe 05 60 6c 00 	paddd  0x6c60(%rip),%xmm0        # b040 <_IO_stdin_used+0x40>
    43df:	00 
    43e0:	66 0f db 0d 48 6c 00 	pand   0x6c48(%rip),%xmm1        # b030 <_IO_stdin_used+0x30>
    43e7:	00 
    43e8:	66 0f 6f dc          	movdqa %xmm4,%xmm3
    43ec:	66 0f 6f 74 24 e8    	movdqa -0x18(%rsp),%xmm6
    43f2:	66 0f 72 f3 06       	pslld  $0x6,%xmm3
    43f7:	66 0f fa dc          	psubd  %xmm4,%xmm3
    43fb:	66 0f 72 f3 08       	pslld  $0x8,%xmm3
    4400:	66 0f fa dc          	psubd  %xmm4,%xmm3
    4404:	66 0f 6f e3          	movdqa %xmm3,%xmm4
    4408:	66 0f 72 f4 02       	pslld  $0x2,%xmm4
    440d:	66 0f fe dc          	paddd  %xmm4,%xmm3
    4411:	66 0f 6f e0          	movdqa %xmm0,%xmm4
    4415:	66 0f 72 f4 06       	pslld  $0x6,%xmm4
    441a:	66 0f 72 d3 1c       	psrld  $0x1c,%xmm3
    441f:	66 0f fa e0          	psubd  %xmm0,%xmm4
    4423:	66 0f 72 f4 08       	pslld  $0x8,%xmm4
    4428:	66 0f fa e0          	psubd  %xmm0,%xmm4
    442c:	66 0f 6f c4          	movdqa %xmm4,%xmm0
    4430:	66 0f 72 f4 02       	pslld  $0x2,%xmm4
    4435:	66 0f fe c4          	paddd  %xmm4,%xmm0
    4439:	66 0f 6f e3          	movdqa %xmm3,%xmm4
    443d:	66 0f 72 d0 1c       	psrld  $0x1c,%xmm0
    4442:	66 0f 61 d8          	punpcklwd %xmm0,%xmm3
    4446:	66 0f 69 e0          	punpckhwd %xmm0,%xmm4
    444a:	66 0f 6f c3          	movdqa %xmm3,%xmm0
    444e:	66 0f 61 dc          	punpcklwd %xmm4,%xmm3
    4452:	66 0f 69 c4          	punpckhwd %xmm4,%xmm0
    4456:	66 0f 61 d8          	punpcklwd %xmm0,%xmm3
    445a:	66 0f db 1d ce 6b 00 	pand   0x6bce(%rip),%xmm3        # b030 <_IO_stdin_used+0x30>
    4461:	00 
    4462:	66 0f 6f c2          	movdqa %xmm2,%xmm0
    4466:	66 0f 6f d7          	movdqa %xmm7,%xmm2
    446a:	66 0f 67 cb          	packuswb %xmm3,%xmm1
    446e:	66 0f ef db          	pxor   %xmm3,%xmm3
    4472:	66 0f 65 df          	pcmpgtw %xmm7,%xmm3
    4476:	66 0f fc c9          	paddb  %xmm1,%xmm1
    447a:	66 0f fc c9          	paddb  %xmm1,%xmm1
    447e:	66 0f fc c9          	paddb  %xmm1,%xmm1
    4482:	66 0f 61 d3          	punpcklwd %xmm3,%xmm2
    4486:	66 0f fc c9          	paddb  %xmm1,%xmm1
    448a:	66 0f 69 fb          	punpckhwd %xmm3,%xmm7
    448e:	66 0f fc c9          	paddb  %xmm1,%xmm1
    4492:	66 0f 72 f2 01       	pslld  $0x1,%xmm2
    4497:	66 0f db 0d f1 6b 00 	pand   0x6bf1(%rip),%xmm1        # b090 <_IO_stdin_used+0x90>
    449e:	00 
    449f:	66 0f fe 15 99 6b 00 	paddd  0x6b99(%rip),%xmm2        # b040 <_IO_stdin_used+0x40>
    44a6:	00 
    44a7:	66 0f eb c1          	por    %xmm1,%xmm0
    44ab:	66 0f 6f ca          	movdqa %xmm2,%xmm1
    44af:	66 0f 72 f1 06       	pslld  $0x6,%xmm1
    44b4:	66 0f fa ca          	psubd  %xmm2,%xmm1
    44b8:	66 0f 72 f1 08       	pslld  $0x8,%xmm1
    44bd:	66 0f fa ca          	psubd  %xmm2,%xmm1
    44c1:	66 0f 6f d1          	movdqa %xmm1,%xmm2
    44c5:	66 0f 72 f2 02       	pslld  $0x2,%xmm2
    44ca:	66 0f fe ca          	paddd  %xmm2,%xmm1
    44ce:	66 0f 6f d7          	movdqa %xmm7,%xmm2
    44d2:	66 0f 6f 7c 24 b8    	movdqa -0x48(%rsp),%xmm7
    44d8:	66 0f 72 f2 01       	pslld  $0x1,%xmm2
    44dd:	66 0f fe 15 5b 6b 00 	paddd  0x6b5b(%rip),%xmm2        # b040 <_IO_stdin_used+0x40>
    44e4:	00 
    44e5:	66 0f 72 d1 1c       	psrld  $0x1c,%xmm1
    44ea:	66 0f 65 ef          	pcmpgtw %xmm7,%xmm5
    44ee:	66 0f 6f da          	movdqa %xmm2,%xmm3
    44f2:	66 0f 72 f3 06       	pslld  $0x6,%xmm3
    44f7:	66 0f fa da          	psubd  %xmm2,%xmm3
    44fb:	66 0f 72 f3 08       	pslld  $0x8,%xmm3
    4500:	66 0f fa da          	psubd  %xmm2,%xmm3
    4504:	66 0f 6f d3          	movdqa %xmm3,%xmm2
    4508:	66 0f 72 f3 02       	pslld  $0x2,%xmm3
    450d:	66 0f fe d3          	paddd  %xmm3,%xmm2
    4511:	66 0f 6f d9          	movdqa %xmm1,%xmm3
    4515:	66 0f 72 d2 1c       	psrld  $0x1c,%xmm2
    451a:	66 0f 61 ca          	punpcklwd %xmm2,%xmm1
    451e:	66 0f 69 da          	punpckhwd %xmm2,%xmm3
    4522:	66 0f 6f d1          	movdqa %xmm1,%xmm2
    4526:	66 0f 61 cb          	punpcklwd %xmm3,%xmm1
    452a:	66 0f 69 d3          	punpckhwd %xmm3,%xmm2
    452e:	66 0f 6f df          	movdqa %xmm7,%xmm3
    4532:	66 0f 69 fd          	punpckhwd %xmm5,%xmm7
    4536:	66 0f 61 dd          	punpcklwd %xmm5,%xmm3
    453a:	66 0f 61 ca          	punpcklwd %xmm2,%xmm1
    453e:	66 0f db 0d ea 6a 00 	pand   0x6aea(%rip),%xmm1        # b030 <_IO_stdin_used+0x30>
    4545:	00 
    4546:	66 0f 72 f3 01       	pslld  $0x1,%xmm3
    454b:	66 0f fe 1d ed 6a 00 	paddd  0x6aed(%rip),%xmm3        # b040 <_IO_stdin_used+0x40>
    4552:	00 
    4553:	66 0f 6f d3          	movdqa %xmm3,%xmm2
    4557:	66 0f 72 f2 06       	pslld  $0x6,%xmm2
    455c:	66 0f fa d3          	psubd  %xmm3,%xmm2
    4560:	66 0f 72 f2 08       	pslld  $0x8,%xmm2
    4565:	66 0f fa d3          	psubd  %xmm3,%xmm2
    4569:	66 0f 6f e2          	movdqa %xmm2,%xmm4
    456d:	66 0f 72 f4 02       	pslld  $0x2,%xmm4
    4572:	66 0f fe d4          	paddd  %xmm4,%xmm2
    4576:	66 0f 72 d2 1c       	psrld  $0x1c,%xmm2
    457b:	66 0f 6f e2          	movdqa %xmm2,%xmm4
    457f:	66 0f 6f d7          	movdqa %xmm7,%xmm2
    4583:	66 0f 72 f2 01       	pslld  $0x1,%xmm2
    4588:	66 0f fe 15 b0 6a 00 	paddd  0x6ab0(%rip),%xmm2        # b040 <_IO_stdin_used+0x40>
    458f:	00 
    4590:	66 0f 6f fc          	movdqa %xmm4,%xmm7
    4594:	66 0f 6f da          	movdqa %xmm2,%xmm3
    4598:	66 0f 72 f3 06       	pslld  $0x6,%xmm3
    459d:	66 0f fa da          	psubd  %xmm2,%xmm3
    45a1:	66 0f 72 f3 08       	pslld  $0x8,%xmm3
    45a6:	66 0f fa da          	psubd  %xmm2,%xmm3
    45aa:	66 0f 6f d3          	movdqa %xmm3,%xmm2
    45ae:	66 0f 72 f3 02       	pslld  $0x2,%xmm3
    45b3:	66 0f fe d3          	paddd  %xmm3,%xmm2
    45b7:	66 0f 6f dc          	movdqa %xmm4,%xmm3
    45bb:	66 0f 72 d2 1c       	psrld  $0x1c,%xmm2
    45c0:	66 0f 61 fa          	punpcklwd %xmm2,%xmm7
    45c4:	66 0f 69 da          	punpckhwd %xmm2,%xmm3
    45c8:	66 0f 6f e7          	movdqa %xmm7,%xmm4
    45cc:	66 0f 6f d7          	movdqa %xmm7,%xmm2
    45d0:	66 0f 69 e3          	punpckhwd %xmm3,%xmm4
    45d4:	66 0f 61 d3          	punpcklwd %xmm3,%xmm2
    45d8:	66 0f ef db          	pxor   %xmm3,%xmm3
    45dc:	66 0f 61 d4          	punpcklwd %xmm4,%xmm2
    45e0:	66 0f db 15 48 6a 00 	pand   0x6a48(%rip),%xmm2        # b030 <_IO_stdin_used+0x30>
    45e7:	00 
    45e8:	66 0f ef e4          	pxor   %xmm4,%xmm4
    45ec:	66 0f 65 de          	pcmpgtw %xmm6,%xmm3
    45f0:	66 41 0f 65 e7       	pcmpgtw %xmm15,%xmm4
    45f5:	66 0f 67 ca          	packuswb %xmm2,%xmm1
    45f9:	66 0f 6f d6          	movdqa %xmm6,%xmm2
    45fd:	66 0f fc c9          	paddb  %xmm1,%xmm1
    4601:	66 0f fc c9          	paddb  %xmm1,%xmm1
    4605:	66 0f 61 d3          	punpcklwd %xmm3,%xmm2
    4609:	66 0f 69 f3          	punpckhwd %xmm3,%xmm6
    460d:	66 0f fc c9          	paddb  %xmm1,%xmm1
    4611:	66 0f 72 f2 01       	pslld  $0x1,%xmm2
    4616:	66 0f fe 15 22 6a 00 	paddd  0x6a22(%rip),%xmm2        # b040 <_IO_stdin_used+0x40>
    461d:	00 
    461e:	66 0f fc c9          	paddb  %xmm1,%xmm1
    4622:	66 0f fc c9          	paddb  %xmm1,%xmm1
    4626:	66 0f fc c9          	paddb  %xmm1,%xmm1
    462a:	66 0f db 0d 6e 6a 00 	pand   0x6a6e(%rip),%xmm1        # b0a0 <_IO_stdin_used+0xa0>
    4631:	00 
    4632:	66 0f eb c1          	por    %xmm1,%xmm0
    4636:	66 0f 6f ca          	movdqa %xmm2,%xmm1
    463a:	66 0f 72 f1 06       	pslld  $0x6,%xmm1
    463f:	66 0f fa ca          	psubd  %xmm2,%xmm1
    4643:	66 0f 72 f1 08       	pslld  $0x8,%xmm1
    4648:	66 0f fa ca          	psubd  %xmm2,%xmm1
    464c:	66 0f 6f d1          	movdqa %xmm1,%xmm2
    4650:	66 0f 72 f2 02       	pslld  $0x2,%xmm2
    4655:	66 0f fe ca          	paddd  %xmm2,%xmm1
    4659:	66 0f 6f d6          	movdqa %xmm6,%xmm2
    465d:	66 0f 72 f2 01       	pslld  $0x1,%xmm2
    4662:	66 0f fe 15 d6 69 00 	paddd  0x69d6(%rip),%xmm2        # b040 <_IO_stdin_used+0x40>
    4669:	00 
    466a:	66 0f 72 d1 1c       	psrld  $0x1c,%xmm1
    466f:	66 0f 6f da          	movdqa %xmm2,%xmm3
    4673:	66 0f 72 f3 06       	pslld  $0x6,%xmm3
    4678:	66 0f fa da          	psubd  %xmm2,%xmm3
    467c:	66 0f 72 f3 08       	pslld  $0x8,%xmm3
    4681:	66 0f fa da          	psubd  %xmm2,%xmm3
    4685:	66 0f 6f d3          	movdqa %xmm3,%xmm2
    4689:	66 0f 72 f3 02       	pslld  $0x2,%xmm3
    468e:	66 0f fe d3          	paddd  %xmm3,%xmm2
    4692:	66 0f 6f d9          	movdqa %xmm1,%xmm3
    4696:	66 0f 72 d2 1c       	psrld  $0x1c,%xmm2
    469b:	66 0f 61 ca          	punpcklwd %xmm2,%xmm1
    469f:	66 0f 69 da          	punpckhwd %xmm2,%xmm3
    46a3:	66 0f 6f d1          	movdqa %xmm1,%xmm2
    46a7:	66 0f 61 cb          	punpcklwd %xmm3,%xmm1
    46ab:	66 0f 69 d3          	punpckhwd %xmm3,%xmm2
    46af:	66 41 0f 6f df       	movdqa %xmm15,%xmm3
    46b4:	66 0f 61 dc          	punpcklwd %xmm4,%xmm3
    46b8:	66 0f 61 ca          	punpcklwd %xmm2,%xmm1
    46bc:	66 0f db 0d 6c 69 00 	pand   0x696c(%rip),%xmm1        # b030 <_IO_stdin_used+0x30>
    46c3:	00 
    46c4:	66 0f 72 f3 01       	pslld  $0x1,%xmm3
    46c9:	66 0f fe 1d 6f 69 00 	paddd  0x696f(%rip),%xmm3        # b040 <_IO_stdin_used+0x40>
    46d0:	00 
    46d1:	66 0f 6f d3          	movdqa %xmm3,%xmm2
    46d5:	66 0f 72 f2 06       	pslld  $0x6,%xmm2
    46da:	66 0f fa d3          	psubd  %xmm3,%xmm2
    46de:	66 0f 72 f2 08       	pslld  $0x8,%xmm2
    46e3:	66 0f fa d3          	psubd  %xmm3,%xmm2
    46e7:	66 0f 6f da          	movdqa %xmm2,%xmm3
    46eb:	66 0f 72 f3 02       	pslld  $0x2,%xmm3
    46f0:	66 0f fe d3          	paddd  %xmm3,%xmm2
    46f4:	66 41 0f 6f df       	movdqa %xmm15,%xmm3
    46f9:	66 0f 69 dc          	punpckhwd %xmm4,%xmm3
    46fd:	66 0f 72 d2 1c       	psrld  $0x1c,%xmm2
    4702:	66 0f 72 f3 01       	pslld  $0x1,%xmm3
    4707:	66 0f fe 1d 31 69 00 	paddd  0x6931(%rip),%xmm3        # b040 <_IO_stdin_used+0x40>
    470e:	00 
    470f:	66 0f 6f e3          	movdqa %xmm3,%xmm4
    4713:	66 0f 72 f4 06       	pslld  $0x6,%xmm4
    4718:	66 0f fa e3          	psubd  %xmm3,%xmm4
    471c:	66 0f 72 f4 08       	pslld  $0x8,%xmm4
    4721:	66 0f fa e3          	psubd  %xmm3,%xmm4
    4725:	66 0f 6f dc          	movdqa %xmm4,%xmm3
    4729:	66 0f 72 f4 02       	pslld  $0x2,%xmm4
    472e:	66 0f fe dc          	paddd  %xmm4,%xmm3
    4732:	66 0f 6f e2          	movdqa %xmm2,%xmm4
    4736:	66 0f 72 d3 1c       	psrld  $0x1c,%xmm3
    473b:	66 0f 61 d3          	punpcklwd %xmm3,%xmm2
    473f:	66 0f 69 e3          	punpckhwd %xmm3,%xmm4
    4743:	66 0f 6f da          	movdqa %xmm2,%xmm3
    4747:	66 0f 61 d4          	punpcklwd %xmm4,%xmm2
    474b:	66 0f 69 dc          	punpckhwd %xmm4,%xmm3
    474f:	66 0f 61 d3          	punpcklwd %xmm3,%xmm2
    4753:	66 0f db 15 d5 68 00 	pand   0x68d5(%rip),%xmm2        # b030 <_IO_stdin_used+0x30>
    475a:	00 
    475b:	66 0f 67 ca          	packuswb %xmm2,%xmm1
    475f:	66 0f fc c9          	paddb  %xmm1,%xmm1
    4763:	66 0f fc c9          	paddb  %xmm1,%xmm1
    4767:	66 0f fc c9          	paddb  %xmm1,%xmm1
    476b:	66 0f fc c9          	paddb  %xmm1,%xmm1
    476f:	66 0f fc c9          	paddb  %xmm1,%xmm1
    4773:	66 0f fc c9          	paddb  %xmm1,%xmm1
    4777:	66 0f fc c9          	paddb  %xmm1,%xmm1
    477b:	66 0f eb c8          	por    %xmm0,%xmm1
    477f:	0f 11 49 f0          	movups %xmm1,-0x10(%rcx)
    4783:	48 39 c1             	cmp    %rax,%rcx
    4786:	0f 85 e7 ed ff ff    	jne    3573 <pqcrystals_kyber1024_ref_poly_tomsg+0x23>
    478c:	c3                   	retq   
    478d:	0f 1f 00             	nopl   (%rax)
    4790:	c6 01 00             	movb   $0x0,(%rcx)
    4793:	0f bf 02             	movswl (%rdx),%eax
    4796:	48 83 c1 01          	add    $0x1,%rcx
    479a:	8d 84 00 81 06 00 00 	lea    0x681(%rax,%rax,1),%eax
    47a1:	69 c0 fb 3a 01 00    	imul   $0x13afb,%eax,%eax
    47a7:	c1 e8 1c             	shr    $0x1c,%eax
    47aa:	83 e0 01             	and    $0x1,%eax
    47ad:	88 41 ff             	mov    %al,-0x1(%rcx)
    47b0:	0f bf 72 02          	movswl 0x2(%rdx),%esi
    47b4:	8d b4 36 81 06 00 00 	lea    0x681(%rsi,%rsi,1),%esi
    47bb:	69 f6 fb 3a 01 00    	imul   $0x13afb,%esi,%esi
    47c1:	c1 ee 1b             	shr    $0x1b,%esi
    47c4:	83 e6 02             	and    $0x2,%esi
    47c7:	09 f0                	or     %esi,%eax
    47c9:	88 41 ff             	mov    %al,-0x1(%rcx)
    47cc:	0f bf 72 04          	movswl 0x4(%rdx),%esi
    47d0:	8d b4 36 81 06 00 00 	lea    0x681(%rsi,%rsi,1),%esi
    47d7:	69 f6 fb 3a 01 00    	imul   $0x13afb,%esi,%esi
    47dd:	c1 ee 1a             	shr    $0x1a,%esi
    47e0:	83 e6 04             	and    $0x4,%esi
    47e3:	09 f0                	or     %esi,%eax
    47e5:	88 41 ff             	mov    %al,-0x1(%rcx)
    47e8:	0f bf 72 06          	movswl 0x6(%rdx),%esi
    47ec:	8d b4 36 81 06 00 00 	lea    0x681(%rsi,%rsi,1),%esi
    47f3:	69 f6 fb 3a 01 00    	imul   $0x13afb,%esi,%esi
    47f9:	c1 ee 19             	shr    $0x19,%esi
    47fc:	83 e6 08             	and    $0x8,%esi
    47ff:	09 f0                	or     %esi,%eax
    4801:	88 41 ff             	mov    %al,-0x1(%rcx)
    4804:	0f bf 72 08          	movswl 0x8(%rdx),%esi
    4808:	8d b4 36 81 06 00 00 	lea    0x681(%rsi,%rsi,1),%esi
    480f:	69 f6 fb 3a 01 00    	imul   $0x13afb,%esi,%esi
    4815:	c1 ee 18             	shr    $0x18,%esi
    4818:	83 e6 10             	and    $0x10,%esi
    481b:	09 f0                	or     %esi,%eax
    481d:	88 41 ff             	mov    %al,-0x1(%rcx)
    4820:	0f bf 72 0a          	movswl 0xa(%rdx),%esi
    4824:	8d b4 36 81 06 00 00 	lea    0x681(%rsi,%rsi,1),%esi
    482b:	69 f6 fb 3a 01 00    	imul   $0x13afb,%esi,%esi
    4831:	c1 ee 17             	shr    $0x17,%esi
    4834:	83 e6 20             	and    $0x20,%esi
    4837:	09 f0                	or     %esi,%eax
    4839:	88 41 ff             	mov    %al,-0x1(%rcx)
    483c:	0f bf 72 0c          	movswl 0xc(%rdx),%esi
    4840:	8d b4 36 81 06 00 00 	lea    0x681(%rsi,%rsi,1),%esi
    4847:	69 f6 fb 3a 01 00    	imul   $0x13afb,%esi,%esi
    484d:	c1 ee 16             	shr    $0x16,%esi
    4850:	83 e6 40             	and    $0x40,%esi
    4853:	09 f0                	or     %esi,%eax
    4855:	88 41 ff             	mov    %al,-0x1(%rcx)
    4858:	0f bf 72 0e          	movswl 0xe(%rdx),%esi
    485c:	8d b4 36 81 06 00 00 	lea    0x681(%rsi,%rsi,1),%esi
    4863:	69 f6 fb 3a 01 00    	imul   $0x13afb,%esi,%esi
    4869:	c1 ee 1c             	shr    $0x1c,%esi
    486c:	c1 e6 07             	shl    $0x7,%esi
    486f:	09 f0                	or     %esi,%eax
    4871:	88 41 ff             	mov    %al,-0x1(%rcx)
    4874:	48 83 c2 10          	add    $0x10,%rdx
    4878:	48 39 d7             	cmp    %rdx,%rdi
    487b:	0f 85 0f ff ff ff    	jne    4790 <pqcrystals_kyber1024_ref_poly_tomsg+0x1240>
    4881:	c3                   	retq   
    4882:	66 66 2e 0f 1f 84 00 	data16 nopw %cs:0x0(%rax,%rax,1)
    4889:	00 00 00 00 
    488d:	0f 1f 00             	nopl   (%rax)

0000000000004890 <pqcrystals_kyber1024_ref_poly_getnoise_eta1>:
    4890:	f3 0f 1e fa          	endbr64 
    4894:	41 54                	push   %r12
    4896:	0f b6 ca             	movzbl %dl,%ecx
    4899:	48 89 f2             	mov    %rsi,%rdx
    489c:	be 80 00 00 00       	mov    $0x80,%esi
    48a1:	55                   	push   %rbp
    48a2:	48 89 fd             	mov    %rdi,%rbp
    48a5:	48 81 ec 98 00 00 00 	sub    $0x98,%rsp
    48ac:	64 48 8b 04 25 28 00 	mov    %fs:0x28,%rax
    48b3:	00 00 
    48b5:	48 89 84 24 88 00 00 	mov    %rax,0x88(%rsp)
    48bc:	00 
    48bd:	31 c0                	xor    %eax,%eax
    48bf:	49 89 e4             	mov    %rsp,%r12
    48c2:	4c 89 e7             	mov    %r12,%rdi
    48c5:	e8 36 59 00 00       	callq  a200 <pqcrystals_kyber1024_ref_kyber_shake256_prf>
    48ca:	4c 89 e6             	mov    %r12,%rsi
    48cd:	48 89 ef             	mov    %rbp,%rdi
    48d0:	e8 4b 05 00 00       	callq  4e20 <pqcrystals_kyber1024_ref_poly_cbd_eta1>
    48d5:	48 8b 84 24 88 00 00 	mov    0x88(%rsp),%rax
    48dc:	00 
    48dd:	64 48 33 04 25 28 00 	xor    %fs:0x28,%rax
    48e4:	00 00 
    48e6:	75 0b                	jne    48f3 <pqcrystals_kyber1024_ref_poly_getnoise_eta1+0x63>
    48e8:	48 81 c4 98 00 00 00 	add    $0x98,%rsp
    48ef:	5d                   	pop    %rbp
    48f0:	41 5c                	pop    %r12
    48f2:	c3                   	retq   
    48f3:	e8 88 c8 ff ff       	callq  1180 <__stack_chk_fail@plt>
    48f8:	0f 1f 84 00 00 00 00 	nopl   0x0(%rax,%rax,1)
    48ff:	00 

0000000000004900 <pqcrystals_kyber1024_ref_poly_getnoise_eta2>:
    4900:	f3 0f 1e fa          	endbr64 
    4904:	41 54                	push   %r12
    4906:	0f b6 ca             	movzbl %dl,%ecx
    4909:	48 89 f2             	mov    %rsi,%rdx
    490c:	be 80 00 00 00       	mov    $0x80,%esi
    4911:	55                   	push   %rbp
    4912:	48 89 fd             	mov    %rdi,%rbp
    4915:	48 81 ec 98 00 00 00 	sub    $0x98,%rsp
    491c:	64 48 8b 04 25 28 00 	mov    %fs:0x28,%rax
    4923:	00 00 
    4925:	48 89 84 24 88 00 00 	mov    %rax,0x88(%rsp)
    492c:	00 
    492d:	31 c0                	xor    %eax,%eax
    492f:	49 89 e4             	mov    %rsp,%r12
    4932:	4c 89 e7             	mov    %r12,%rdi
    4935:	e8 c6 58 00 00       	callq  a200 <pqcrystals_kyber1024_ref_kyber_shake256_prf>
    493a:	4c 89 e6             	mov    %r12,%rsi
    493d:	48 89 ef             	mov    %rbp,%rdi
    4940:	e8 ab 0a 00 00       	callq  53f0 <pqcrystals_kyber1024_ref_poly_cbd_eta2>
    4945:	48 8b 84 24 88 00 00 	mov    0x88(%rsp),%rax
    494c:	00 
    494d:	64 48 33 04 25 28 00 	xor    %fs:0x28,%rax
    4954:	00 00 
    4956:	75 0b                	jne    4963 <pqcrystals_kyber1024_ref_poly_getnoise_eta2+0x63>
    4958:	48 81 c4 98 00 00 00 	add    $0x98,%rsp
    495f:	5d                   	pop    %rbp
    4960:	41 5c                	pop    %r12
    4962:	c3                   	retq   
    4963:	e8 18 c8 ff ff       	callq  1180 <__stack_chk_fail@plt>
    4968:	0f 1f 84 00 00 00 00 	nopl   0x0(%rax,%rax,1)
    496f:	00 

0000000000004970 <pqcrystals_kyber1024_ref_poly_ntt>:
    4970:	f3 0f 1e fa          	endbr64 
    4974:	55                   	push   %rbp
    4975:	53                   	push   %rbx
    4976:	48 89 fb             	mov    %rdi,%rbx
    4979:	48 8d ab 00 02 00 00 	lea    0x200(%rbx),%rbp
    4980:	48 83 ec 08          	sub    $0x8,%rsp
    4984:	e8 97 01 00 00       	callq  4b20 <pqcrystals_kyber1024_ref_ntt>
    4989:	0f 1f 80 00 00 00 00 	nopl   0x0(%rax)
    4990:	0f bf 3b             	movswl (%rbx),%edi
    4993:	48 83 c3 02          	add    $0x2,%rbx
    4997:	e8 44 10 00 00       	callq  59e0 <pqcrystals_kyber1024_ref_barrett_reduce>
    499c:	66 89 43 fe          	mov    %ax,-0x2(%rbx)
    49a0:	48 39 eb             	cmp    %rbp,%rbx
    49a3:	75 eb                	jne    4990 <pqcrystals_kyber1024_ref_poly_ntt+0x20>
    49a5:	48 83 c4 08          	add    $0x8,%rsp
    49a9:	5b                   	pop    %rbx
    49aa:	5d                   	pop    %rbp
    49ab:	c3                   	retq   
    49ac:	0f 1f 40 00          	nopl   0x0(%rax)

00000000000049b0 <pqcrystals_kyber1024_ref_poly_invntt_tomont>:
    49b0:	f3 0f 1e fa          	endbr64 
    49b4:	e9 87 02 00 00       	jmpq   4c40 <pqcrystals_kyber1024_ref_invntt>
    49b9:	0f 1f 80 00 00 00 00 	nopl   0x0(%rax)

00000000000049c0 <pqcrystals_kyber1024_ref_poly_basemul_montgomery>:
    49c0:	f3 0f 1e fa          	endbr64 
    49c4:	41 57                	push   %r15
    49c6:	4c 8d 3d 73 67 00 00 	lea    0x6773(%rip),%r15        # b140 <pqcrystals_kyber1024_ref_zetas+0x80>
    49cd:	41 56                	push   %r14
    49cf:	49 89 f6             	mov    %rsi,%r14
    49d2:	41 55                	push   %r13
    49d4:	4d 8d af 80 00 00 00 	lea    0x80(%r15),%r13
    49db:	41 54                	push   %r12
    49dd:	49 89 d4             	mov    %rdx,%r12
    49e0:	55                   	push   %rbp
    49e1:	48 8d 6f 04          	lea    0x4(%rdi),%rbp
    49e5:	53                   	push   %rbx
    49e6:	48 83 ec 08          	sub    $0x8,%rsp
    49ea:	66 0f 1f 44 00 00    	nopw   0x0(%rax,%rax,1)
    49f0:	41 0f bf 0f          	movswl (%r15),%ecx
    49f4:	48 8d 7d fc          	lea    -0x4(%rbp),%rdi
    49f8:	4c 89 e2             	mov    %r12,%rdx
    49fb:	4c 89 f6             	mov    %r14,%rsi
    49fe:	49 83 c7 02          	add    $0x2,%r15
    4a02:	89 cb                	mov    %ecx,%ebx
    4a04:	e8 87 03 00 00       	callq  4d90 <pqcrystals_kyber1024_ref_basemul>
    4a09:	f7 db                	neg    %ebx
    4a0b:	49 8d 54 24 04       	lea    0x4(%r12),%rdx
    4a10:	49 8d 76 04          	lea    0x4(%r14),%rsi
    4a14:	48 89 ef             	mov    %rbp,%rdi
    4a17:	0f bf cb             	movswl %bx,%ecx
    4a1a:	49 83 c6 08          	add    $0x8,%r14
    4a1e:	49 83 c4 08          	add    $0x8,%r12
    4a22:	e8 69 03 00 00       	callq  4d90 <pqcrystals_kyber1024_ref_basemul>
    4a27:	48 83 c5 08          	add    $0x8,%rbp
    4a2b:	4d 39 fd             	cmp    %r15,%r13
    4a2e:	75 c0                	jne    49f0 <pqcrystals_kyber1024_ref_poly_basemul_montgomery+0x30>
    4a30:	48 83 c4 08          	add    $0x8,%rsp
    4a34:	5b                   	pop    %rbx
    4a35:	5d                   	pop    %rbp
    4a36:	41 5c                	pop    %r12
    4a38:	41 5d                	pop    %r13
    4a3a:	41 5e                	pop    %r14
    4a3c:	41 5f                	pop    %r15
    4a3e:	c3                   	retq   
    4a3f:	90                   	nop

0000000000004a40 <pqcrystals_kyber1024_ref_poly_tomont>:
    4a40:	f3 0f 1e fa          	endbr64 
    4a44:	55                   	push   %rbp
    4a45:	48 8d af 00 02 00 00 	lea    0x200(%rdi),%rbp
    4a4c:	53                   	push   %rbx
    4a4d:	48 89 fb             	mov    %rdi,%rbx
    4a50:	48 83 ec 08          	sub    $0x8,%rsp
    4a54:	0f 1f 40 00          	nopl   0x0(%rax)
    4a58:	0f bf 3b             	movswl (%rbx),%edi
    4a5b:	48 83 c3 02          	add    $0x2,%rbx
    4a5f:	69 ff 49 05 00 00    	imul   $0x549,%edi,%edi
    4a65:	e8 56 0f 00 00       	callq  59c0 <pqcrystals_kyber1024_ref_montgomery_reduce>
    4a6a:	66 89 43 fe          	mov    %ax,-0x2(%rbx)
    4a6e:	48 39 eb             	cmp    %rbp,%rbx
    4a71:	75 e5                	jne    4a58 <pqcrystals_kyber1024_ref_poly_tomont+0x18>
    4a73:	48 83 c4 08          	add    $0x8,%rsp
    4a77:	5b                   	pop    %rbx
    4a78:	5d                   	pop    %rbp
    4a79:	c3                   	retq   
    4a7a:	66 0f 1f 44 00 00    	nopw   0x0(%rax,%rax,1)

0000000000004a80 <pqcrystals_kyber1024_ref_poly_reduce>:
    4a80:	f3 0f 1e fa          	endbr64 
    4a84:	55                   	push   %rbp
    4a85:	48 8d af 00 02 00 00 	lea    0x200(%rdi),%rbp
    4a8c:	53                   	push   %rbx
    4a8d:	48 89 fb             	mov    %rdi,%rbx
    4a90:	48 83 ec 08          	sub    $0x8,%rsp
    4a94:	0f 1f 40 00          	nopl   0x0(%rax)
    4a98:	0f bf 3b             	movswl (%rbx),%edi
    4a9b:	48 83 c3 02          	add    $0x2,%rbx
    4a9f:	e8 3c 0f 00 00       	callq  59e0 <pqcrystals_kyber1024_ref_barrett_reduce>
    4aa4:	66 89 43 fe          	mov    %ax,-0x2(%rbx)
    4aa8:	48 39 eb             	cmp    %rbp,%rbx
    4aab:	75 eb                	jne    4a98 <pqcrystals_kyber1024_ref_poly_reduce+0x18>
    4aad:	48 83 c4 08          	add    $0x8,%rsp
    4ab1:	5b                   	pop    %rbx
    4ab2:	5d                   	pop    %rbp
    4ab3:	c3                   	retq   
    4ab4:	66 66 2e 0f 1f 84 00 	data16 nopw %cs:0x0(%rax,%rax,1)
    4abb:	00 00 00 00 
    4abf:	90                   	nop

0000000000004ac0 <pqcrystals_kyber1024_ref_poly_add>:
    4ac0:	f3 0f 1e fa          	endbr64 
    4ac4:	31 c0                	xor    %eax,%eax
    4ac6:	66 2e 0f 1f 84 00 00 	nopw   %cs:0x0(%rax,%rax,1)
    4acd:	00 00 00 
    4ad0:	f3 0f 6f 04 02       	movdqu (%rdx,%rax,1),%xmm0
    4ad5:	f3 0f 6f 0c 06       	movdqu (%rsi,%rax,1),%xmm1
    4ada:	66 0f fd c1          	paddw  %xmm1,%xmm0
    4ade:	0f 11 04 07          	movups %xmm0,(%rdi,%rax,1)
    4ae2:	48 83 c0 10          	add    $0x10,%rax
    4ae6:	48 3d 00 02 00 00    	cmp    $0x200,%rax
    4aec:	75 e2                	jne    4ad0 <pqcrystals_kyber1024_ref_poly_add+0x10>
    4aee:	c3                   	retq   
    4aef:	90                   	nop

0000000000004af0 <pqcrystals_kyber1024_ref_poly_sub>:
    4af0:	f3 0f 1e fa          	endbr64 
    4af4:	31 c0                	xor    %eax,%eax
    4af6:	66 2e 0f 1f 84 00 00 	nopw   %cs:0x0(%rax,%rax,1)
    4afd:	00 00 00 
    4b00:	f3 0f 6f 04 06       	movdqu (%rsi,%rax,1),%xmm0
    4b05:	f3 0f 6f 0c 02       	movdqu (%rdx,%rax,1),%xmm1
    4b0a:	66 0f f9 c1          	psubw  %xmm1,%xmm0
    4b0e:	0f 11 04 07          	movups %xmm0,(%rdi,%rax,1)
    4b12:	48 83 c0 10          	add    $0x10,%rax
    4b16:	48 3d 00 02 00 00    	cmp    $0x200,%rax
    4b1c:	75 e2                	jne    4b00 <pqcrystals_kyber1024_ref_poly_sub+0x10>
    4b1e:	c3                   	retq   
    4b1f:	90                   	nop

0000000000004b20 <pqcrystals_kyber1024_ref_ntt>:
    4b20:	f3 0f 1e fa          	endbr64 
    4b24:	41 57                	push   %r15
    4b26:	48 8d 47 02          	lea    0x2(%rdi),%rax
    4b2a:	41 56                	push   %r14
    4b2c:	41 55                	push   %r13
    4b2e:	41 bd 01 00 00 00    	mov    $0x1,%r13d
    4b34:	41 54                	push   %r12
    4b36:	55                   	push   %rbp
    4b37:	53                   	push   %rbx
    4b38:	bb 0a fd ff ff       	mov    $0xfffffd0a,%ebx
    4b3d:	48 83 ec 28          	sub    $0x28,%rsp
    4b41:	48 89 7c 24 08       	mov    %rdi,0x8(%rsp)
    4b46:	c7 44 24 1c 07 00 00 	movl   $0x7,0x1c(%rsp)
    4b4d:	00 
    4b4e:	c7 44 24 04 80 00 00 	movl   $0x80,0x4(%rsp)
    4b55:	00 
    4b56:	48 89 44 24 10       	mov    %rax,0x10(%rsp)
    4b5b:	0f 1f 44 00 00       	nopl   0x0(%rax,%rax,1)
    4b60:	8b 54 24 04          	mov    0x4(%rsp),%edx
    4b64:	31 c0                	xor    %eax,%eax
    4b66:	83 ea 01             	sub    $0x1,%edx
    4b69:	89 54 24 18          	mov    %edx,0x18(%rsp)
    4b6d:	0f 1f 00             	nopl   (%rax)
    4b70:	8b 54 24 04          	mov    0x4(%rsp),%edx
    4b74:	41 83 c5 01          	add    $0x1,%r13d
    4b78:	44 8d 24 02          	lea    (%rdx,%rax,1),%r12d
    4b7c:	41 39 c4             	cmp    %eax,%r12d
    4b7f:	0f 86 9b 00 00 00    	jbe    4c20 <pqcrystals_kyber1024_ref_ntt+0x100>
    4b85:	48 8b 54 24 08       	mov    0x8(%rsp),%rdx
    4b8a:	8b 4c 24 18          	mov    0x18(%rsp),%ecx
    4b8e:	44 89 e6             	mov    %r12d,%esi
    4b91:	48 29 c6             	sub    %rax,%rsi
    4b94:	4c 8d 34 42          	lea    (%rdx,%rax,2),%r14
    4b98:	48 8b 54 24 10       	mov    0x10(%rsp),%rdx
    4b9d:	48 01 c1             	add    %rax,%rcx
    4ba0:	49 89 f7             	mov    %rsi,%r15
    4ba3:	48 8d 2c 4a          	lea    (%rdx,%rcx,2),%rbp
    4ba7:	66 0f 1f 84 00 00 00 	nopw   0x0(%rax,%rax,1)
    4bae:	00 00 
    4bb0:	43 0f bf 3c 7e       	movswl (%r14,%r15,2),%edi
    4bb5:	0f af fb             	imul   %ebx,%edi
    4bb8:	e8 03 0e 00 00       	callq  59c0 <pqcrystals_kyber1024_ref_montgomery_reduce>
    4bbd:	41 0f b7 0e          	movzwl (%r14),%ecx
    4bc1:	29 c1                	sub    %eax,%ecx
    4bc3:	66 43 89 0c 7e       	mov    %cx,(%r14,%r15,2)
    4bc8:	66 41 01 06          	add    %ax,(%r14)
    4bcc:	49 83 c6 02          	add    $0x2,%r14
    4bd0:	4c 39 f5             	cmp    %r14,%rbp
    4bd3:	75 db                	jne    4bb0 <pqcrystals_kyber1024_ref_ntt+0x90>
    4bd5:	8b 44 24 04          	mov    0x4(%rsp),%eax
    4bd9:	44 01 e0             	add    %r12d,%eax
    4bdc:	3d ff 00 00 00       	cmp    $0xff,%eax
    4be1:	77 1d                	ja     4c00 <pqcrystals_kyber1024_ref_ntt+0xe0>
    4be3:	44 89 ea             	mov    %r13d,%edx
    4be6:	48 8d 35 d3 64 00 00 	lea    0x64d3(%rip),%rsi        # b0c0 <pqcrystals_kyber1024_ref_zetas>
    4bed:	0f bf 1c 56          	movswl (%rsi,%rdx,2),%ebx
    4bf1:	e9 7a ff ff ff       	jmpq   4b70 <pqcrystals_kyber1024_ref_ntt+0x50>
    4bf6:	66 2e 0f 1f 84 00 00 	nopw   %cs:0x0(%rax,%rax,1)
    4bfd:	00 00 00 
    4c00:	d1 6c 24 04          	shrl   0x4(%rsp)
    4c04:	83 6c 24 1c 01       	subl   $0x1,0x1c(%rsp)
    4c09:	74 1a                	je     4c25 <pqcrystals_kyber1024_ref_ntt+0x105>
    4c0b:	44 89 e8             	mov    %r13d,%eax
    4c0e:	48 8d 15 ab 64 00 00 	lea    0x64ab(%rip),%rdx        # b0c0 <pqcrystals_kyber1024_ref_zetas>
    4c15:	0f bf 1c 42          	movswl (%rdx,%rax,2),%ebx
    4c19:	e9 42 ff ff ff       	jmpq   4b60 <pqcrystals_kyber1024_ref_ntt+0x40>
    4c1e:	66 90                	xchg   %ax,%ax
    4c20:	44 89 e0             	mov    %r12d,%eax
    4c23:	eb be                	jmp    4be3 <pqcrystals_kyber1024_ref_ntt+0xc3>
    4c25:	48 83 c4 28          	add    $0x28,%rsp
    4c29:	5b                   	pop    %rbx
    4c2a:	5d                   	pop    %rbp
    4c2b:	41 5c                	pop    %r12
    4c2d:	41 5d                	pop    %r13
    4c2f:	41 5e                	pop    %r14
    4c31:	41 5f                	pop    %r15
    4c33:	c3                   	retq   
    4c34:	66 66 2e 0f 1f 84 00 	data16 nopw %cs:0x0(%rax,%rax,1)
    4c3b:	00 00 00 00 
    4c3f:	90                   	nop

0000000000004c40 <pqcrystals_kyber1024_ref_invntt>:
    4c40:	f3 0f 1e fa          	endbr64 
    4c44:	41 57                	push   %r15
    4c46:	41 56                	push   %r14
    4c48:	41 55                	push   %r13
    4c4a:	41 54                	push   %r12
    4c4c:	55                   	push   %rbp
    4c4d:	bd 5c 06 00 00       	mov    $0x65c,%ebp
    4c52:	53                   	push   %rbx
    4c53:	48 83 ec 28          	sub    $0x28,%rsp
    4c57:	48 89 7c 24 10       	mov    %rdi,0x10(%rsp)
    4c5c:	c7 44 24 1c 07 00 00 	movl   $0x7,0x1c(%rsp)
    4c63:	00 
    4c64:	c7 44 24 18 7f 00 00 	movl   $0x7f,0x18(%rsp)
    4c6b:	00 
    4c6c:	c7 44 24 0c 02 00 00 	movl   $0x2,0xc(%rsp)
    4c73:	00 
    4c74:	0f 1f 40 00          	nopl   0x0(%rax)
    4c78:	31 c0                	xor    %eax,%eax
    4c7a:	66 0f 1f 44 00 00    	nopw   0x0(%rax,%rax,1)
    4c80:	8b 74 24 0c          	mov    0xc(%rsp),%esi
    4c84:	83 6c 24 18 01       	subl   $0x1,0x18(%rsp)
    4c89:	44 8d 2c 30          	lea    (%rax,%rsi,1),%r13d
    4c8d:	41 39 c5             	cmp    %eax,%r13d
    4c90:	0f 86 aa 00 00 00    	jbe    4d40 <pqcrystals_kyber1024_ref_invntt+0x100>
    4c96:	48 8b 4c 24 10       	mov    0x10(%rsp),%rcx
    4c9b:	83 ee 01             	sub    $0x1,%esi
    4c9e:	44 89 ea             	mov    %r13d,%edx
    4ca1:	48 8d 1c 41          	lea    (%rcx,%rax,2),%rbx
    4ca5:	48 01 f0             	add    %rsi,%rax
    4ca8:	4c 8d 3c 51          	lea    (%rcx,%rdx,2),%r15
    4cac:	4c 8d 64 41 02       	lea    0x2(%rcx,%rax,2),%r12
    4cb1:	0f 1f 80 00 00 00 00 	nopl   0x0(%rax)
    4cb8:	44 0f b7 33          	movzwl (%rbx),%r14d
    4cbc:	41 0f b7 3f          	movzwl (%r15),%edi
    4cc0:	48 83 c3 02          	add    $0x2,%rbx
    4cc4:	49 83 c7 02          	add    $0x2,%r15
    4cc8:	44 01 f7             	add    %r14d,%edi
    4ccb:	0f bf ff             	movswl %di,%edi
    4cce:	e8 0d 0d 00 00       	callq  59e0 <pqcrystals_kyber1024_ref_barrett_reduce>
    4cd3:	66 89 43 fe          	mov    %ax,-0x2(%rbx)
    4cd7:	41 0f b7 7f fe       	movzwl -0x2(%r15),%edi
    4cdc:	44 29 f7             	sub    %r14d,%edi
    4cdf:	66 41 89 7f fe       	mov    %di,-0x2(%r15)
    4ce4:	0f bf ff             	movswl %di,%edi
    4ce7:	0f af fd             	imul   %ebp,%edi
    4cea:	e8 d1 0c 00 00       	callq  59c0 <pqcrystals_kyber1024_ref_montgomery_reduce>
    4cef:	66 41 89 47 fe       	mov    %ax,-0x2(%r15)
    4cf4:	49 39 dc             	cmp    %rbx,%r12
    4cf7:	75 bf                	jne    4cb8 <pqcrystals_kyber1024_ref_invntt+0x78>
    4cf9:	8b 44 24 0c          	mov    0xc(%rsp),%eax
    4cfd:	44 01 e8             	add    %r13d,%eax
    4d00:	3d ff 00 00 00       	cmp    $0xff,%eax
    4d05:	77 19                	ja     4d20 <pqcrystals_kyber1024_ref_invntt+0xe0>
    4d07:	8b 54 24 18          	mov    0x18(%rsp),%edx
    4d0b:	48 8d 0d ae 63 00 00 	lea    0x63ae(%rip),%rcx        # b0c0 <pqcrystals_kyber1024_ref_zetas>
    4d12:	0f bf 2c 51          	movswl (%rcx,%rdx,2),%ebp
    4d16:	e9 65 ff ff ff       	jmpq   4c80 <pqcrystals_kyber1024_ref_invntt+0x40>
    4d1b:	0f 1f 44 00 00       	nopl   0x0(%rax,%rax,1)
    4d20:	d1 64 24 0c          	shll   0xc(%rsp)
    4d24:	83 6c 24 1c 01       	subl   $0x1,0x1c(%rsp)
    4d29:	74 1a                	je     4d45 <pqcrystals_kyber1024_ref_invntt+0x105>
    4d2b:	8b 44 24 18          	mov    0x18(%rsp),%eax
    4d2f:	48 8d 15 8a 63 00 00 	lea    0x638a(%rip),%rdx        # b0c0 <pqcrystals_kyber1024_ref_zetas>
    4d36:	0f bf 2c 42          	movswl (%rdx,%rax,2),%ebp
    4d3a:	e9 39 ff ff ff       	jmpq   4c78 <pqcrystals_kyber1024_ref_invntt+0x38>
    4d3f:	90                   	nop
    4d40:	44 89 e8             	mov    %r13d,%eax
    4d43:	eb bb                	jmp    4d00 <pqcrystals_kyber1024_ref_invntt+0xc0>
    4d45:	48 8b 5c 24 10       	mov    0x10(%rsp),%rbx
    4d4a:	48 8d ab 00 02 00 00 	lea    0x200(%rbx),%rbp
    4d51:	0f 1f 80 00 00 00 00 	nopl   0x0(%rax)
    4d58:	0f bf 3b             	movswl (%rbx),%edi
    4d5b:	48 83 c3 02          	add    $0x2,%rbx
    4d5f:	69 ff a1 05 00 00    	imul   $0x5a1,%edi,%edi
    4d65:	e8 56 0c 00 00       	callq  59c0 <pqcrystals_kyber1024_ref_montgomery_reduce>
    4d6a:	66 89 43 fe          	mov    %ax,-0x2(%rbx)
    4d6e:	48 39 dd             	cmp    %rbx,%rbp
    4d71:	75 e5                	jne    4d58 <pqcrystals_kyber1024_ref_invntt+0x118>
    4d73:	48 83 c4 28          	add    $0x28,%rsp
    4d77:	5b                   	pop    %rbx
    4d78:	5d                   	pop    %rbp
    4d79:	41 5c                	pop    %r12
    4d7b:	41 5d                	pop    %r13
    4d7d:	41 5e                	pop    %r14
    4d7f:	41 5f                	pop    %r15
    4d81:	c3                   	retq   
    4d82:	66 66 2e 0f 1f 84 00 	data16 nopw %cs:0x0(%rax,%rax,1)
    4d89:	00 00 00 00 
    4d8d:	0f 1f 00             	nopl   (%rax)

0000000000004d90 <pqcrystals_kyber1024_ref_basemul>:
    4d90:	f3 0f 1e fa          	endbr64 
    4d94:	41 55                	push   %r13
    4d96:	49 89 d5             	mov    %rdx,%r13
    4d99:	41 54                	push   %r12
    4d9b:	49 89 f4             	mov    %rsi,%r12
    4d9e:	55                   	push   %rbp
    4d9f:	89 cd                	mov    %ecx,%ebp
    4da1:	53                   	push   %rbx
    4da2:	48 89 fb             	mov    %rdi,%rbx
    4da5:	0f bf ed             	movswl %bp,%ebp
    4da8:	48 83 ec 08          	sub    $0x8,%rsp
    4dac:	0f bf 7a 02          	movswl 0x2(%rdx),%edi
    4db0:	0f bf 46 02          	movswl 0x2(%rsi),%eax
    4db4:	0f af f8             	imul   %eax,%edi
    4db7:	e8 04 0c 00 00       	callq  59c0 <pqcrystals_kyber1024_ref_montgomery_reduce>
    4dbc:	0f bf f8             	movswl %ax,%edi
    4dbf:	66 89 03             	mov    %ax,(%rbx)
    4dc2:	0f af fd             	imul   %ebp,%edi
    4dc5:	e8 f6 0b 00 00       	callq  59c0 <pqcrystals_kyber1024_ref_montgomery_reduce>
    4dca:	66 89 03             	mov    %ax,(%rbx)
    4dcd:	41 0f bf 7d 00       	movswl 0x0(%r13),%edi
    4dd2:	41 0f bf 04 24       	movswl (%r12),%eax
    4dd7:	0f af f8             	imul   %eax,%edi
    4dda:	e8 e1 0b 00 00       	callq  59c0 <pqcrystals_kyber1024_ref_montgomery_reduce>
    4ddf:	66 01 03             	add    %ax,(%rbx)
    4de2:	41 0f bf 7d 02       	movswl 0x2(%r13),%edi
    4de7:	41 0f bf 04 24       	movswl (%r12),%eax
    4dec:	0f af f8             	imul   %eax,%edi
    4def:	e8 cc 0b 00 00       	callq  59c0 <pqcrystals_kyber1024_ref_montgomery_reduce>
    4df4:	66 89 43 02          	mov    %ax,0x2(%rbx)
    4df8:	41 0f bf 7d 00       	movswl 0x0(%r13),%edi
    4dfd:	41 0f bf 44 24 02    	movswl 0x2(%r12),%eax
    4e03:	0f af f8             	imul   %eax,%edi
    4e06:	e8 b5 0b 00 00       	callq  59c0 <pqcrystals_kyber1024_ref_montgomery_reduce>
    4e0b:	66 01 43 02          	add    %ax,0x2(%rbx)
    4e0f:	48 83 c4 08          	add    $0x8,%rsp
    4e13:	5b                   	pop    %rbx
    4e14:	5d                   	pop    %rbp
    4e15:	41 5c                	pop    %r12
    4e17:	41 5d                	pop    %r13
    4e19:	c3                   	retq   
    4e1a:	66 0f 1f 44 00 00    	nopw   0x0(%rax,%rax,1)

0000000000004e20 <pqcrystals_kyber1024_ref_poly_cbd_eta1>:
    4e20:	f3 0f 1e fa          	endbr64 
    4e24:	48 8d 8f 00 02 00 00 	lea    0x200(%rdi),%rcx
    4e2b:	48 8d 86 80 00 00 00 	lea    0x80(%rsi),%rax
    4e32:	48 39 ce             	cmp    %rcx,%rsi
    4e35:	73 09                	jae    4e40 <pqcrystals_kyber1024_ref_poly_cbd_eta1+0x20>
    4e37:	48 39 c7             	cmp    %rax,%rdi
    4e3a:	0f 82 c0 04 00 00    	jb     5300 <pqcrystals_kyber1024_ref_poly_cbd_eta1+0x4e0>
    4e40:	66 44 0f 6f 0d 77 63 	movdqa 0x6377(%rip),%xmm9        # b1c0 <pqcrystals_kyber1024_ref_zetas+0x100>
    4e47:	00 00 
    4e49:	66 0f 6f 35 7f 63 00 	movdqa 0x637f(%rip),%xmm6        # b1d0 <pqcrystals_kyber1024_ref_zetas+0x110>
    4e50:	00 
    4e51:	f3 0f 6f 0e          	movdqu (%rsi),%xmm1
    4e55:	f3 0f 6f 56 10       	movdqu 0x10(%rsi),%xmm2
    4e5a:	48 83 c6 20          	add    $0x20,%rsi
    4e5e:	48 83 ef 80          	sub    $0xffffffffffffff80,%rdi
    4e62:	66 0f 6f c1          	movdqa %xmm1,%xmm0
    4e66:	66 41 0f db c9       	pand   %xmm9,%xmm1
    4e6b:	66 0f 72 d0 01       	psrld  $0x1,%xmm0
    4e70:	66 41 0f db c1       	pand   %xmm9,%xmm0
    4e75:	66 0f fe c1          	paddd  %xmm1,%xmm0
    4e79:	66 0f 6f ca          	movdqa %xmm2,%xmm1
    4e7d:	66 41 0f db d1       	pand   %xmm9,%xmm2
    4e82:	66 0f 72 d1 01       	psrld  $0x1,%xmm1
    4e87:	66 0f 6f d8          	movdqa %xmm0,%xmm3
    4e8b:	66 41 0f db c9       	pand   %xmm9,%xmm1
    4e90:	66 0f fe ca          	paddd  %xmm2,%xmm1
    4e94:	66 0f 6f d0          	movdqa %xmm0,%xmm2
    4e98:	66 0f 61 d9          	punpcklwd %xmm1,%xmm3
    4e9c:	66 0f 69 d1          	punpckhwd %xmm1,%xmm2
    4ea0:	66 0f 6f e9          	movdqa %xmm1,%xmm5
    4ea4:	66 0f 6f e3          	movdqa %xmm3,%xmm4
    4ea8:	66 0f 61 da          	punpcklwd %xmm2,%xmm3
    4eac:	66 0f 6f f9          	movdqa %xmm1,%xmm7
    4eb0:	66 0f 69 e2          	punpckhwd %xmm2,%xmm4
    4eb4:	66 0f 6f d0          	movdqa %xmm0,%xmm2
    4eb8:	66 44 0f 6f c1       	movdqa %xmm1,%xmm8
    4ebd:	66 0f 72 d5 02       	psrld  $0x2,%xmm5
    4ec2:	66 0f 72 d2 02       	psrld  $0x2,%xmm2
    4ec7:	66 0f 61 dc          	punpcklwd %xmm4,%xmm3
    4ecb:	66 0f 6f e2          	movdqa %xmm2,%xmm4
    4ecf:	66 0f 61 d5          	punpcklwd %xmm5,%xmm2
    4ed3:	66 0f db de          	pand   %xmm6,%xmm3
    4ed7:	66 0f 69 e5          	punpckhwd %xmm5,%xmm4
    4edb:	66 0f 6f ea          	movdqa %xmm2,%xmm5
    4edf:	66 44 0f 6f d1       	movdqa %xmm1,%xmm10
    4ee4:	66 0f 69 ec          	punpckhwd %xmm4,%xmm5
    4ee8:	66 0f 61 d4          	punpcklwd %xmm4,%xmm2
    4eec:	66 44 0f 6f d9       	movdqa %xmm1,%xmm11
    4ef1:	66 0f 61 d5          	punpcklwd %xmm5,%xmm2
    4ef5:	66 0f 6f e9          	movdqa %xmm1,%xmm5
    4ef9:	66 44 0f 6f e1       	movdqa %xmm1,%xmm12
    4efe:	66 0f db d6          	pand   %xmm6,%xmm2
    4f02:	66 0f 72 d5 04       	psrld  $0x4,%xmm5
    4f07:	66 44 0f 6f e9       	movdqa %xmm1,%xmm13
    4f0c:	66 0f 72 d7 06       	psrld  $0x6,%xmm7
    4f11:	66 41 0f 72 d0 0a    	psrld  $0xa,%xmm8
    4f17:	66 0f f9 da          	psubw  %xmm2,%xmm3
    4f1b:	66 41 0f 72 d2 0e    	psrld  $0xe,%xmm10
    4f21:	66 41 0f 72 d3 12    	psrld  $0x12,%xmm11
    4f27:	66 0f 6f d0          	movdqa %xmm0,%xmm2
    4f2b:	66 0f 72 d2 04       	psrld  $0x4,%xmm2
    4f30:	66 41 0f 72 d4 16    	psrld  $0x16,%xmm12
    4f36:	66 0f 6f e2          	movdqa %xmm2,%xmm4
    4f3a:	66 41 0f 72 d5 1a    	psrld  $0x1a,%xmm13
    4f40:	66 0f 61 d5          	punpcklwd %xmm5,%xmm2
    4f44:	66 0f 69 e5          	punpckhwd %xmm5,%xmm4
    4f48:	66 0f 6f ea          	movdqa %xmm2,%xmm5
    4f4c:	66 0f 69 ec          	punpckhwd %xmm4,%xmm5
    4f50:	66 0f 61 d4          	punpcklwd %xmm4,%xmm2
    4f54:	66 0f 6f e0          	movdqa %xmm0,%xmm4
    4f58:	66 0f 72 d4 06       	psrld  $0x6,%xmm4
    4f5d:	66 0f 61 d5          	punpcklwd %xmm5,%xmm2
    4f61:	66 0f 6f ec          	movdqa %xmm4,%xmm5
    4f65:	66 0f 61 e7          	punpcklwd %xmm7,%xmm4
    4f69:	66 0f db d6          	pand   %xmm6,%xmm2
    4f6d:	66 0f 69 ef          	punpckhwd %xmm7,%xmm5
    4f71:	66 0f 6f fc          	movdqa %xmm4,%xmm7
    4f75:	66 0f 69 fd          	punpckhwd %xmm5,%xmm7
    4f79:	66 0f 61 e5          	punpcklwd %xmm5,%xmm4
    4f7d:	66 0f 6f e8          	movdqa %xmm0,%xmm5
    4f81:	66 0f 61 e7          	punpcklwd %xmm7,%xmm4
    4f85:	66 0f 72 d5 08       	psrld  $0x8,%xmm5
    4f8a:	66 0f 6f f9          	movdqa %xmm1,%xmm7
    4f8e:	66 0f 72 d7 08       	psrld  $0x8,%xmm7
    4f93:	66 0f db e6          	pand   %xmm6,%xmm4
    4f97:	66 0f f9 d4          	psubw  %xmm4,%xmm2
    4f9b:	66 0f 6f e5          	movdqa %xmm5,%xmm4
    4f9f:	66 0f 61 ef          	punpcklwd %xmm7,%xmm5
    4fa3:	66 0f 69 e7          	punpckhwd %xmm7,%xmm4
    4fa7:	66 0f 6f fd          	movdqa %xmm5,%xmm7
    4fab:	66 0f 69 fc          	punpckhwd %xmm4,%xmm7
    4faf:	66 0f 61 ec          	punpcklwd %xmm4,%xmm5
    4fb3:	66 0f 6f e0          	movdqa %xmm0,%xmm4
    4fb7:	66 0f 72 d4 0a       	psrld  $0xa,%xmm4
    4fbc:	66 0f 61 ef          	punpcklwd %xmm7,%xmm5
    4fc0:	66 0f 6f fc          	movdqa %xmm4,%xmm7
    4fc4:	66 41 0f 61 e0       	punpcklwd %xmm8,%xmm4
    4fc9:	66 0f db ee          	pand   %xmm6,%xmm5
    4fcd:	66 41 0f 69 f8       	punpckhwd %xmm8,%xmm7
    4fd2:	66 44 0f 6f c4       	movdqa %xmm4,%xmm8
    4fd7:	66 44 0f 69 c7       	punpckhwd %xmm7,%xmm8
    4fdc:	66 0f 61 e7          	punpcklwd %xmm7,%xmm4
    4fe0:	66 41 0f 61 e0       	punpcklwd %xmm8,%xmm4
    4fe5:	66 44 0f 6f c1       	movdqa %xmm1,%xmm8
    4fea:	66 0f db e6          	pand   %xmm6,%xmm4
    4fee:	66 41 0f 72 d0 0c    	psrld  $0xc,%xmm8
    4ff4:	66 0f f9 ec          	psubw  %xmm4,%xmm5
    4ff8:	66 0f 6f e0          	movdqa %xmm0,%xmm4
    4ffc:	66 0f 72 d4 0c       	psrld  $0xc,%xmm4
    5001:	66 0f 6f fc          	movdqa %xmm4,%xmm7
    5005:	66 41 0f 61 e0       	punpcklwd %xmm8,%xmm4
    500a:	66 41 0f 69 f8       	punpckhwd %xmm8,%xmm7
    500f:	66 44 0f 6f c4       	movdqa %xmm4,%xmm8
    5014:	66 44 0f 69 c7       	punpckhwd %xmm7,%xmm8
    5019:	66 0f 61 e7          	punpcklwd %xmm7,%xmm4
    501d:	66 0f 6f f8          	movdqa %xmm0,%xmm7
    5021:	66 0f 72 d7 0e       	psrld  $0xe,%xmm7
    5026:	66 41 0f 61 e0       	punpcklwd %xmm8,%xmm4
    502b:	66 44 0f 6f c7       	movdqa %xmm7,%xmm8
    5030:	66 41 0f 61 fa       	punpcklwd %xmm10,%xmm7
    5035:	66 0f db e6          	pand   %xmm6,%xmm4
    5039:	66 45 0f 69 c2       	punpckhwd %xmm10,%xmm8
    503e:	66 44 0f 6f d7       	movdqa %xmm7,%xmm10
    5043:	66 45 0f 69 d0       	punpckhwd %xmm8,%xmm10
    5048:	66 41 0f 61 f8       	punpcklwd %xmm8,%xmm7
    504d:	66 41 0f 61 fa       	punpcklwd %xmm10,%xmm7
    5052:	66 44 0f 6f d1       	movdqa %xmm1,%xmm10
    5057:	66 0f db fe          	pand   %xmm6,%xmm7
    505b:	66 41 0f 72 d2 10    	psrld  $0x10,%xmm10
    5061:	66 0f f9 e7          	psubw  %xmm7,%xmm4
    5065:	66 0f 6f f8          	movdqa %xmm0,%xmm7
    5069:	66 0f 72 d7 10       	psrld  $0x10,%xmm7
    506e:	66 44 0f 6f c7       	movdqa %xmm7,%xmm8
    5073:	66 41 0f 61 fa       	punpcklwd %xmm10,%xmm7
    5078:	66 45 0f 69 c2       	punpckhwd %xmm10,%xmm8
    507d:	66 44 0f 6f d7       	movdqa %xmm7,%xmm10
    5082:	66 45 0f 69 d0       	punpckhwd %xmm8,%xmm10
    5087:	66 41 0f 61 f8       	punpcklwd %xmm8,%xmm7
    508c:	66 44 0f 6f c0       	movdqa %xmm0,%xmm8
    5091:	66 41 0f 72 d0 12    	psrld  $0x12,%xmm8
    5097:	66 41 0f 61 fa       	punpcklwd %xmm10,%xmm7
    509c:	66 45 0f 6f d0       	movdqa %xmm8,%xmm10
    50a1:	66 45 0f 61 c3       	punpcklwd %xmm11,%xmm8
    50a6:	66 0f db fe          	pand   %xmm6,%xmm7
    50aa:	66 45 0f 69 d3       	punpckhwd %xmm11,%xmm10
    50af:	66 45 0f 6f d8       	movdqa %xmm8,%xmm11
    50b4:	66 45 0f 69 da       	punpckhwd %xmm10,%xmm11
    50b9:	66 45 0f 61 c2       	punpcklwd %xmm10,%xmm8
    50be:	66 45 0f 61 c3       	punpcklwd %xmm11,%xmm8
    50c3:	66 44 0f 6f d9       	movdqa %xmm1,%xmm11
    50c8:	66 44 0f db c6       	pand   %xmm6,%xmm8
    50cd:	66 41 0f 72 d3 14    	psrld  $0x14,%xmm11
    50d3:	66 41 0f f9 f8       	psubw  %xmm8,%xmm7
    50d8:	66 44 0f 6f c0       	movdqa %xmm0,%xmm8
    50dd:	66 41 0f 72 d0 14    	psrld  $0x14,%xmm8
    50e3:	66 45 0f 6f d0       	movdqa %xmm8,%xmm10
    50e8:	66 45 0f 61 c3       	punpcklwd %xmm11,%xmm8
    50ed:	66 45 0f 69 d3       	punpckhwd %xmm11,%xmm10
    50f2:	66 45 0f 6f d8       	movdqa %xmm8,%xmm11
    50f7:	66 45 0f 69 da       	punpckhwd %xmm10,%xmm11
    50fc:	66 45 0f 61 c2       	punpcklwd %xmm10,%xmm8
    5101:	66 45 0f 61 c3       	punpcklwd %xmm11,%xmm8
    5106:	66 45 0f 6f d0       	movdqa %xmm8,%xmm10
    510b:	66 44 0f 6f c0       	movdqa %xmm0,%xmm8
    5110:	66 41 0f 72 d0 16    	psrld  $0x16,%xmm8
    5116:	66 44 0f db d6       	pand   %xmm6,%xmm10
    511b:	66 45 0f 6f d8       	movdqa %xmm8,%xmm11
    5120:	66 45 0f 61 c4       	punpcklwd %xmm12,%xmm8
    5125:	66 45 0f 69 dc       	punpckhwd %xmm12,%xmm11
    512a:	66 45 0f 6f e0       	movdqa %xmm8,%xmm12
    512f:	66 45 0f 69 e3       	punpckhwd %xmm11,%xmm12
    5134:	66 45 0f 61 c3       	punpcklwd %xmm11,%xmm8
    5139:	66 44 0f 6f d8       	movdqa %xmm0,%xmm11
    513e:	66 45 0f 61 c4       	punpcklwd %xmm12,%xmm8
    5143:	66 41 0f 72 d3 18    	psrld  $0x18,%xmm11
    5149:	66 44 0f 6f e1       	movdqa %xmm1,%xmm12
    514e:	66 41 0f 72 d4 18    	psrld  $0x18,%xmm12
    5154:	66 44 0f db c6       	pand   %xmm6,%xmm8
    5159:	66 45 0f f9 d0       	psubw  %xmm8,%xmm10
    515e:	66 45 0f 6f c3       	movdqa %xmm11,%xmm8
    5163:	66 45 0f 61 dc       	punpcklwd %xmm12,%xmm11
    5168:	66 45 0f 69 c4       	punpckhwd %xmm12,%xmm8
    516d:	66 45 0f 6f e3       	movdqa %xmm11,%xmm12
    5172:	66 45 0f 69 e0       	punpckhwd %xmm8,%xmm12
    5177:	66 45 0f 61 d8       	punpcklwd %xmm8,%xmm11
    517c:	66 44 0f 6f c0       	movdqa %xmm0,%xmm8
    5181:	66 41 0f 72 d0 1a    	psrld  $0x1a,%xmm8
    5187:	66 45 0f 61 dc       	punpcklwd %xmm12,%xmm11
    518c:	66 45 0f 6f e0       	movdqa %xmm8,%xmm12
    5191:	66 45 0f 61 c5       	punpcklwd %xmm13,%xmm8
    5196:	66 44 0f db de       	pand   %xmm6,%xmm11
    519b:	66 45 0f 69 e5       	punpckhwd %xmm13,%xmm12
    51a0:	66 45 0f 6f e8       	movdqa %xmm8,%xmm13
    51a5:	66 45 0f 69 ec       	punpckhwd %xmm12,%xmm13
    51aa:	66 45 0f 61 c4       	punpcklwd %xmm12,%xmm8
    51af:	66 45 0f 61 c5       	punpcklwd %xmm13,%xmm8
    51b4:	66 44 0f 6f e9       	movdqa %xmm1,%xmm13
    51b9:	66 41 0f 72 d5 1c    	psrld  $0x1c,%xmm13
    51bf:	66 0f 72 d1 1e       	psrld  $0x1e,%xmm1
    51c4:	66 44 0f db c6       	pand   %xmm6,%xmm8
    51c9:	66 45 0f f9 d8       	psubw  %xmm8,%xmm11
    51ce:	66 44 0f 6f c0       	movdqa %xmm0,%xmm8
    51d3:	66 41 0f 72 d0 1c    	psrld  $0x1c,%xmm8
    51d9:	66 0f 72 d0 1e       	psrld  $0x1e,%xmm0
    51de:	66 45 0f 6f e0       	movdqa %xmm8,%xmm12
    51e3:	66 45 0f 61 c5       	punpcklwd %xmm13,%xmm8
    51e8:	66 45 0f 69 e5       	punpckhwd %xmm13,%xmm12
    51ed:	66 45 0f 6f e8       	movdqa %xmm8,%xmm13
    51f2:	66 45 0f 69 ec       	punpckhwd %xmm12,%xmm13
    51f7:	66 45 0f 61 c4       	punpcklwd %xmm12,%xmm8
    51fc:	66 44 0f 6f e0       	movdqa %xmm0,%xmm12
    5201:	66 0f 61 c1          	punpcklwd %xmm1,%xmm0
    5205:	66 44 0f 69 e1       	punpckhwd %xmm1,%xmm12
    520a:	66 45 0f 61 c5       	punpcklwd %xmm13,%xmm8
    520f:	66 0f 6f c8          	movdqa %xmm0,%xmm1
    5213:	66 41 0f 61 c4       	punpcklwd %xmm12,%xmm0
    5218:	66 44 0f db c6       	pand   %xmm6,%xmm8
    521d:	66 41 0f 69 cc       	punpckhwd %xmm12,%xmm1
    5222:	66 0f 61 c1          	punpcklwd %xmm1,%xmm0
    5226:	66 0f 6f cb          	movdqa %xmm3,%xmm1
    522a:	66 0f 69 df          	punpckhwd %xmm7,%xmm3
    522e:	66 0f 61 cf          	punpcklwd %xmm7,%xmm1
    5232:	66 0f 6f fd          	movdqa %xmm5,%xmm7
    5236:	66 44 0f f9 c0       	psubw  %xmm0,%xmm8
    523b:	66 41 0f 61 fb       	punpcklwd %xmm11,%xmm7
    5240:	66 41 0f 69 eb       	punpckhwd %xmm11,%xmm5
    5245:	66 44 0f 6f dc       	movdqa %xmm4,%xmm11
    524a:	66 45 0f 61 d8       	punpcklwd %xmm8,%xmm11
    524f:	66 41 0f 69 e0       	punpckhwd %xmm8,%xmm4
    5254:	66 0f 6f c2          	movdqa %xmm2,%xmm0
    5258:	66 44 0f 6f c1       	movdqa %xmm1,%xmm8
    525d:	66 0f 69 cf          	punpckhwd %xmm7,%xmm1
    5261:	66 41 0f 69 d2       	punpckhwd %xmm10,%xmm2
    5266:	66 44 0f 61 c7       	punpcklwd %xmm7,%xmm8
    526b:	66 41 0f 61 c2       	punpcklwd %xmm10,%xmm0
    5270:	66 0f 6f f9          	movdqa %xmm1,%xmm7
    5274:	66 0f 6f cb          	movdqa %xmm3,%xmm1
    5278:	66 44 0f 6f d0       	movdqa %xmm0,%xmm10
    527d:	66 0f 69 dd          	punpckhwd %xmm5,%xmm3
    5281:	66 0f 61 cd          	punpcklwd %xmm5,%xmm1
    5285:	66 0f 6f ea          	movdqa %xmm2,%xmm5
    5289:	66 45 0f 61 d3       	punpcklwd %xmm11,%xmm10
    528e:	66 0f 61 ec          	punpcklwd %xmm4,%xmm5
    5292:	66 0f 69 d4          	punpckhwd %xmm4,%xmm2
    5296:	66 41 0f 6f e0       	movdqa %xmm8,%xmm4
    529b:	66 41 0f 61 e2       	punpcklwd %xmm10,%xmm4
    52a0:	66 41 0f 69 c3       	punpckhwd %xmm11,%xmm0
    52a5:	66 45 0f 69 c2       	punpckhwd %xmm10,%xmm8
    52aa:	0f 11 67 80          	movups %xmm4,-0x80(%rdi)
    52ae:	66 0f 6f e7          	movdqa %xmm7,%xmm4
    52b2:	66 0f 69 f8          	punpckhwd %xmm0,%xmm7
    52b6:	66 0f 61 e0          	punpcklwd %xmm0,%xmm4
    52ba:	66 0f 6f c1          	movdqa %xmm1,%xmm0
    52be:	66 0f 69 cd          	punpckhwd %xmm5,%xmm1
    52c2:	0f 11 7f b0          	movups %xmm7,-0x50(%rdi)
    52c6:	66 0f 61 c5          	punpcklwd %xmm5,%xmm0
    52ca:	44 0f 11 47 90       	movups %xmm8,-0x70(%rdi)
    52cf:	0f 11 47 c0          	movups %xmm0,-0x40(%rdi)
    52d3:	66 0f 6f c3          	movdqa %xmm3,%xmm0
    52d7:	66 0f 69 da          	punpckhwd %xmm2,%xmm3
    52db:	66 0f 61 c2          	punpcklwd %xmm2,%xmm0
    52df:	0f 11 67 a0          	movups %xmm4,-0x60(%rdi)
    52e3:	0f 11 4f d0          	movups %xmm1,-0x30(%rdi)
    52e7:	0f 11 47 e0          	movups %xmm0,-0x20(%rdi)
    52eb:	0f 11 5f f0          	movups %xmm3,-0x10(%rdi)
    52ef:	48 39 c6             	cmp    %rax,%rsi
    52f2:	0f 85 59 fb ff ff    	jne    4e51 <pqcrystals_kyber1024_ref_poly_cbd_eta1+0x31>
    52f8:	c3                   	retq   
    52f9:	0f 1f 80 00 00 00 00 	nopl   0x0(%rax)
    5300:	8b 06                	mov    (%rsi),%eax
    5302:	89 c2                	mov    %eax,%edx
    5304:	d1 e8                	shr    %eax
    5306:	81 e2 55 55 55 55    	and    $0x55555555,%edx
    530c:	25 55 55 55 55       	and    $0x55555555,%eax
    5311:	01 d0                	add    %edx,%eax
    5313:	41 89 c0             	mov    %eax,%r8d
    5316:	89 c2                	mov    %eax,%edx
    5318:	41 c1 e8 02          	shr    $0x2,%r8d
    531c:	83 e2 03             	and    $0x3,%edx
    531f:	41 83 e0 03          	and    $0x3,%r8d
    5323:	44 29 c2             	sub    %r8d,%edx
    5326:	41 89 c0             	mov    %eax,%r8d
    5329:	66 89 17             	mov    %dx,(%rdi)
    532c:	89 c2                	mov    %eax,%edx
    532e:	41 c1 e8 06          	shr    $0x6,%r8d
    5332:	c1 ea 04             	shr    $0x4,%edx
    5335:	41 83 e0 03          	and    $0x3,%r8d
    5339:	83 e2 03             	and    $0x3,%edx
    533c:	44 29 c2             	sub    %r8d,%edx
    533f:	41 89 c0             	mov    %eax,%r8d
    5342:	66 89 57 02          	mov    %dx,0x2(%rdi)
    5346:	89 c2                	mov    %eax,%edx
    5348:	41 c1 e8 0a          	shr    $0xa,%r8d
    534c:	c1 ea 08             	shr    $0x8,%edx
    534f:	41 83 e0 03          	and    $0x3,%r8d
    5353:	83 e2 03             	and    $0x3,%edx
    5356:	44 29 c2             	sub    %r8d,%edx
    5359:	41 89 c0             	mov    %eax,%r8d
    535c:	66 89 57 04          	mov    %dx,0x4(%rdi)
    5360:	89 c2                	mov    %eax,%edx
    5362:	66 41 c1 e8 0e       	shr    $0xe,%r8w
    5367:	c1 ea 0c             	shr    $0xc,%edx
    536a:	83 e2 03             	and    $0x3,%edx
    536d:	44 29 c2             	sub    %r8d,%edx
    5370:	41 89 c0             	mov    %eax,%r8d
    5373:	66 89 57 06          	mov    %dx,0x6(%rdi)
    5377:	89 c2                	mov    %eax,%edx
    5379:	41 c1 e8 12          	shr    $0x12,%r8d
    537d:	c1 ea 10             	shr    $0x10,%edx
    5380:	41 83 e0 03          	and    $0x3,%r8d
    5384:	83 e2 03             	and    $0x3,%edx
    5387:	44 29 c2             	sub    %r8d,%edx
    538a:	41 89 c0             	mov    %eax,%r8d
    538d:	66 89 57 08          	mov    %dx,0x8(%rdi)
    5391:	89 c2                	mov    %eax,%edx
    5393:	41 c1 e8 16          	shr    $0x16,%r8d
    5397:	c1 ea 14             	shr    $0x14,%edx
    539a:	41 83 e0 03          	and    $0x3,%r8d
    539e:	83 e2 03             	and    $0x3,%edx
    53a1:	44 29 c2             	sub    %r8d,%edx
    53a4:	41 89 c0             	mov    %eax,%r8d
    53a7:	66 89 57 0a          	mov    %dx,0xa(%rdi)
    53ab:	89 c2                	mov    %eax,%edx
    53ad:	c1 ea 18             	shr    $0x18,%edx
    53b0:	41 c1 e8 1a          	shr    $0x1a,%r8d
    53b4:	48 83 c7 10          	add    $0x10,%rdi
    53b8:	48 83 c6 04          	add    $0x4,%rsi
    53bc:	83 e2 03             	and    $0x3,%edx
    53bf:	41 83 e0 03          	and    $0x3,%r8d
    53c3:	44 29 c2             	sub    %r8d,%edx
    53c6:	66 89 57 fc          	mov    %dx,-0x4(%rdi)
    53ca:	89 c2                	mov    %eax,%edx
    53cc:	c1 e8 1e             	shr    $0x1e,%eax
    53cf:	c1 ea 1c             	shr    $0x1c,%edx
    53d2:	83 e2 03             	and    $0x3,%edx
    53d5:	29 c2                	sub    %eax,%edx
    53d7:	66 89 57 fe          	mov    %dx,-0x2(%rdi)
    53db:	48 39 cf             	cmp    %rcx,%rdi
    53de:	0f 85 1c ff ff ff    	jne    5300 <pqcrystals_kyber1024_ref_poly_cbd_eta1+0x4e0>
    53e4:	c3                   	retq   
    53e5:	66 66 2e 0f 1f 84 00 	data16 nopw %cs:0x0(%rax,%rax,1)
    53ec:	00 00 00 00 

00000000000053f0 <pqcrystals_kyber1024_ref_poly_cbd_eta2>:
    53f0:	f3 0f 1e fa          	endbr64 
    53f4:	48 8d 8f 00 02 00 00 	lea    0x200(%rdi),%rcx
    53fb:	48 8d 86 80 00 00 00 	lea    0x80(%rsi),%rax
    5402:	48 39 ce             	cmp    %rcx,%rsi
    5405:	73 09                	jae    5410 <pqcrystals_kyber1024_ref_poly_cbd_eta2+0x20>
    5407:	48 39 c7             	cmp    %rax,%rdi
    540a:	0f 82 c0 04 00 00    	jb     58d0 <pqcrystals_kyber1024_ref_poly_cbd_eta2+0x4e0>
    5410:	66 44 0f 6f 0d a7 5d 	movdqa 0x5da7(%rip),%xmm9        # b1c0 <pqcrystals_kyber1024_ref_zetas+0x100>
    5417:	00 00 
    5419:	66 0f 6f 35 af 5d 00 	movdqa 0x5daf(%rip),%xmm6        # b1d0 <pqcrystals_kyber1024_ref_zetas+0x110>
    5420:	00 
    5421:	f3 0f 6f 0e          	movdqu (%rsi),%xmm1
    5425:	f3 0f 6f 56 10       	movdqu 0x10(%rsi),%xmm2
    542a:	48 83 c6 20          	add    $0x20,%rsi
    542e:	48 83 ef 80          	sub    $0xffffffffffffff80,%rdi
    5432:	66 0f 6f c1          	movdqa %xmm1,%xmm0
    5436:	66 41 0f db c9       	pand   %xmm9,%xmm1
    543b:	66 0f 72 d0 01       	psrld  $0x1,%xmm0
    5440:	66 41 0f db c1       	pand   %xmm9,%xmm0
    5445:	66 0f fe c1          	paddd  %xmm1,%xmm0
    5449:	66 0f 6f ca          	movdqa %xmm2,%xmm1
    544d:	66 41 0f db d1       	pand   %xmm9,%xmm2
    5452:	66 0f 72 d1 01       	psrld  $0x1,%xmm1
    5457:	66 0f 6f d8          	movdqa %xmm0,%xmm3
    545b:	66 41 0f db c9       	pand   %xmm9,%xmm1
    5460:	66 0f fe ca          	paddd  %xmm2,%xmm1
    5464:	66 0f 6f d0          	movdqa %xmm0,%xmm2
    5468:	66 0f 61 d9          	punpcklwd %xmm1,%xmm3
    546c:	66 0f 69 d1          	punpckhwd %xmm1,%xmm2
    5470:	66 0f 6f e9          	movdqa %xmm1,%xmm5
    5474:	66 0f 6f e3          	movdqa %xmm3,%xmm4
    5478:	66 0f 61 da          	punpcklwd %xmm2,%xmm3
    547c:	66 0f 6f f9          	movdqa %xmm1,%xmm7
    5480:	66 0f 69 e2          	punpckhwd %xmm2,%xmm4
    5484:	66 0f 6f d0          	movdqa %xmm0,%xmm2
    5488:	66 44 0f 6f c1       	movdqa %xmm1,%xmm8
    548d:	66 0f 72 d5 02       	psrld  $0x2,%xmm5
    5492:	66 0f 72 d2 02       	psrld  $0x2,%xmm2
    5497:	66 0f 61 dc          	punpcklwd %xmm4,%xmm3
    549b:	66 0f 6f e2          	movdqa %xmm2,%xmm4
    549f:	66 0f 61 d5          	punpcklwd %xmm5,%xmm2
    54a3:	66 0f db de          	pand   %xmm6,%xmm3
    54a7:	66 0f 69 e5          	punpckhwd %xmm5,%xmm4
    54ab:	66 0f 6f ea          	movdqa %xmm2,%xmm5
    54af:	66 44 0f 6f d1       	movdqa %xmm1,%xmm10
    54b4:	66 0f 69 ec          	punpckhwd %xmm4,%xmm5
    54b8:	66 0f 61 d4          	punpcklwd %xmm4,%xmm2
    54bc:	66 44 0f 6f d9       	movdqa %xmm1,%xmm11
    54c1:	66 0f 61 d5          	punpcklwd %xmm5,%xmm2
    54c5:	66 0f 6f e9          	movdqa %xmm1,%xmm5
    54c9:	66 44 0f 6f e1       	movdqa %xmm1,%xmm12
    54ce:	66 0f db d6          	pand   %xmm6,%xmm2
    54d2:	66 0f 72 d5 04       	psrld  $0x4,%xmm5
    54d7:	66 44 0f 6f e9       	movdqa %xmm1,%xmm13
    54dc:	66 0f 72 d7 06       	psrld  $0x6,%xmm7
    54e1:	66 41 0f 72 d0 0a    	psrld  $0xa,%xmm8
    54e7:	66 0f f9 da          	psubw  %xmm2,%xmm3
    54eb:	66 41 0f 72 d2 0e    	psrld  $0xe,%xmm10
    54f1:	66 41 0f 72 d3 12    	psrld  $0x12,%xmm11
    54f7:	66 0f 6f d0          	movdqa %xmm0,%xmm2
    54fb:	66 0f 72 d2 04       	psrld  $0x4,%xmm2
    5500:	66 41 0f 72 d4 16    	psrld  $0x16,%xmm12
    5506:	66 0f 6f e2          	movdqa %xmm2,%xmm4
    550a:	66 41 0f 72 d5 1a    	psrld  $0x1a,%xmm13
    5510:	66 0f 61 d5          	punpcklwd %xmm5,%xmm2
    5514:	66 0f 69 e5          	punpckhwd %xmm5,%xmm4
    5518:	66 0f 6f ea          	movdqa %xmm2,%xmm5
    551c:	66 0f 69 ec          	punpckhwd %xmm4,%xmm5
    5520:	66 0f 61 d4          	punpcklwd %xmm4,%xmm2
    5524:	66 0f 6f e0          	movdqa %xmm0,%xmm4
    5528:	66 0f 72 d4 06       	psrld  $0x6,%xmm4
    552d:	66 0f 61 d5          	punpcklwd %xmm5,%xmm2
    5531:	66 0f 6f ec          	movdqa %xmm4,%xmm5
    5535:	66 0f 61 e7          	punpcklwd %xmm7,%xmm4
    5539:	66 0f db d6          	pand   %xmm6,%xmm2
    553d:	66 0f 69 ef          	punpckhwd %xmm7,%xmm5
    5541:	66 0f 6f fc          	movdqa %xmm4,%xmm7
    5545:	66 0f 69 fd          	punpckhwd %xmm5,%xmm7
    5549:	66 0f 61 e5          	punpcklwd %xmm5,%xmm4
    554d:	66 0f 6f e8          	movdqa %xmm0,%xmm5
    5551:	66 0f 61 e7          	punpcklwd %xmm7,%xmm4
    5555:	66 0f 72 d5 08       	psrld  $0x8,%xmm5
    555a:	66 0f 6f f9          	movdqa %xmm1,%xmm7
    555e:	66 0f 72 d7 08       	psrld  $0x8,%xmm7
    5563:	66 0f db e6          	pand   %xmm6,%xmm4
    5567:	66 0f f9 d4          	psubw  %xmm4,%xmm2
    556b:	66 0f 6f e5          	movdqa %xmm5,%xmm4
    556f:	66 0f 61 ef          	punpcklwd %xmm7,%xmm5
    5573:	66 0f 69 e7          	punpckhwd %xmm7,%xmm4
    5577:	66 0f 6f fd          	movdqa %xmm5,%xmm7
    557b:	66 0f 69 fc          	punpckhwd %xmm4,%xmm7
    557f:	66 0f 61 ec          	punpcklwd %xmm4,%xmm5
    5583:	66 0f 6f e0          	movdqa %xmm0,%xmm4
    5587:	66 0f 72 d4 0a       	psrld  $0xa,%xmm4
    558c:	66 0f 61 ef          	punpcklwd %xmm7,%xmm5
    5590:	66 0f 6f fc          	movdqa %xmm4,%xmm7
    5594:	66 41 0f 61 e0       	punpcklwd %xmm8,%xmm4
    5599:	66 0f db ee          	pand   %xmm6,%xmm5
    559d:	66 41 0f 69 f8       	punpckhwd %xmm8,%xmm7
    55a2:	66 44 0f 6f c4       	movdqa %xmm4,%xmm8
    55a7:	66 44 0f 69 c7       	punpckhwd %xmm7,%xmm8
    55ac:	66 0f 61 e7          	punpcklwd %xmm7,%xmm4
    55b0:	66 41 0f 61 e0       	punpcklwd %xmm8,%xmm4
    55b5:	66 44 0f 6f c1       	movdqa %xmm1,%xmm8
    55ba:	66 0f db e6          	pand   %xmm6,%xmm4
    55be:	66 41 0f 72 d0 0c    	psrld  $0xc,%xmm8
    55c4:	66 0f f9 ec          	psubw  %xmm4,%xmm5
    55c8:	66 0f 6f e0          	movdqa %xmm0,%xmm4
    55cc:	66 0f 72 d4 0c       	psrld  $0xc,%xmm4
    55d1:	66 0f 6f fc          	movdqa %xmm4,%xmm7
    55d5:	66 41 0f 61 e0       	punpcklwd %xmm8,%xmm4
    55da:	66 41 0f 69 f8       	punpckhwd %xmm8,%xmm7
    55df:	66 44 0f 6f c4       	movdqa %xmm4,%xmm8
    55e4:	66 44 0f 69 c7       	punpckhwd %xmm7,%xmm8
    55e9:	66 0f 61 e7          	punpcklwd %xmm7,%xmm4
    55ed:	66 0f 6f f8          	movdqa %xmm0,%xmm7
    55f1:	66 0f 72 d7 0e       	psrld  $0xe,%xmm7
    55f6:	66 41 0f 61 e0       	punpcklwd %xmm8,%xmm4
    55fb:	66 44 0f 6f c7       	movdqa %xmm7,%xmm8
    5600:	66 41 0f 61 fa       	punpcklwd %xmm10,%xmm7
    5605:	66 0f db e6          	pand   %xmm6,%xmm4
    5609:	66 45 0f 69 c2       	punpckhwd %xmm10,%xmm8
    560e:	66 44 0f 6f d7       	movdqa %xmm7,%xmm10
    5613:	66 45 0f 69 d0       	punpckhwd %xmm8,%xmm10
    5618:	66 41 0f 61 f8       	punpcklwd %xmm8,%xmm7
    561d:	66 41 0f 61 fa       	punpcklwd %xmm10,%xmm7
    5622:	66 44 0f 6f d1       	movdqa %xmm1,%xmm10
    5627:	66 0f db fe          	pand   %xmm6,%xmm7
    562b:	66 41 0f 72 d2 10    	psrld  $0x10,%xmm10
    5631:	66 0f f9 e7          	psubw  %xmm7,%xmm4
    5635:	66 0f 6f f8          	movdqa %xmm0,%xmm7
    5639:	66 0f 72 d7 10       	psrld  $0x10,%xmm7
    563e:	66 44 0f 6f c7       	movdqa %xmm7,%xmm8
    5643:	66 41 0f 61 fa       	punpcklwd %xmm10,%xmm7
    5648:	66 45 0f 69 c2       	punpckhwd %xmm10,%xmm8
    564d:	66 44 0f 6f d7       	movdqa %xmm7,%xmm10
    5652:	66 45 0f 69 d0       	punpckhwd %xmm8,%xmm10
    5657:	66 41 0f 61 f8       	punpcklwd %xmm8,%xmm7
    565c:	66 44 0f 6f c0       	movdqa %xmm0,%xmm8
    5661:	66 41 0f 72 d0 12    	psrld  $0x12,%xmm8
    5667:	66 41 0f 61 fa       	punpcklwd %xmm10,%xmm7
    566c:	66 45 0f 6f d0       	movdqa %xmm8,%xmm10
    5671:	66 45 0f 61 c3       	punpcklwd %xmm11,%xmm8
    5676:	66 0f db fe          	pand   %xmm6,%xmm7
    567a:	66 45 0f 69 d3       	punpckhwd %xmm11,%xmm10
    567f:	66 45 0f 6f d8       	movdqa %xmm8,%xmm11
    5684:	66 45 0f 69 da       	punpckhwd %xmm10,%xmm11
    5689:	66 45 0f 61 c2       	punpcklwd %xmm10,%xmm8
    568e:	66 45 0f 61 c3       	punpcklwd %xmm11,%xmm8
    5693:	66 44 0f 6f d9       	movdqa %xmm1,%xmm11
    5698:	66 44 0f db c6       	pand   %xmm6,%xmm8
    569d:	66 41 0f 72 d3 14    	psrld  $0x14,%xmm11
    56a3:	66 41 0f f9 f8       	psubw  %xmm8,%xmm7
    56a8:	66 44 0f 6f c0       	movdqa %xmm0,%xmm8
    56ad:	66 41 0f 72 d0 14    	psrld  $0x14,%xmm8
    56b3:	66 45 0f 6f d0       	movdqa %xmm8,%xmm10
    56b8:	66 45 0f 61 c3       	punpcklwd %xmm11,%xmm8
    56bd:	66 45 0f 69 d3       	punpckhwd %xmm11,%xmm10
    56c2:	66 45 0f 6f d8       	movdqa %xmm8,%xmm11
    56c7:	66 45 0f 69 da       	punpckhwd %xmm10,%xmm11
    56cc:	66 45 0f 61 c2       	punpcklwd %xmm10,%xmm8
    56d1:	66 45 0f 61 c3       	punpcklwd %xmm11,%xmm8
    56d6:	66 45 0f 6f d0       	movdqa %xmm8,%xmm10
    56db:	66 44 0f 6f c0       	movdqa %xmm0,%xmm8
    56e0:	66 41 0f 72 d0 16    	psrld  $0x16,%xmm8
    56e6:	66 44 0f db d6       	pand   %xmm6,%xmm10
    56eb:	66 45 0f 6f d8       	movdqa %xmm8,%xmm11
    56f0:	66 45 0f 61 c4       	punpcklwd %xmm12,%xmm8
    56f5:	66 45 0f 69 dc       	punpckhwd %xmm12,%xmm11
    56fa:	66 45 0f 6f e0       	movdqa %xmm8,%xmm12
    56ff:	66 45 0f 69 e3       	punpckhwd %xmm11,%xmm12
    5704:	66 45 0f 61 c3       	punpcklwd %xmm11,%xmm8
    5709:	66 44 0f 6f d8       	movdqa %xmm0,%xmm11
    570e:	66 45 0f 61 c4       	punpcklwd %xmm12,%xmm8
    5713:	66 41 0f 72 d3 18    	psrld  $0x18,%xmm11
    5719:	66 44 0f 6f e1       	movdqa %xmm1,%xmm12
    571e:	66 41 0f 72 d4 18    	psrld  $0x18,%xmm12
    5724:	66 44 0f db c6       	pand   %xmm6,%xmm8
    5729:	66 45 0f f9 d0       	psubw  %xmm8,%xmm10
    572e:	66 45 0f 6f c3       	movdqa %xmm11,%xmm8
    5733:	66 45 0f 61 dc       	punpcklwd %xmm12,%xmm11
    5738:	66 45 0f 69 c4       	punpckhwd %xmm12,%xmm8
    573d:	66 45 0f 6f e3       	movdqa %xmm11,%xmm12
    5742:	66 45 0f 69 e0       	punpckhwd %xmm8,%xmm12
    5747:	66 45 0f 61 d8       	punpcklwd %xmm8,%xmm11
    574c:	66 44 0f 6f c0       	movdqa %xmm0,%xmm8
    5751:	66 41 0f 72 d0 1a    	psrld  $0x1a,%xmm8
    5757:	66 45 0f 61 dc       	punpcklwd %xmm12,%xmm11
    575c:	66 45 0f 6f e0       	movdqa %xmm8,%xmm12
    5761:	66 45 0f 61 c5       	punpcklwd %xmm13,%xmm8
    5766:	66 44 0f db de       	pand   %xmm6,%xmm11
    576b:	66 45 0f 69 e5       	punpckhwd %xmm13,%xmm12
    5770:	66 45 0f 6f e8       	movdqa %xmm8,%xmm13
    5775:	66 45 0f 69 ec       	punpckhwd %xmm12,%xmm13
    577a:	66 45 0f 61 c4       	punpcklwd %xmm12,%xmm8
    577f:	66 45 0f 61 c5       	punpcklwd %xmm13,%xmm8
    5784:	66 44 0f 6f e9       	movdqa %xmm1,%xmm13
    5789:	66 41 0f 72 d5 1c    	psrld  $0x1c,%xmm13
    578f:	66 0f 72 d1 1e       	psrld  $0x1e,%xmm1
    5794:	66 44 0f db c6       	pand   %xmm6,%xmm8
    5799:	66 45 0f f9 d8       	psubw  %xmm8,%xmm11
    579e:	66 44 0f 6f c0       	movdqa %xmm0,%xmm8
    57a3:	66 41 0f 72 d0 1c    	psrld  $0x1c,%xmm8
    57a9:	66 0f 72 d0 1e       	psrld  $0x1e,%xmm0
    57ae:	66 45 0f 6f e0       	movdqa %xmm8,%xmm12
    57b3:	66 45 0f 61 c5       	punpcklwd %xmm13,%xmm8
    57b8:	66 45 0f 69 e5       	punpckhwd %xmm13,%xmm12
    57bd:	66 45 0f 6f e8       	movdqa %xmm8,%xmm13
    57c2:	66 45 0f 69 ec       	punpckhwd %xmm12,%xmm13
    57c7:	66 45 0f 61 c4       	punpcklwd %xmm12,%xmm8
    57cc:	66 44 0f 6f e0       	movdqa %xmm0,%xmm12
    57d1:	66 0f 61 c1          	punpcklwd %xmm1,%xmm0
    57d5:	66 44 0f 69 e1       	punpckhwd %xmm1,%xmm12
    57da:	66 45 0f 61 c5       	punpcklwd %xmm13,%xmm8
    57df:	66 0f 6f c8          	movdqa %xmm0,%xmm1
    57e3:	66 41 0f 61 c4       	punpcklwd %xmm12,%xmm0
    57e8:	66 44 0f db c6       	pand   %xmm6,%xmm8
    57ed:	66 41 0f 69 cc       	punpckhwd %xmm12,%xmm1
    57f2:	66 0f 61 c1          	punpcklwd %xmm1,%xmm0
    57f6:	66 0f 6f cb          	movdqa %xmm3,%xmm1
    57fa:	66 0f 69 df          	punpckhwd %xmm7,%xmm3
    57fe:	66 0f 61 cf          	punpcklwd %xmm7,%xmm1
    5802:	66 0f 6f fd          	movdqa %xmm5,%xmm7
    5806:	66 44 0f f9 c0       	psubw  %xmm0,%xmm8
    580b:	66 41 0f 61 fb       	punpcklwd %xmm11,%xmm7
    5810:	66 41 0f 69 eb       	punpckhwd %xmm11,%xmm5
    5815:	66 44 0f 6f dc       	movdqa %xmm4,%xmm11
    581a:	66 45 0f 61 d8       	punpcklwd %xmm8,%xmm11
    581f:	66 41 0f 69 e0       	punpckhwd %xmm8,%xmm4
    5824:	66 0f 6f c2          	movdqa %xmm2,%xmm0
    5828:	66 44 0f 6f c1       	movdqa %xmm1,%xmm8
    582d:	66 0f 69 cf          	punpckhwd %xmm7,%xmm1
    5831:	66 41 0f 69 d2       	punpckhwd %xmm10,%xmm2
    5836:	66 44 0f 61 c7       	punpcklwd %xmm7,%xmm8
    583b:	66 41 0f 61 c2       	punpcklwd %xmm10,%xmm0
    5840:	66 0f 6f f9          	movdqa %xmm1,%xmm7
    5844:	66 0f 6f cb          	movdqa %xmm3,%xmm1
    5848:	66 44 0f 6f d0       	movdqa %xmm0,%xmm10
    584d:	66 0f 69 dd          	punpckhwd %xmm5,%xmm3
    5851:	66 0f 61 cd          	punpcklwd %xmm5,%xmm1
    5855:	66 0f 6f ea          	movdqa %xmm2,%xmm5
    5859:	66 45 0f 61 d3       	punpcklwd %xmm11,%xmm10
    585e:	66 0f 61 ec          	punpcklwd %xmm4,%xmm5
    5862:	66 0f 69 d4          	punpckhwd %xmm4,%xmm2
    5866:	66 41 0f 6f e0       	movdqa %xmm8,%xmm4
    586b:	66 41 0f 61 e2       	punpcklwd %xmm10,%xmm4
    5870:	66 41 0f 69 c3       	punpckhwd %xmm11,%xmm0
    5875:	66 45 0f 69 c2       	punpckhwd %xmm10,%xmm8
    587a:	0f 11 67 80          	movups %xmm4,-0x80(%rdi)
    587e:	66 0f 6f e7          	movdqa %xmm7,%xmm4
    5882:	66 0f 69 f8          	punpckhwd %xmm0,%xmm7
    5886:	66 0f 61 e0          	punpcklwd %xmm0,%xmm4
    588a:	66 0f 6f c1          	movdqa %xmm1,%xmm0
    588e:	66 0f 69 cd          	punpckhwd %xmm5,%xmm1
    5892:	0f 11 7f b0          	movups %xmm7,-0x50(%rdi)
    5896:	66 0f 61 c5          	punpcklwd %xmm5,%xmm0
    589a:	44 0f 11 47 90       	movups %xmm8,-0x70(%rdi)
    589f:	0f 11 47 c0          	movups %xmm0,-0x40(%rdi)
    58a3:	66 0f 6f c3          	movdqa %xmm3,%xmm0
    58a7:	66 0f 69 da          	punpckhwd %xmm2,%xmm3
    58ab:	66 0f 61 c2          	punpcklwd %xmm2,%xmm0
    58af:	0f 11 67 a0          	movups %xmm4,-0x60(%rdi)
    58b3:	0f 11 4f d0          	movups %xmm1,-0x30(%rdi)
    58b7:	0f 11 47 e0          	movups %xmm0,-0x20(%rdi)
    58bb:	0f 11 5f f0          	movups %xmm3,-0x10(%rdi)
    58bf:	48 39 c6             	cmp    %rax,%rsi
    58c2:	0f 85 59 fb ff ff    	jne    5421 <pqcrystals_kyber1024_ref_poly_cbd_eta2+0x31>
    58c8:	c3                   	retq   
    58c9:	0f 1f 80 00 00 00 00 	nopl   0x0(%rax)
    58d0:	8b 06                	mov    (%rsi),%eax
    58d2:	89 c2                	mov    %eax,%edx
    58d4:	d1 e8                	shr    %eax
    58d6:	81 e2 55 55 55 55    	and    $0x55555555,%edx
    58dc:	25 55 55 55 55       	and    $0x55555555,%eax
    58e1:	01 d0                	add    %edx,%eax
    58e3:	41 89 c0             	mov    %eax,%r8d
    58e6:	89 c2                	mov    %eax,%edx
    58e8:	41 c1 e8 02          	shr    $0x2,%r8d
    58ec:	83 e2 03             	and    $0x3,%edx
    58ef:	41 83 e0 03          	and    $0x3,%r8d
    58f3:	44 29 c2             	sub    %r8d,%edx
    58f6:	41 89 c0             	mov    %eax,%r8d
    58f9:	66 89 17             	mov    %dx,(%rdi)
    58fc:	89 c2                	mov    %eax,%edx
    58fe:	41 c1 e8 06          	shr    $0x6,%r8d
    5902:	c1 ea 04             	shr    $0x4,%edx
    5905:	41 83 e0 03          	and    $0x3,%r8d
    5909:	83 e2 03             	and    $0x3,%edx
    590c:	44 29 c2             	sub    %r8d,%edx
    590f:	41 89 c0             	mov    %eax,%r8d
    5912:	66 89 57 02          	mov    %dx,0x2(%rdi)
    5916:	89 c2                	mov    %eax,%edx
    5918:	41 c1 e8 0a          	shr    $0xa,%r8d
    591c:	c1 ea 08             	shr    $0x8,%edx
    591f:	41 83 e0 03          	and    $0x3,%r8d
    5923:	83 e2 03             	and    $0x3,%edx
    5926:	44 29 c2             	sub    %r8d,%edx
    5929:	41 89 c0             	mov    %eax,%r8d
    592c:	66 89 57 04          	mov    %dx,0x4(%rdi)
    5930:	89 c2                	mov    %eax,%edx
    5932:	66 41 c1 e8 0e       	shr    $0xe,%r8w
    5937:	c1 ea 0c             	shr    $0xc,%edx
    593a:	83 e2 03             	and    $0x3,%edx
    593d:	44 29 c2             	sub    %r8d,%edx
    5940:	41 89 c0             	mov    %eax,%r8d
    5943:	66 89 57 06          	mov    %dx,0x6(%rdi)
    5947:	89 c2                	mov    %eax,%edx
    5949:	41 c1 e8 12          	shr    $0x12,%r8d
    594d:	c1 ea 10             	shr    $0x10,%edx
    5950:	41 83 e0 03          	and    $0x3,%r8d
    5954:	83 e2 03             	and    $0x3,%edx
    5957:	44 29 c2             	sub    %r8d,%edx
    595a:	41 89 c0             	mov    %eax,%r8d
    595d:	66 89 57 08          	mov    %dx,0x8(%rdi)
    5961:	89 c2                	mov    %eax,%edx
    5963:	41 c1 e8 16          	shr    $0x16,%r8d
    5967:	c1 ea 14             	shr    $0x14,%edx
    596a:	41 83 e0 03          	and    $0x3,%r8d
    596e:	83 e2 03             	and    $0x3,%edx
    5971:	44 29 c2             	sub    %r8d,%edx
    5974:	41 89 c0             	mov    %eax,%r8d
    5977:	66 89 57 0a          	mov    %dx,0xa(%rdi)
    597b:	89 c2                	mov    %eax,%edx
    597d:	c1 ea 18             	shr    $0x18,%edx
    5980:	41 c1 e8 1a          	shr    $0x1a,%r8d
    5984:	48 83 c7 10          	add    $0x10,%rdi
    5988:	48 83 c6 04          	add    $0x4,%rsi
    598c:	83 e2 03             	and    $0x3,%edx
    598f:	41 83 e0 03          	and    $0x3,%r8d
    5993:	44 29 c2             	sub    %r8d,%edx
    5996:	66 89 57 fc          	mov    %dx,-0x4(%rdi)
    599a:	89 c2                	mov    %eax,%edx
    599c:	c1 e8 1e             	shr    $0x1e,%eax
    599f:	c1 ea 1c             	shr    $0x1c,%edx
    59a2:	83 e2 03             	and    $0x3,%edx
    59a5:	29 c2                	sub    %eax,%edx
    59a7:	66 89 57 fe          	mov    %dx,-0x2(%rdi)
    59ab:	48 39 cf             	cmp    %rcx,%rdi
    59ae:	0f 85 1c ff ff ff    	jne    58d0 <pqcrystals_kyber1024_ref_poly_cbd_eta2+0x4e0>
    59b4:	c3                   	retq   
    59b5:	66 2e 0f 1f 84 00 00 	nopw   %cs:0x0(%rax,%rax,1)
    59bc:	00 00 00 
    59bf:	90                   	nop

00000000000059c0 <pqcrystals_kyber1024_ref_montgomery_reduce>:
    59c0:	f3 0f 1e fa          	endbr64 
    59c4:	66 69 c7 01 f3       	imul   $0xf301,%di,%ax
    59c9:	98                   	cwtl   
    59ca:	69 c0 ff f2 ff ff    	imul   $0xfffff2ff,%eax,%eax
    59d0:	01 f8                	add    %edi,%eax
    59d2:	c1 f8 10             	sar    $0x10,%eax
    59d5:	c3                   	retq   
    59d6:	66 2e 0f 1f 84 00 00 	nopw   %cs:0x0(%rax,%rax,1)
    59dd:	00 00 00 

00000000000059e0 <pqcrystals_kyber1024_ref_barrett_reduce>:
    59e0:	f3 0f 1e fa          	endbr64 
    59e4:	0f bf d7             	movswl %di,%edx
    59e7:	89 f8                	mov    %edi,%eax
    59e9:	69 d2 bf 4e 00 00    	imul   $0x4ebf,%edx,%edx
    59ef:	81 c2 00 00 00 02    	add    $0x2000000,%edx
    59f5:	c1 fa 1a             	sar    $0x1a,%edx
    59f8:	66 69 d2 01 0d       	imul   $0xd01,%dx,%dx
    59fd:	29 d0                	sub    %edx,%eax
    59ff:	c3                   	retq   

0000000000005a00 <pqcrystals_kyber1024_ref_verify>:
    5a00:	f3 0f 1e fa          	endbr64 
    5a04:	48 85 d2             	test   %rdx,%rdx
    5a07:	0f 84 03 02 00 00    	je     5c10 <pqcrystals_kyber1024_ref_verify+0x210>
    5a0d:	48 8d 42 ff          	lea    -0x1(%rdx),%rax
    5a11:	48 83 f8 0e          	cmp    $0xe,%rax
    5a15:	0f 86 f8 01 00 00    	jbe    5c13 <pqcrystals_kyber1024_ref_verify+0x213>
    5a1b:	48 89 d1             	mov    %rdx,%rcx
    5a1e:	31 c0                	xor    %eax,%eax
    5a20:	66 0f ef c0          	pxor   %xmm0,%xmm0
    5a24:	48 83 e1 f0          	and    $0xfffffffffffffff0,%rcx
    5a28:	0f 1f 84 00 00 00 00 	nopl   0x0(%rax,%rax,1)
    5a2f:	00 
    5a30:	f3 0f 6f 0c 06       	movdqu (%rsi,%rax,1),%xmm1
    5a35:	f3 0f 6f 14 07       	movdqu (%rdi,%rax,1),%xmm2
    5a3a:	48 83 c0 10          	add    $0x10,%rax
    5a3e:	66 0f ef ca          	pxor   %xmm2,%xmm1
    5a42:	66 0f eb c1          	por    %xmm1,%xmm0
    5a46:	48 39 c8             	cmp    %rcx,%rax
    5a49:	75 e5                	jne    5a30 <pqcrystals_kyber1024_ref_verify+0x30>
    5a4b:	66 0f 6f c8          	movdqa %xmm0,%xmm1
    5a4f:	48 89 d1             	mov    %rdx,%rcx
    5a52:	66 0f 73 d9 08       	psrldq $0x8,%xmm1
    5a57:	48 83 e1 f0          	and    $0xfffffffffffffff0,%rcx
    5a5b:	66 0f eb c1          	por    %xmm1,%xmm0
    5a5f:	66 0f 6f c8          	movdqa %xmm0,%xmm1
    5a63:	66 0f 73 d9 04       	psrldq $0x4,%xmm1
    5a68:	66 0f eb c1          	por    %xmm1,%xmm0
    5a6c:	66 0f 6f c8          	movdqa %xmm0,%xmm1
    5a70:	66 0f 73 d9 02       	psrldq $0x2,%xmm1
    5a75:	66 0f eb c1          	por    %xmm1,%xmm0
    5a79:	66 0f 6f c8          	movdqa %xmm0,%xmm1
    5a7d:	66 0f 73 d9 01       	psrldq $0x1,%xmm1
    5a82:	66 0f eb c1          	por    %xmm1,%xmm0
    5a86:	0f 29 44 24 e8       	movaps %xmm0,-0x18(%rsp)
    5a8b:	0f b6 44 24 e8       	movzbl -0x18(%rsp),%eax
    5a90:	f6 c2 0f             	test   $0xf,%dl
    5a93:	0f 84 6b 01 00 00    	je     5c04 <pqcrystals_kyber1024_ref_verify+0x204>
    5a99:	44 0f b6 04 0f       	movzbl (%rdi,%rcx,1),%r8d
    5a9e:	44 32 04 0e          	xor    (%rsi,%rcx,1),%r8b
    5aa2:	44 09 c0             	or     %r8d,%eax
    5aa5:	4c 8d 41 01          	lea    0x1(%rcx),%r8
    5aa9:	4c 39 c2             	cmp    %r8,%rdx
    5aac:	0f 86 52 01 00 00    	jbe    5c04 <pqcrystals_kyber1024_ref_verify+0x204>
    5ab2:	44 0f b6 44 0f 01    	movzbl 0x1(%rdi,%rcx,1),%r8d
    5ab8:	44 32 44 0e 01       	xor    0x1(%rsi,%rcx,1),%r8b
    5abd:	44 09 c0             	or     %r8d,%eax
    5ac0:	4c 8d 41 02          	lea    0x2(%rcx),%r8
    5ac4:	4c 39 c2             	cmp    %r8,%rdx
    5ac7:	0f 86 37 01 00 00    	jbe    5c04 <pqcrystals_kyber1024_ref_verify+0x204>
    5acd:	44 0f b6 44 0f 02    	movzbl 0x2(%rdi,%rcx,1),%r8d
    5ad3:	44 32 44 0e 02       	xor    0x2(%rsi,%rcx,1),%r8b
    5ad8:	44 09 c0             	or     %r8d,%eax
    5adb:	4c 8d 41 03          	lea    0x3(%rcx),%r8
    5adf:	4c 39 c2             	cmp    %r8,%rdx
    5ae2:	0f 86 1c 01 00 00    	jbe    5c04 <pqcrystals_kyber1024_ref_verify+0x204>
    5ae8:	44 0f b6 44 0f 03    	movzbl 0x3(%rdi,%rcx,1),%r8d
    5aee:	44 32 44 0e 03       	xor    0x3(%rsi,%rcx,1),%r8b
    5af3:	44 09 c0             	or     %r8d,%eax
    5af6:	4c 8d 41 04          	lea    0x4(%rcx),%r8
    5afa:	4c 39 c2             	cmp    %r8,%rdx
    5afd:	0f 86 01 01 00 00    	jbe    5c04 <pqcrystals_kyber1024_ref_verify+0x204>
    5b03:	44 0f b6 44 0f 04    	movzbl 0x4(%rdi,%rcx,1),%r8d
    5b09:	44 32 44 0e 04       	xor    0x4(%rsi,%rcx,1),%r8b
    5b0e:	44 09 c0             	or     %r8d,%eax
    5b11:	4c 8d 41 05          	lea    0x5(%rcx),%r8
    5b15:	4c 39 c2             	cmp    %r8,%rdx
    5b18:	0f 86 e6 00 00 00    	jbe    5c04 <pqcrystals_kyber1024_ref_verify+0x204>
    5b1e:	44 0f b6 44 0f 05    	movzbl 0x5(%rdi,%rcx,1),%r8d
    5b24:	44 32 44 0e 05       	xor    0x5(%rsi,%rcx,1),%r8b
    5b29:	44 09 c0             	or     %r8d,%eax
    5b2c:	4c 8d 41 06          	lea    0x6(%rcx),%r8
    5b30:	4c 39 c2             	cmp    %r8,%rdx
    5b33:	0f 86 cb 00 00 00    	jbe    5c04 <pqcrystals_kyber1024_ref_verify+0x204>
    5b39:	44 0f b6 44 0f 06    	movzbl 0x6(%rdi,%rcx,1),%r8d
    5b3f:	44 32 44 0e 06       	xor    0x6(%rsi,%rcx,1),%r8b
    5b44:	44 09 c0             	or     %r8d,%eax
    5b47:	4c 8d 41 07          	lea    0x7(%rcx),%r8
    5b4b:	4c 39 c2             	cmp    %r8,%rdx
    5b4e:	0f 86 b0 00 00 00    	jbe    5c04 <pqcrystals_kyber1024_ref_verify+0x204>
